ARM GAS  C:\Users\jack2\AppData\Local\Temp\ccBwqOQt.s 			page 1


   1              		.cpu cortex-m4
   2              		.eabi_attribute 27, 1
   3              		.eabi_attribute 28, 1
   4              		.eabi_attribute 20, 1
   5              		.eabi_attribute 21, 1
   6              		.eabi_attribute 23, 3
   7              		.eabi_attribute 24, 1
   8              		.eabi_attribute 25, 1
   9              		.eabi_attribute 26, 1
  10              		.eabi_attribute 30, 1
  11              		.eabi_attribute 34, 1
  12              		.eabi_attribute 18, 4
  13              		.file	"7Seg.c"
  14              		.text
  15              	.Ltext0:
  16              		.cfi_sections	.debug_frame
  17              		.section	.text.updateDisplayCell,"ax",%progbits
  18              		.align	1
  19              		.global	updateDisplayCell
  20              		.arch armv7e-m
  21              		.syntax unified
  22              		.thumb
  23              		.thumb_func
  24              		.fpu fpv4-sp-d16
  26              	updateDisplayCell:
  27              	.LVL0:
  28              	.LFB132:
  29              		.file 1 "Core/Src/7Seg.c"
   1:Core/Src/7Seg.c **** #include "7Seg.h"
   2:Core/Src/7Seg.c **** #include "stm32g4xx_hal.h"
   3:Core/Src/7Seg.c **** #include <stm32g441xx.h>
   4:Core/Src/7Seg.c **** 
   5:Core/Src/7Seg.c **** const int oneDraw[4][4] =
   6:Core/Src/7Seg.c **** {
   7:Core/Src/7Seg.c **** 	{NONE, D_SHAPE , ALL_SEVEN, NONE	},
   8:Core/Src/7Seg.c **** 	{NONE, NONE	   , ALL_SEVEN, NONE	},
   9:Core/Src/7Seg.c **** 	{NONE, NONE	   , ALL_SEVEN, NONE	},
  10:Core/Src/7Seg.c **** 	{NONE, BOTTOM_O, ALL_SEVEN, BOTTOM_O}
  11:Core/Src/7Seg.c **** };
  12:Core/Src/7Seg.c **** 
  13:Core/Src/7Seg.c **** const int twoDraw[4][4] =
  14:Core/Src/7Seg.c **** {
  15:Core/Src/7Seg.c ****     {NONE, D_SHAPE, TOP_O, B_SHAPE},
  16:Core/Src/7Seg.c ****     {NONE, NONE, NONE, ALL_SEVEN},
  17:Core/Src/7Seg.c ****     {NONE, D_SHAPE, P_SHAPE, T_L_CORNER},
  18:Core/Src/7Seg.c ****     {NONE, ALL_SEVEN, BOTTOM_O, BOTTOM_O}
  19:Core/Src/7Seg.c **** 	// {BOTTOM_O, TOP_O   , TOP_O	 , BOTTOM_O},
  20:Core/Src/7Seg.c **** 	// {NONE	 , NONE	   , D_SHAPE , P_SHAPE },
  21:Core/Src/7Seg.c **** 	// {NONE	 , D_SHAPE , P_SHAPE , NONE	   },
  22:Core/Src/7Seg.c **** 	// {Q_SHAPE , BOTTOM_O, BOTTOM_O, P_SHAPE }
  23:Core/Src/7Seg.c **** };
  24:Core/Src/7Seg.c **** 
  25:Core/Src/7Seg.c **** const int threeDraw[4][4] =
  26:Core/Src/7Seg.c **** {
  27:Core/Src/7Seg.c **** 	{NONE, TOP_O		, TOP_O	  , B_SHAPE},
  28:Core/Src/7Seg.c **** 	{NONE	, B_R_CORNER, BOTTOM_O, P_SHAPE},
  29:Core/Src/7Seg.c **** 	{NONE	, T_R_CORNER, TOP_O	  , B_SHAPE},
ARM GAS  C:\Users\jack2\AppData\Local\Temp\ccBwqOQt.s 			page 2


  30:Core/Src/7Seg.c **** 	{NONE, BOTTOM_O	, BOTTOM_O, P_SHAPE}
  31:Core/Src/7Seg.c **** };
  32:Core/Src/7Seg.c **** 
  33:Core/Src/7Seg.c **** const int fourDraw[4][4] =
  34:Core/Src/7Seg.c **** {
  35:Core/Src/7Seg.c **** 	{NONE	, ALL_SEVEN	  , NONE	, ALL_SEVEN},
  36:Core/Src/7Seg.c **** 	{NONE	, ALL_SEVEN , NONE	, ALL_SEVEN},
  37:Core/Src/7Seg.c **** 	{NONE, TOP_O, TOP_O, ALL_SEVEN},
  38:Core/Src/7Seg.c **** 	{NONE	, NONE	  , NONE	, ALL_SEVEN}
  39:Core/Src/7Seg.c **** };
  40:Core/Src/7Seg.c **** 
  41:Core/Src/7Seg.c **** const int fiveDraw[4][4] =
  42:Core/Src/7Seg.c **** {
  43:Core/Src/7Seg.c **** 	{NONE,	ALL_SEVEN	, TOP_O	  , TOP_O	  },
  44:Core/Src/7Seg.c **** 	{NONE,	ALL_SEVEN, BOTTOM_O, B_L_CORNER},
  45:Core/Src/7Seg.c **** 	{NONE ,	BOTTOM_O	, NONE	  , ALL_SEVEN },
  46:Core/Src/7Seg.c **** 	{NONE  ,	Q_SHAPE, BOTTOM_O, P_SHAPE   }
  47:Core/Src/7Seg.c **** };
  48:Core/Src/7Seg.c **** 
  49:Core/Src/7Seg.c **** const int sixDraw[4][4] =
  50:Core/Src/7Seg.c **** {
  51:Core/Src/7Seg.c **** 	{NONE  ,	D_SHAPE	, Q_SHAPE , B_SHAPE	  },
  52:Core/Src/7Seg.c **** 	{NONE,	ALL_SEVEN, BOTTOM_O, B_L_CORNER},
  53:Core/Src/7Seg.c **** 	{NONE,	ALL_SEVEN	, NONE	  , ALL_SEVEN },
  54:Core/Src/7Seg.c **** 	{NONE  ,	Q_SHAPE, BOTTOM_O, P_SHAPE	  }
  55:Core/Src/7Seg.c **** };
  56:Core/Src/7Seg.c **** 
  57:Core/Src/7Seg.c **** const int sevenDraw[4][4] =
  58:Core/Src/7Seg.c **** {
  59:Core/Src/7Seg.c **** 	{NONE, TOP_O	 , TOP_O  , ALL_SEVEN},
  60:Core/Src/7Seg.c **** 	{NONE ,	NONE	 , D_SHAPE, NONE	 },
  61:Core/Src/7Seg.c **** 	{NONE ,	ALL_SEVEN, NONE   , NONE	 },
  62:Core/Src/7Seg.c **** 	{NONE ,	ALL_SEVEN, NONE   , NONE	 }
  63:Core/Src/7Seg.c **** };
  64:Core/Src/7Seg.c **** 
  65:Core/Src/7Seg.c **** const int eightDraw[4][4] =
  66:Core/Src/7Seg.c **** {
  67:Core/Src/7Seg.c **** 	{NONE , D_SHAPE   , TOP_O   , B_SHAPE },
  68:Core/Src/7Seg.c **** 	{NONE 	 , Q_SHAPE, BOTTOM_O, P_SHAPE   },
  69:Core/Src/7Seg.c **** 	{NONE, D_SHAPE   , TOP_O   , B_SHAPE},
  70:Core/Src/7Seg.c **** 	{NONE , Q_SHAPE, BOTTOM_O, P_SHAPE }
  71:Core/Src/7Seg.c **** };
  72:Core/Src/7Seg.c **** 
  73:Core/Src/7Seg.c **** const int nineDraw[4][4] =
  74:Core/Src/7Seg.c **** {
  75:Core/Src/7Seg.c **** 	{NONE   , D_SHAPE  , TOP_O  , B_SHAPE  },
  76:Core/Src/7Seg.c **** 	{NONE , ALL_SEVEN	, NONE   , ALL_SEVEN},
  77:Core/Src/7Seg.c **** 	{NONE, T_R_CORNER  , TOP_O  , ALL_SEVEN},
  78:Core/Src/7Seg.c **** 	{NONE   , BOTTOM_O, D_SHAPE, P_SHAPE  }
  79:Core/Src/7Seg.c **** };
  80:Core/Src/7Seg.c **** 
  81:Core/Src/7Seg.c **** const int zeroDraw[4][4] =
  82:Core/Src/7Seg.c **** {
  83:Core/Src/7Seg.c **** 	{D_SHAPE   , TOP_O  , TOP_O  , B_SHAPE  },
  84:Core/Src/7Seg.c **** 	{ALL_SEVEN , NONE	, NONE   , ALL_SEVEN},
  85:Core/Src/7Seg.c **** 	{ALL_SEVEN , NONE   , NONE   , ALL_SEVEN},
  86:Core/Src/7Seg.c **** 	{Q_SHAPE   , B_SHAPE, D_SHAPE, P_SHAPE  }
ARM GAS  C:\Users\jack2\AppData\Local\Temp\ccBwqOQt.s 			page 3


  87:Core/Src/7Seg.c **** };
  88:Core/Src/7Seg.c **** 
  89:Core/Src/7Seg.c **** const int (* numDraws[10])[4][4] = {&zeroDraw, &oneDraw, &twoDraw, &threeDraw, &fourDraw, &fiveDraw
  90:Core/Src/7Seg.c **** 
  91:Core/Src/7Seg.c **** const int displayAddresses[4][17] = {
  92:Core/Src/7Seg.c ****     // 0     1    2      3      4    5     6     7     8     9    10     11    12    13   14     15
  93:Core/Src/7Seg.c ****     {0x30, 0x28, 0x08, 0x10, 0x31, 0x29, 0x09, 0x11, 0x34, 0x32, 0x2a, 0x0a, 0x12, 0x33, 0x2b, 0x0b
  94:Core/Src/7Seg.c ****     {0x38, 0x20, 0x18, 0x00, 0x39, 0x21, 0x19, 0x01, 0x3c, 0x3a, 0x22, 0x1a, 0x02, 0x3b, 0x23, 0x1b
  95:Core/Src/7Seg.c ****     {0x58, 0x50, 0x68, 0x60, 0x59, 0x51, 0x69, 0x61, 0x5c, 0x5a, 0x52, 0x6a, 0x62, 0x5b, 0x53, 0x6b
  96:Core/Src/7Seg.c ****     {0x40, 0x48, 0x70, 0x78, 0x41, 0x49, 0x71, 0x79, 0x44, 0x42, 0x4a, 0x72, 0x7a, 0x43, 0x4b, 0x73
  97:Core/Src/7Seg.c **** };
  98:Core/Src/7Seg.c **** 
  99:Core/Src/7Seg.c **** const int secretOrder[2][68] = 
 100:Core/Src/7Seg.c **** {
 101:Core/Src/7Seg.c ****     {3, 7,12,16, 2, 6,11,15, 3, 7,12,16, 2, 6,11,15, 1, 5,10,14, 1, 5,10,14, 0, 4, 9,13, 8, 0, 4, 9
 102:Core/Src/7Seg.c ****     {1, 1, 1, 1, 0, 0, 0, 0, 0, 0, 0, 0, 1, 1, 1, 1, 1, 1, 1, 1, 0, 0, 0, 0, 0, 0, 0, 0, 0, 1, 1, 1
 103:Core/Src/7Seg.c **** };
 104:Core/Src/7Seg.c **** 
 105:Core/Src/7Seg.c **** int lastDisplayState[4][17] = { 
 106:Core/Src/7Seg.c ****     {-1, -1, -1, -1, -1, -1, -1, -1, -1, -1, -1, -1, -1, -1, -1, -1, -1},
 107:Core/Src/7Seg.c ****     {-1, -1, -1, -1, -1, -1, -1, -1, -1, -1, -1, -1, -1, -1, -1, -1, -1},
 108:Core/Src/7Seg.c ****     {-1, -1, -1, -1, -1, -1, -1, -1, -1, -1, -1, -1, -1, -1, -1, -1, -1},
 109:Core/Src/7Seg.c ****     {-1, -1, -1, -1, -1, -1, -1, -1, -1, -1, -1, -1, -1, -1, -1, -1, -1},
 110:Core/Src/7Seg.c ****  };
 111:Core/Src/7Seg.c **** 
 112:Core/Src/7Seg.c **** int displayState[4][17] = { 0 };
 113:Core/Src/7Seg.c **** 
 114:Core/Src/7Seg.c **** void updateDisplayCell(int data, int row, int col)
 115:Core/Src/7Seg.c **** {
  30              		.loc 1 115 1 view -0
  31              		.cfi_startproc
  32              		@ args = 0, pretend = 0, frame = 0
  33              		@ frame_needed = 0, uses_anonymous_args = 0
  34              		@ link register save eliminated.
 116:Core/Src/7Seg.c ****     displayState[row][col] = data;
  35              		.loc 1 116 5 view .LVU1
  36              		.loc 1 116 28 is_stmt 0 view .LVU2
  37 0000 01EB0111 		add	r1, r1, r1, lsl #4
  38              	.LVL1:
  39              		.loc 1 116 28 view .LVU3
  40 0004 1144     		add	r1, r1, r2
  41 0006 024B     		ldr	r3, .L2
  42 0008 43F82100 		str	r0, [r3, r1, lsl #2]
 117:Core/Src/7Seg.c **** }
  43              		.loc 1 117 1 view .LVU4
  44 000c 7047     		bx	lr
  45              	.L3:
  46 000e 00BF     		.align	2
  47              	.L2:
  48 0010 00000000 		.word	.LANCHOR0
  49              		.cfi_endproc
  50              	.LFE132:
  52              		.section	.text.updateDisplayWithTime,"ax",%progbits
  53              		.align	1
  54              		.global	updateDisplayWithTime
  55              		.syntax unified
  56              		.thumb
ARM GAS  C:\Users\jack2\AppData\Local\Temp\ccBwqOQt.s 			page 4


  57              		.thumb_func
  58              		.fpu fpv4-sp-d16
  60              	updateDisplayWithTime:
  61              	.LVL2:
  62              	.LFB133:
 118:Core/Src/7Seg.c **** 
 119:Core/Src/7Seg.c **** void updateDisplayWithTime(int hr, int min)
 120:Core/Src/7Seg.c **** {
  63              		.loc 1 120 1 is_stmt 1 view -0
  64              		.cfi_startproc
  65              		@ args = 0, pretend = 0, frame = 0
  66              		@ frame_needed = 0, uses_anonymous_args = 0
  67              		.loc 1 120 1 is_stmt 0 view .LVU6
  68 0000 F8B5     		push	{r3, r4, r5, r6, r7, lr}
  69              		.cfi_def_cfa_offset 24
  70              		.cfi_offset 3, -24
  71              		.cfi_offset 4, -20
  72              		.cfi_offset 5, -16
  73              		.cfi_offset 6, -12
  74              		.cfi_offset 7, -8
  75              		.cfi_offset 14, -4
  76 0002 0646     		mov	r6, r0
  77 0004 0D46     		mov	r5, r1
 121:Core/Src/7Seg.c ****     for (int i = 0; i < 4; i++)
  78              		.loc 1 121 5 is_stmt 1 view .LVU7
  79              	.LBB2:
  80              		.loc 1 121 10 view .LVU8
  81              	.LVL3:
  82              		.loc 1 121 14 is_stmt 0 view .LVU9
  83 0006 0027     		movs	r7, #0
  84              		.loc 1 121 5 view .LVU10
  85 0008 14E0     		b	.L5
  86              	.LVL4:
  87              	.L6:
  88              	.LBB3:
  89              	.LBB4:
 122:Core/Src/7Seg.c ****     {
 123:Core/Src/7Seg.c ****         for (int j = 0; j < 4; j++)
 124:Core/Src/7Seg.c ****         {
 125:Core/Src/7Seg.c ****             int data = (*numDraws[hr / 10])[j][i];
  90              		.loc 1 125 13 is_stmt 1 discriminator 3 view .LVU11
  91              		.loc 1 125 38 is_stmt 0 discriminator 3 view .LVU12
  92 000a 464A     		ldr	r2, .L26
  93 000c 82FB0632 		smull	r3, r2, r2, r6
  94 0010 F317     		asrs	r3, r6, #31
  95 0012 C3EBA203 		rsb	r3, r3, r2, asr #2
  96              		.loc 1 125 34 discriminator 3 view .LVU13
  97 0016 444A     		ldr	r2, .L26+4
  98 0018 52F82330 		ldr	r3, [r2, r3, lsl #2]
  99              		.loc 1 125 17 discriminator 3 view .LVU14
 100 001c 07EB8400 		add	r0, r7, r4, lsl #2
 101              	.LVL5:
 126:Core/Src/7Seg.c ****             updateDisplayCell(data, j, i);
 102              		.loc 1 126 13 is_stmt 1 discriminator 3 view .LVU15
 103 0020 3A46     		mov	r2, r7
 104 0022 2146     		mov	r1, r4
 105 0024 53F82000 		ldr	r0, [r3, r0, lsl #2]
ARM GAS  C:\Users\jack2\AppData\Local\Temp\ccBwqOQt.s 			page 5


 106              	.LVL6:
 107              		.loc 1 126 13 is_stmt 0 discriminator 3 view .LVU16
 108 0028 FFF7FEFF 		bl	updateDisplayCell
 109              	.LVL7:
 110              		.loc 1 126 13 discriminator 3 view .LVU17
 111              	.LBE4:
 123:Core/Src/7Seg.c ****         {
 112              		.loc 1 123 32 is_stmt 1 discriminator 3 view .LVU18
 123:Core/Src/7Seg.c ****         {
 113              		.loc 1 123 33 is_stmt 0 discriminator 3 view .LVU19
 114 002c 0134     		adds	r4, r4, #1
 115              	.LVL8:
 116              	.L7:
 123:Core/Src/7Seg.c ****         {
 117              		.loc 1 123 25 is_stmt 1 discriminator 1 view .LVU20
 123:Core/Src/7Seg.c ****         {
 118              		.loc 1 123 9 is_stmt 0 discriminator 1 view .LVU21
 119 002e 032C     		cmp	r4, #3
 120 0030 EBDD     		ble	.L6
 121              	.LBE3:
 121:Core/Src/7Seg.c ****     {
 122              		.loc 1 121 28 is_stmt 1 discriminator 2 view .LVU22
 121:Core/Src/7Seg.c ****     {
 123              		.loc 1 121 29 is_stmt 0 discriminator 2 view .LVU23
 124 0032 0137     		adds	r7, r7, #1
 125              	.LVL9:
 126              	.L5:
 121:Core/Src/7Seg.c ****     {
 127              		.loc 1 121 21 is_stmt 1 discriminator 1 view .LVU24
 121:Core/Src/7Seg.c ****     {
 128              		.loc 1 121 5 is_stmt 0 discriminator 1 view .LVU25
 129 0034 032F     		cmp	r7, #3
 130 0036 01DC     		bgt	.L22
 131              	.LBB5:
 123:Core/Src/7Seg.c ****         {
 132              		.loc 1 123 18 view .LVU26
 133 0038 0024     		movs	r4, #0
 134 003a F8E7     		b	.L7
 135              	.L22:
 136              	.LBE5:
 137              	.LBE2:
 138              	.LBB6:
 127:Core/Src/7Seg.c ****         }
 128:Core/Src/7Seg.c ****     }
 129:Core/Src/7Seg.c ****     for (int i = 4; i < 8; i++)
 139              		.loc 1 129 14 view .LVU27
 140 003c 0427     		movs	r7, #4
 141              	.LVL10:
 142              		.loc 1 129 14 view .LVU28
 143 003e 19E0     		b	.L8
 144              	.LVL11:
 145              	.L9:
 146              	.LBB7:
 147              	.LBB8:
 130:Core/Src/7Seg.c ****     {
 131:Core/Src/7Seg.c ****         for (int j = 0; j < 4; j++)
 132:Core/Src/7Seg.c ****         {
ARM GAS  C:\Users\jack2\AppData\Local\Temp\ccBwqOQt.s 			page 6


 133:Core/Src/7Seg.c ****             int data = (*numDraws[hr % 10])[j][i - 4];
 148              		.loc 1 133 13 is_stmt 1 discriminator 3 view .LVU29
 149              		.loc 1 133 38 is_stmt 0 discriminator 3 view .LVU30
 150 0040 384A     		ldr	r2, .L26
 151 0042 82FB0632 		smull	r3, r2, r2, r6
 152 0046 F317     		asrs	r3, r6, #31
 153 0048 C3EBA203 		rsb	r3, r3, r2, asr #2
 154 004c 03EB8303 		add	r3, r3, r3, lsl #2
 155 0050 A6EB4303 		sub	r3, r6, r3, lsl #1
 156              		.loc 1 133 34 discriminator 3 view .LVU31
 157 0054 344A     		ldr	r2, .L26+4
 158 0056 52F82300 		ldr	r0, [r2, r3, lsl #2]
 159              		.loc 1 133 50 discriminator 3 view .LVU32
 160 005a 3B1F     		subs	r3, r7, #4
 161              		.loc 1 133 17 discriminator 3 view .LVU33
 162 005c 03EB8403 		add	r3, r3, r4, lsl #2
 163              	.LVL12:
 134:Core/Src/7Seg.c ****             updateDisplayCell(data, j, i);
 164              		.loc 1 134 13 is_stmt 1 discriminator 3 view .LVU34
 165 0060 3A46     		mov	r2, r7
 166 0062 2146     		mov	r1, r4
 167 0064 50F82300 		ldr	r0, [r0, r3, lsl #2]
 168              	.LVL13:
 169              		.loc 1 134 13 is_stmt 0 discriminator 3 view .LVU35
 170 0068 FFF7FEFF 		bl	updateDisplayCell
 171              	.LVL14:
 172              		.loc 1 134 13 discriminator 3 view .LVU36
 173              	.LBE8:
 131:Core/Src/7Seg.c ****         {
 174              		.loc 1 131 32 is_stmt 1 discriminator 3 view .LVU37
 131:Core/Src/7Seg.c ****         {
 175              		.loc 1 131 33 is_stmt 0 discriminator 3 view .LVU38
 176 006c 0134     		adds	r4, r4, #1
 177              	.LVL15:
 178              	.L10:
 131:Core/Src/7Seg.c ****         {
 179              		.loc 1 131 25 is_stmt 1 discriminator 1 view .LVU39
 131:Core/Src/7Seg.c ****         {
 180              		.loc 1 131 9 is_stmt 0 discriminator 1 view .LVU40
 181 006e 032C     		cmp	r4, #3
 182 0070 E6DD     		ble	.L9
 183              	.LBE7:
 129:Core/Src/7Seg.c ****     {
 184              		.loc 1 129 28 is_stmt 1 discriminator 2 view .LVU41
 129:Core/Src/7Seg.c ****     {
 185              		.loc 1 129 29 is_stmt 0 discriminator 2 view .LVU42
 186 0072 0137     		adds	r7, r7, #1
 187              	.LVL16:
 188              	.L8:
 129:Core/Src/7Seg.c ****     {
 189              		.loc 1 129 21 is_stmt 1 discriminator 1 view .LVU43
 129:Core/Src/7Seg.c ****     {
 190              		.loc 1 129 5 is_stmt 0 discriminator 1 view .LVU44
 191 0074 072F     		cmp	r7, #7
 192 0076 01DC     		bgt	.L23
 193              	.LBB9:
 131:Core/Src/7Seg.c ****         {
ARM GAS  C:\Users\jack2\AppData\Local\Temp\ccBwqOQt.s 			page 7


 194              		.loc 1 131 18 view .LVU45
 195 0078 0024     		movs	r4, #0
 196 007a F8E7     		b	.L10
 197              	.L23:
 198              	.LBE9:
 199              	.LBE6:
 135:Core/Src/7Seg.c ****         }
 136:Core/Src/7Seg.c ****     }
 137:Core/Src/7Seg.c ****     
 138:Core/Src/7Seg.c ****     updateDisplayCell(0x00, 0, 8);
 200              		.loc 1 138 5 is_stmt 1 view .LVU46
 201 007c 0822     		movs	r2, #8
 202 007e 0021     		movs	r1, #0
 203 0080 0846     		mov	r0, r1
 204 0082 FFF7FEFF 		bl	updateDisplayCell
 205              	.LVL17:
 139:Core/Src/7Seg.c ****     updateDisplayCell(DEC_POINT, 1, 8);
 206              		.loc 1 139 5 view .LVU47
 207 0086 0822     		movs	r2, #8
 208 0088 0121     		movs	r1, #1
 209 008a 1020     		movs	r0, #16
 210 008c FFF7FEFF 		bl	updateDisplayCell
 211              	.LVL18:
 140:Core/Src/7Seg.c ****     updateDisplayCell(DEC_POINT, 2, 8);
 212              		.loc 1 140 5 view .LVU48
 213 0090 0822     		movs	r2, #8
 214 0092 0221     		movs	r1, #2
 215 0094 1020     		movs	r0, #16
 216 0096 FFF7FEFF 		bl	updateDisplayCell
 217              	.LVL19:
 141:Core/Src/7Seg.c ****     updateDisplayCell(0x00, 3, 8);
 218              		.loc 1 141 5 view .LVU49
 219 009a 0822     		movs	r2, #8
 220 009c 0321     		movs	r1, #3
 221 009e 0020     		movs	r0, #0
 222 00a0 FFF7FEFF 		bl	updateDisplayCell
 223              	.LVL20:
 142:Core/Src/7Seg.c **** 
 143:Core/Src/7Seg.c ****     for (int i = 9; i < 13; i++)
 224              		.loc 1 143 5 view .LVU50
 225              	.LBB10:
 226              		.loc 1 143 10 view .LVU51
 227              		.loc 1 143 14 is_stmt 0 view .LVU52
 228 00a4 0926     		movs	r6, #9
 229              	.LVL21:
 230              		.loc 1 143 5 view .LVU53
 231 00a6 16E0     		b	.L11
 232              	.LVL22:
 233              	.L12:
 234              	.LBB11:
 235              	.LBB12:
 144:Core/Src/7Seg.c ****     {
 145:Core/Src/7Seg.c ****         for (int j = 0; j < 4; j++)
 146:Core/Src/7Seg.c ****         {
 147:Core/Src/7Seg.c ****             int data = (*numDraws[min / 10])[j][i - 9];
 236              		.loc 1 147 13 is_stmt 1 discriminator 3 view .LVU54
 237              		.loc 1 147 39 is_stmt 0 discriminator 3 view .LVU55
ARM GAS  C:\Users\jack2\AppData\Local\Temp\ccBwqOQt.s 			page 8


 238 00a8 1E4A     		ldr	r2, .L26
 239 00aa 82FB0532 		smull	r3, r2, r2, r5
 240 00ae EB17     		asrs	r3, r5, #31
 241 00b0 C3EBA203 		rsb	r3, r3, r2, asr #2
 242              		.loc 1 147 34 discriminator 3 view .LVU56
 243 00b4 1C4A     		ldr	r2, .L26+4
 244 00b6 52F82300 		ldr	r0, [r2, r3, lsl #2]
 245              		.loc 1 147 51 discriminator 3 view .LVU57
 246 00ba A6F10903 		sub	r3, r6, #9
 247              		.loc 1 147 17 discriminator 3 view .LVU58
 248 00be 03EB8403 		add	r3, r3, r4, lsl #2
 249              	.LVL23:
 148:Core/Src/7Seg.c ****             updateDisplayCell(data, j, i);
 250              		.loc 1 148 13 is_stmt 1 discriminator 3 view .LVU59
 251 00c2 3246     		mov	r2, r6
 252 00c4 2146     		mov	r1, r4
 253 00c6 50F82300 		ldr	r0, [r0, r3, lsl #2]
 254              	.LVL24:
 255              		.loc 1 148 13 is_stmt 0 discriminator 3 view .LVU60
 256 00ca FFF7FEFF 		bl	updateDisplayCell
 257              	.LVL25:
 258              		.loc 1 148 13 discriminator 3 view .LVU61
 259              	.LBE12:
 145:Core/Src/7Seg.c ****         {
 260              		.loc 1 145 32 is_stmt 1 discriminator 3 view .LVU62
 145:Core/Src/7Seg.c ****         {
 261              		.loc 1 145 33 is_stmt 0 discriminator 3 view .LVU63
 262 00ce 0134     		adds	r4, r4, #1
 263              	.LVL26:
 264              	.L13:
 145:Core/Src/7Seg.c ****         {
 265              		.loc 1 145 25 is_stmt 1 discriminator 1 view .LVU64
 145:Core/Src/7Seg.c ****         {
 266              		.loc 1 145 9 is_stmt 0 discriminator 1 view .LVU65
 267 00d0 032C     		cmp	r4, #3
 268 00d2 E9DD     		ble	.L12
 269              	.LBE11:
 143:Core/Src/7Seg.c ****     {
 270              		.loc 1 143 29 is_stmt 1 discriminator 2 view .LVU66
 143:Core/Src/7Seg.c ****     {
 271              		.loc 1 143 30 is_stmt 0 discriminator 2 view .LVU67
 272 00d4 0136     		adds	r6, r6, #1
 273              	.LVL27:
 274              	.L11:
 143:Core/Src/7Seg.c ****     {
 275              		.loc 1 143 21 is_stmt 1 discriminator 1 view .LVU68
 143:Core/Src/7Seg.c ****     {
 276              		.loc 1 143 5 is_stmt 0 discriminator 1 view .LVU69
 277 00d6 0C2E     		cmp	r6, #12
 278 00d8 01DC     		bgt	.L24
 279              	.LBB13:
 145:Core/Src/7Seg.c ****         {
 280              		.loc 1 145 18 view .LVU70
 281 00da 0024     		movs	r4, #0
 282 00dc F8E7     		b	.L13
 283              	.L24:
 284              	.LBE13:
ARM GAS  C:\Users\jack2\AppData\Local\Temp\ccBwqOQt.s 			page 9


 285              	.LBE10:
 286              	.LBB14:
 149:Core/Src/7Seg.c ****         }
 150:Core/Src/7Seg.c ****     }
 151:Core/Src/7Seg.c ****     for (int i = 13; i < 17; i++)
 287              		.loc 1 151 14 view .LVU71
 288 00de 0D26     		movs	r6, #13
 289              	.LVL28:
 290              		.loc 1 151 14 view .LVU72
 291 00e0 1AE0     		b	.L14
 292              	.LVL29:
 293              	.L15:
 294              	.LBB15:
 295              	.LBB16:
 152:Core/Src/7Seg.c ****     {
 153:Core/Src/7Seg.c ****         for (int j = 0; j < 4; j++)
 154:Core/Src/7Seg.c ****         {
 155:Core/Src/7Seg.c ****             int data = (*numDraws[min % 10])[j][i - 13];
 296              		.loc 1 155 13 is_stmt 1 discriminator 3 view .LVU73
 297              		.loc 1 155 39 is_stmt 0 discriminator 3 view .LVU74
 298 00e2 104A     		ldr	r2, .L26
 299 00e4 82FB0532 		smull	r3, r2, r2, r5
 300 00e8 EB17     		asrs	r3, r5, #31
 301 00ea C3EBA203 		rsb	r3, r3, r2, asr #2
 302 00ee 03EB8303 		add	r3, r3, r3, lsl #2
 303 00f2 A5EB4303 		sub	r3, r5, r3, lsl #1
 304              		.loc 1 155 34 discriminator 3 view .LVU75
 305 00f6 0C4A     		ldr	r2, .L26+4
 306 00f8 52F82300 		ldr	r0, [r2, r3, lsl #2]
 307              		.loc 1 155 51 discriminator 3 view .LVU76
 308 00fc A6F10D03 		sub	r3, r6, #13
 309              		.loc 1 155 17 discriminator 3 view .LVU77
 310 0100 03EB8403 		add	r3, r3, r4, lsl #2
 311              	.LVL30:
 156:Core/Src/7Seg.c ****             updateDisplayCell(data, j, i);
 312              		.loc 1 156 13 is_stmt 1 discriminator 3 view .LVU78
 313 0104 3246     		mov	r2, r6
 314 0106 2146     		mov	r1, r4
 315 0108 50F82300 		ldr	r0, [r0, r3, lsl #2]
 316              	.LVL31:
 317              		.loc 1 156 13 is_stmt 0 discriminator 3 view .LVU79
 318 010c FFF7FEFF 		bl	updateDisplayCell
 319              	.LVL32:
 320              		.loc 1 156 13 discriminator 3 view .LVU80
 321              	.LBE16:
 153:Core/Src/7Seg.c ****         {
 322              		.loc 1 153 32 is_stmt 1 discriminator 3 view .LVU81
 153:Core/Src/7Seg.c ****         {
 323              		.loc 1 153 33 is_stmt 0 discriminator 3 view .LVU82
 324 0110 0134     		adds	r4, r4, #1
 325              	.LVL33:
 326              	.L16:
 153:Core/Src/7Seg.c ****         {
 327              		.loc 1 153 25 is_stmt 1 discriminator 1 view .LVU83
 153:Core/Src/7Seg.c ****         {
 328              		.loc 1 153 9 is_stmt 0 discriminator 1 view .LVU84
 329 0112 032C     		cmp	r4, #3
ARM GAS  C:\Users\jack2\AppData\Local\Temp\ccBwqOQt.s 			page 10


 330 0114 E5DD     		ble	.L15
 331              	.LBE15:
 151:Core/Src/7Seg.c ****     {
 332              		.loc 1 151 30 is_stmt 1 discriminator 2 view .LVU85
 151:Core/Src/7Seg.c ****     {
 333              		.loc 1 151 31 is_stmt 0 discriminator 2 view .LVU86
 334 0116 0136     		adds	r6, r6, #1
 335              	.LVL34:
 336              	.L14:
 151:Core/Src/7Seg.c ****     {
 337              		.loc 1 151 22 is_stmt 1 discriminator 1 view .LVU87
 151:Core/Src/7Seg.c ****     {
 338              		.loc 1 151 5 is_stmt 0 discriminator 1 view .LVU88
 339 0118 102E     		cmp	r6, #16
 340 011a 01DC     		bgt	.L25
 341              	.LBB17:
 153:Core/Src/7Seg.c ****         {
 342              		.loc 1 153 18 view .LVU89
 343 011c 0024     		movs	r4, #0
 344 011e F8E7     		b	.L16
 345              	.L25:
 346              	.LBE17:
 347              	.LBE14:
 157:Core/Src/7Seg.c ****         }
 158:Core/Src/7Seg.c ****     }
 159:Core/Src/7Seg.c **** }
 348              		.loc 1 159 1 view .LVU90
 349 0120 F8BD     		pop	{r3, r4, r5, r6, r7, pc}
 350              	.LVL35:
 351              	.L27:
 352              		.loc 1 159 1 view .LVU91
 353 0122 00BF     		.align	2
 354              	.L26:
 355 0124 67666666 		.word	1717986919
 356 0128 00000000 		.word	.LANCHOR1
 357              		.cfi_endproc
 358              	.LFE133:
 360              		.section	.text.setDisplayCell,"ax",%progbits
 361              		.align	1
 362              		.global	setDisplayCell
 363              		.syntax unified
 364              		.thumb
 365              		.thumb_func
 366              		.fpu fpv4-sp-d16
 368              	setDisplayCell:
 369              	.LVL36:
 370              	.LFB134:
 160:Core/Src/7Seg.c **** 
 161:Core/Src/7Seg.c **** /* This is what will change with different computing units*/
 162:Core/Src/7Seg.c **** void setDisplayCell(int row, int col)
 163:Core/Src/7Seg.c **** {
 371              		.loc 1 163 1 is_stmt 1 view -0
 372              		.cfi_startproc
 373              		@ args = 0, pretend = 0, frame = 0
 374              		@ frame_needed = 0, uses_anonymous_args = 0
 375              		.loc 1 163 1 is_stmt 0 view .LVU93
 376 0000 38B5     		push	{r3, r4, r5, lr}
ARM GAS  C:\Users\jack2\AppData\Local\Temp\ccBwqOQt.s 			page 11


 377              		.cfi_def_cfa_offset 16
 378              		.cfi_offset 3, -16
 379              		.cfi_offset 4, -12
 380              		.cfi_offset 5, -8
 381              		.cfi_offset 14, -4
 164:Core/Src/7Seg.c ****     int pOut = (displayState[row][col] << 0) | ((displayAddresses[row][col] << 9));
 382              		.loc 1 164 5 is_stmt 1 view .LVU94
 383              		.loc 1 164 40 is_stmt 0 view .LVU95
 384 0002 00EB0010 		add	r0, r0, r0, lsl #4
 385              	.LVL37:
 386              		.loc 1 164 40 view .LVU96
 387 0006 0144     		add	r1, r1, r0
 388              	.LVL38:
 389              		.loc 1 164 40 view .LVU97
 390 0008 0D4B     		ldr	r3, .L30
 391 000a 53F82140 		ldr	r4, [r3, r1, lsl #2]
 392              		.loc 1 164 71 view .LVU98
 393 000e 0D4B     		ldr	r3, .L30+4
 394 0010 53F82130 		ldr	r3, [r3, r1, lsl #2]
 395              		.loc 1 164 9 view .LVU99
 396 0014 44EA4324 		orr	r4, r4, r3, lsl #9
 397              	.LVL39:
 165:Core/Src/7Seg.c ****     //uint16_t pA = pOut & (0b0000000000000000);
 166:Core/Src/7Seg.c **** 	uint16_t pB = pOut & (0b1111111011111111);
 398              		.loc 1 166 2 is_stmt 1 view .LVU100
 399              		.loc 1 166 21 is_stmt 0 view .LVU101
 400 0018 A3B2     		uxth	r3, r4
 401              		.loc 1 166 11 view .LVU102
 402 001a 23F48073 		bic	r3, r3, #256
 403 001e 9BB2     		uxth	r3, r3
 404              	.LVL40:
 167:Core/Src/7Seg.c **** 	//GPIOA->ODR = pA;
 168:Core/Src/7Seg.c ****     GPIOB->ODR = pB;
 405              		.loc 1 168 5 is_stmt 1 view .LVU103
 406              		.loc 1 168 16 is_stmt 0 view .LVU104
 407 0020 094D     		ldr	r5, .L30+8
 408 0022 6B61     		str	r3, [r5, #20]
 169:Core/Src/7Seg.c **** 
 170:Core/Src/7Seg.c ****     HAL_Delay(1);
 409              		.loc 1 170 5 is_stmt 1 view .LVU105
 410 0024 0120     		movs	r0, #1
 411 0026 FFF7FEFF 		bl	HAL_Delay
 412              	.LVL41:
 171:Core/Src/7Seg.c **** 
 172:Core/Src/7Seg.c ****     pOut |= (0b0000111000000000);
 413              		.loc 1 172 5 view .LVU106
 414              		.loc 1 172 10 is_stmt 0 view .LVU107
 415 002a 44F46064 		orr	r4, r4, #3584
 416              	.LVL42:
 173:Core/Src/7Seg.c ****     //pA = pOut & (0b1110011111101111);
 174:Core/Src/7Seg.c **** 	pB = pOut & (0b1111111011111111);
 417              		.loc 1 174 2 is_stmt 1 view .LVU108
 418              		.loc 1 174 12 is_stmt 0 view .LVU109
 419 002e A4B2     		uxth	r4, r4
 420              	.LVL43:
 421              		.loc 1 174 5 view .LVU110
 422 0030 24F48074 		bic	r4, r4, #256
ARM GAS  C:\Users\jack2\AppData\Local\Temp\ccBwqOQt.s 			page 12


 423 0034 A4B2     		uxth	r4, r4
 424              	.LVL44:
 175:Core/Src/7Seg.c **** 	//GPIOA->ODR = pA;
 176:Core/Src/7Seg.c **** 	GPIOB->ODR = pB;
 425              		.loc 1 176 2 is_stmt 1 view .LVU111
 426              		.loc 1 176 13 is_stmt 0 view .LVU112
 427 0036 6C61     		str	r4, [r5, #20]
 177:Core/Src/7Seg.c **** 
 178:Core/Src/7Seg.c ****     HAL_Delay(1);
 428              		.loc 1 178 5 is_stmt 1 view .LVU113
 429 0038 0120     		movs	r0, #1
 430 003a FFF7FEFF 		bl	HAL_Delay
 431              	.LVL45:
 179:Core/Src/7Seg.c **** }
 432              		.loc 1 179 1 is_stmt 0 view .LVU114
 433 003e 38BD     		pop	{r3, r4, r5, pc}
 434              	.LVL46:
 435              	.L31:
 436              		.loc 1 179 1 view .LVU115
 437              		.align	2
 438              	.L30:
 439 0040 00000000 		.word	.LANCHOR0
 440 0044 00000000 		.word	.LANCHOR2
 441 0048 00040048 		.word	1207960576
 442              		.cfi_endproc
 443              	.LFE134:
 445              		.section	.text.setDisplayForce,"ax",%progbits
 446              		.align	1
 447              		.global	setDisplayForce
 448              		.syntax unified
 449              		.thumb
 450              		.thumb_func
 451              		.fpu fpv4-sp-d16
 453              	setDisplayForce:
 454              	.LFB135:
 180:Core/Src/7Seg.c **** 
 181:Core/Src/7Seg.c **** void setDisplayForce()
 182:Core/Src/7Seg.c **** {
 455              		.loc 1 182 1 is_stmt 1 view -0
 456              		.cfi_startproc
 457              		@ args = 0, pretend = 0, frame = 0
 458              		@ frame_needed = 0, uses_anonymous_args = 0
 459 0000 70B5     		push	{r4, r5, r6, lr}
 460              		.cfi_def_cfa_offset 16
 461              		.cfi_offset 4, -16
 462              		.cfi_offset 5, -12
 463              		.cfi_offset 6, -8
 464              		.cfi_offset 14, -4
 183:Core/Src/7Seg.c ****     for (int i = 0; i < 68; i++)
 465              		.loc 1 183 5 view .LVU117
 466              	.LBB18:
 467              		.loc 1 183 10 view .LVU118
 468              	.LVL47:
 469              		.loc 1 183 14 is_stmt 0 view .LVU119
 470 0002 0025     		movs	r5, #0
 471              		.loc 1 183 5 view .LVU120
 472 0004 14E0     		b	.L33
ARM GAS  C:\Users\jack2\AppData\Local\Temp\ccBwqOQt.s 			page 13


 473              	.LVL48:
 474              	.L34:
 475              	.LBB19:
 184:Core/Src/7Seg.c ****     {
 185:Core/Src/7Seg.c ****         //for (int j = 0; j < 4; j++)
 186:Core/Src/7Seg.c ****         //{
 187:Core/Src/7Seg.c ****             int r = secretOrder[1][i];
 476              		.loc 1 187 13 is_stmt 1 discriminator 3 view .LVU121
 477              		.loc 1 187 17 is_stmt 0 discriminator 3 view .LVU122
 478 0006 0C4B     		ldr	r3, .L36
 479 0008 05F14402 		add	r2, r5, #68
 480 000c 53F82240 		ldr	r4, [r3, r2, lsl #2]
 481              	.LVL49:
 188:Core/Src/7Seg.c ****             int c = secretOrder[0][i];
 482              		.loc 1 188 13 is_stmt 1 discriminator 3 view .LVU123
 483              		.loc 1 188 17 is_stmt 0 discriminator 3 view .LVU124
 484 0010 53F82560 		ldr	r6, [r3, r5, lsl #2]
 485              	.LVL50:
 189:Core/Src/7Seg.c ****             setDisplayCell(r, c);
 486              		.loc 1 189 13 is_stmt 1 discriminator 3 view .LVU125
 487 0014 3146     		mov	r1, r6
 488 0016 2046     		mov	r0, r4
 489 0018 FFF7FEFF 		bl	setDisplayCell
 490              	.LVL51:
 190:Core/Src/7Seg.c ****             lastDisplayState[r][c] = displayState[r][c];
 491              		.loc 1 190 13 discriminator 3 view .LVU126
 492              		.loc 1 190 53 is_stmt 0 discriminator 3 view .LVU127
 493 001c 04EB0414 		add	r4, r4, r4, lsl #4
 494              	.LVL52:
 495              		.loc 1 190 53 discriminator 3 view .LVU128
 496 0020 3444     		add	r4, r4, r6
 497 0022 064B     		ldr	r3, .L36+4
 498 0024 53F82420 		ldr	r2, [r3, r4, lsl #2]
 499              		.loc 1 190 36 discriminator 3 view .LVU129
 500 0028 054B     		ldr	r3, .L36+8
 501 002a 43F82420 		str	r2, [r3, r4, lsl #2]
 502              	.LBE19:
 183:Core/Src/7Seg.c ****     {
 503              		.loc 1 183 29 is_stmt 1 discriminator 3 view .LVU130
 183:Core/Src/7Seg.c ****     {
 504              		.loc 1 183 30 is_stmt 0 discriminator 3 view .LVU131
 505 002e 0135     		adds	r5, r5, #1
 506              	.LVL53:
 507              	.L33:
 183:Core/Src/7Seg.c ****     {
 508              		.loc 1 183 21 is_stmt 1 discriminator 1 view .LVU132
 183:Core/Src/7Seg.c ****     {
 509              		.loc 1 183 5 is_stmt 0 discriminator 1 view .LVU133
 510 0030 432D     		cmp	r5, #67
 511 0032 E8DD     		ble	.L34
 512              	.LBE18:
 191:Core/Src/7Seg.c **** 
 192:Core/Src/7Seg.c ****         //}
 193:Core/Src/7Seg.c ****     }
 194:Core/Src/7Seg.c ****     return;
 195:Core/Src/7Seg.c **** }
 513              		.loc 1 195 1 view .LVU134
ARM GAS  C:\Users\jack2\AppData\Local\Temp\ccBwqOQt.s 			page 14


 514 0034 70BD     		pop	{r4, r5, r6, pc}
 515              	.LVL54:
 516              	.L37:
 517              		.loc 1 195 1 view .LVU135
 518 0036 00BF     		.align	2
 519              	.L36:
 520 0038 00000000 		.word	.LANCHOR3
 521 003c 00000000 		.word	.LANCHOR0
 522 0040 00000000 		.word	.LANCHOR4
 523              		.cfi_endproc
 524              	.LFE135:
 526              		.section	.text.setDisplay,"ax",%progbits
 527              		.align	1
 528              		.global	setDisplay
 529              		.syntax unified
 530              		.thumb
 531              		.thumb_func
 532              		.fpu fpv4-sp-d16
 534              	setDisplay:
 535              	.LFB136:
 196:Core/Src/7Seg.c **** 
 197:Core/Src/7Seg.c **** void setDisplay()
 198:Core/Src/7Seg.c **** {
 536              		.loc 1 198 1 is_stmt 1 view -0
 537              		.cfi_startproc
 538              		@ args = 0, pretend = 0, frame = 0
 539              		@ frame_needed = 0, uses_anonymous_args = 0
 540 0000 70B5     		push	{r4, r5, r6, lr}
 541              		.cfi_def_cfa_offset 16
 542              		.cfi_offset 4, -16
 543              		.cfi_offset 5, -12
 544              		.cfi_offset 6, -8
 545              		.cfi_offset 14, -4
 199:Core/Src/7Seg.c ****     for (int i = 0; i < 68; i++)
 546              		.loc 1 199 5 view .LVU137
 547              	.LBB20:
 548              		.loc 1 199 10 view .LVU138
 549              	.LVL55:
 550              		.loc 1 199 14 is_stmt 0 view .LVU139
 551 0002 0025     		movs	r5, #0
 552              		.loc 1 199 5 view .LVU140
 553 0004 00E0     		b	.L39
 554              	.LVL56:
 555              	.L40:
 556              		.loc 1 199 29 is_stmt 1 discriminator 2 view .LVU141
 557              		.loc 1 199 30 is_stmt 0 discriminator 2 view .LVU142
 558 0006 0135     		adds	r5, r5, #1
 559              	.LVL57:
 560              	.L39:
 561              		.loc 1 199 21 is_stmt 1 discriminator 1 view .LVU143
 562              		.loc 1 199 5 is_stmt 0 discriminator 1 view .LVU144
 563 0008 432D     		cmp	r5, #67
 564 000a 1FDC     		bgt	.L43
 565              	.LBB21:
 200:Core/Src/7Seg.c ****     {
 201:Core/Src/7Seg.c ****         //for (int j = 0; j < 4; j++)
 202:Core/Src/7Seg.c ****         //{
ARM GAS  C:\Users\jack2\AppData\Local\Temp\ccBwqOQt.s 			page 15


 203:Core/Src/7Seg.c ****             int r = secretOrder[1][i];
 566              		.loc 1 203 13 is_stmt 1 view .LVU145
 567              		.loc 1 203 17 is_stmt 0 view .LVU146
 568 000c 124B     		ldr	r3, .L44
 569 000e 05F14402 		add	r2, r5, #68
 570 0012 53F82240 		ldr	r4, [r3, r2, lsl #2]
 571              	.LVL58:
 204:Core/Src/7Seg.c ****             int c = secretOrder[0][i];
 572              		.loc 1 204 13 is_stmt 1 view .LVU147
 573              		.loc 1 204 17 is_stmt 0 view .LVU148
 574 0016 53F82560 		ldr	r6, [r3, r5, lsl #2]
 575              	.LVL59:
 205:Core/Src/7Seg.c ****             if (displayState[r][c] != lastDisplayState[r][c])
 576              		.loc 1 205 13 is_stmt 1 view .LVU149
 577              		.loc 1 205 32 is_stmt 0 view .LVU150
 578 001a 04EB0413 		add	r3, r4, r4, lsl #4
 579 001e 3344     		add	r3, r3, r6
 580 0020 0E4A     		ldr	r2, .L44+4
 581 0022 52F82320 		ldr	r2, [r2, r3, lsl #2]
 582              		.loc 1 205 58 view .LVU151
 583 0026 0E49     		ldr	r1, .L44+8
 584 0028 51F82330 		ldr	r3, [r1, r3, lsl #2]
 585              		.loc 1 205 16 view .LVU152
 586 002c 9A42     		cmp	r2, r3
 587 002e EAD0     		beq	.L40
 206:Core/Src/7Seg.c ****             {
 207:Core/Src/7Seg.c ****                 setDisplayCell(r, c);
 588              		.loc 1 207 17 is_stmt 1 view .LVU153
 589 0030 3146     		mov	r1, r6
 590 0032 2046     		mov	r0, r4
 591 0034 FFF7FEFF 		bl	setDisplayCell
 592              	.LVL60:
 208:Core/Src/7Seg.c ****                 lastDisplayState[r][c] = displayState[r][c];
 593              		.loc 1 208 17 view .LVU154
 594              		.loc 1 208 57 is_stmt 0 view .LVU155
 595 0038 04EB0414 		add	r4, r4, r4, lsl #4
 596              	.LVL61:
 597              		.loc 1 208 57 view .LVU156
 598 003c 3444     		add	r4, r4, r6
 599 003e 074B     		ldr	r3, .L44+4
 600 0040 53F82420 		ldr	r2, [r3, r4, lsl #2]
 601              		.loc 1 208 40 view .LVU157
 602 0044 064B     		ldr	r3, .L44+8
 603 0046 43F82420 		str	r2, [r3, r4, lsl #2]
 604 004a DCE7     		b	.L40
 605              	.LVL62:
 606              	.L43:
 607              		.loc 1 208 40 view .LVU158
 608              	.LBE21:
 609              	.LBE20:
 209:Core/Src/7Seg.c ****             }
 210:Core/Src/7Seg.c ****         //}
 211:Core/Src/7Seg.c ****     }
 212:Core/Src/7Seg.c **** 
 213:Core/Src/7Seg.c ****     // WORKAROUND THAT IS STUPID AND IM SORRY BUT IM TIRED AND IT WORKS CONSISTENTLY
 214:Core/Src/7Seg.c ****     setDisplayCell(2, 15);
 610              		.loc 1 214 5 is_stmt 1 view .LVU159
ARM GAS  C:\Users\jack2\AppData\Local\Temp\ccBwqOQt.s 			page 16


 611 004c 0F21     		movs	r1, #15
 612 004e 0220     		movs	r0, #2
 613 0050 FFF7FEFF 		bl	setDisplayCell
 614              	.LVL63:
 215:Core/Src/7Seg.c ****     // END WORKAROUND
 216:Core/Src/7Seg.c ****     return;
 615              		.loc 1 216 5 view .LVU160
 217:Core/Src/7Seg.c **** }...
 616              		.loc 1 217 1 is_stmt 0 view .LVU161
 617 0054 70BD     		pop	{r4, r5, r6, pc}
 618              	.LVL64:
 619              	.L45:
 620              		.loc 1 217 1 view .LVU162
 621 0056 00BF     		.align	2
 622              	.L44:
 623 0058 00000000 		.word	.LANCHOR3
 624 005c 00000000 		.word	.LANCHOR0
 625 0060 00000000 		.word	.LANCHOR4
 626              		.cfi_endproc
 627              	.LFE136:
 629              		.global	displayState
 630              		.global	lastDisplayState
 631              		.global	secretOrder
 632              		.global	displayAddresses
 633              		.global	numDraws
 634              		.global	zeroDraw
 635              		.global	nineDraw
 636              		.global	eightDraw
 637              		.global	sevenDraw
 638              		.global	sixDraw
 639              		.global	fiveDraw
 640              		.global	fourDraw
 641              		.global	threeDraw
 642              		.global	twoDraw
 643              		.global	oneDraw
 644              		.section	.bss.displayState,"aw",%nobits
 645              		.align	2
 646              		.set	.LANCHOR0,. + 0
 649              	displayState:
 650 0000 00000000 		.space	272
 650      00000000 
 650      00000000 
 650      00000000 
 650      00000000 
 651              		.section	.data.lastDisplayState,"aw"
 652              		.align	2
 653              		.set	.LANCHOR4,. + 0
 656              	lastDisplayState:
 657 0000 FFFFFFFF 		.word	-1
 658 0004 FFFFFFFF 		.word	-1
 659 0008 FFFFFFFF 		.word	-1
 660 000c FFFFFFFF 		.word	-1
 661 0010 FFFFFFFF 		.word	-1
 662 0014 FFFFFFFF 		.word	-1
 663 0018 FFFFFFFF 		.word	-1
 664 001c FFFFFFFF 		.word	-1
 665 0020 FFFFFFFF 		.word	-1
ARM GAS  C:\Users\jack2\AppData\Local\Temp\ccBwqOQt.s 			page 17


 666 0024 FFFFFFFF 		.word	-1
 667 0028 FFFFFFFF 		.word	-1
 668 002c FFFFFFFF 		.word	-1
 669 0030 FFFFFFFF 		.word	-1
 670 0034 FFFFFFFF 		.word	-1
 671 0038 FFFFFFFF 		.word	-1
 672 003c FFFFFFFF 		.word	-1
 673 0040 FFFFFFFF 		.word	-1
 674 0044 FFFFFFFF 		.word	-1
 675 0048 FFFFFFFF 		.word	-1
 676 004c FFFFFFFF 		.word	-1
 677 0050 FFFFFFFF 		.word	-1
 678 0054 FFFFFFFF 		.word	-1
 679 0058 FFFFFFFF 		.word	-1
 680 005c FFFFFFFF 		.word	-1
 681 0060 FFFFFFFF 		.word	-1
 682 0064 FFFFFFFF 		.word	-1
 683 0068 FFFFFFFF 		.word	-1
 684 006c FFFFFFFF 		.word	-1
 685 0070 FFFFFFFF 		.word	-1
 686 0074 FFFFFFFF 		.word	-1
 687 0078 FFFFFFFF 		.word	-1
 688 007c FFFFFFFF 		.word	-1
 689 0080 FFFFFFFF 		.word	-1
 690 0084 FFFFFFFF 		.word	-1
 691 0088 FFFFFFFF 		.word	-1
 692 008c FFFFFFFF 		.word	-1
 693 0090 FFFFFFFF 		.word	-1
 694 0094 FFFFFFFF 		.word	-1
 695 0098 FFFFFFFF 		.word	-1
 696 009c FFFFFFFF 		.word	-1
 697 00a0 FFFFFFFF 		.word	-1
 698 00a4 FFFFFFFF 		.word	-1
 699 00a8 FFFFFFFF 		.word	-1
 700 00ac FFFFFFFF 		.word	-1
 701 00b0 FFFFFFFF 		.word	-1
 702 00b4 FFFFFFFF 		.word	-1
 703 00b8 FFFFFFFF 		.word	-1
 704 00bc FFFFFFFF 		.word	-1
 705 00c0 FFFFFFFF 		.word	-1
 706 00c4 FFFFFFFF 		.word	-1
 707 00c8 FFFFFFFF 		.word	-1
 708 00cc FFFFFFFF 		.word	-1
 709 00d0 FFFFFFFF 		.word	-1
 710 00d4 FFFFFFFF 		.word	-1
 711 00d8 FFFFFFFF 		.word	-1
 712 00dc FFFFFFFF 		.word	-1
 713 00e0 FFFFFFFF 		.word	-1
 714 00e4 FFFFFFFF 		.word	-1
 715 00e8 FFFFFFFF 		.word	-1
 716 00ec FFFFFFFF 		.word	-1
 717 00f0 FFFFFFFF 		.word	-1
 718 00f4 FFFFFFFF 		.word	-1
 719 00f8 FFFFFFFF 		.word	-1
 720 00fc FFFFFFFF 		.word	-1
 721 0100 FFFFFFFF 		.word	-1
 722 0104 FFFFFFFF 		.word	-1
ARM GAS  C:\Users\jack2\AppData\Local\Temp\ccBwqOQt.s 			page 18


 723 0108 FFFFFFFF 		.word	-1
 724 010c FFFFFFFF 		.word	-1
 725              		.section	.data.numDraws,"aw"
 726              		.align	2
 727              		.set	.LANCHOR1,. + 0
 730              	numDraws:
 731 0000 00000000 		.word	zeroDraw
 732 0004 00000000 		.word	oneDraw
 733 0008 00000000 		.word	twoDraw
 734 000c 00000000 		.word	threeDraw
 735 0010 00000000 		.word	fourDraw
 736 0014 00000000 		.word	fiveDraw
 737 0018 00000000 		.word	sixDraw
 738 001c 00000000 		.word	sevenDraw
 739 0020 00000000 		.word	eightDraw
 740 0024 00000000 		.word	nineDraw
 741              		.section	.rodata.displayAddresses,"a"
 742              		.align	2
 743              		.set	.LANCHOR2,. + 0
 746              	displayAddresses:
 747 0000 30000000 		.word	48
 748 0004 28000000 		.word	40
 749 0008 08000000 		.word	8
 750 000c 10000000 		.word	16
 751 0010 31000000 		.word	49
 752 0014 29000000 		.word	41
 753 0018 09000000 		.word	9
 754 001c 11000000 		.word	17
 755 0020 34000000 		.word	52
 756 0024 32000000 		.word	50
 757 0028 2A000000 		.word	42
 758 002c 0A000000 		.word	10
 759 0030 12000000 		.word	18
 760 0034 33000000 		.word	51
 761 0038 2B000000 		.word	43
 762 003c 0B000000 		.word	11
 763 0040 13000000 		.word	19
 764 0044 38000000 		.word	56
 765 0048 20000000 		.word	32
 766 004c 18000000 		.word	24
 767 0050 00000000 		.word	0
 768 0054 39000000 		.word	57
 769 0058 21000000 		.word	33
 770 005c 19000000 		.word	25
 771 0060 01000000 		.word	1
 772 0064 3C000000 		.word	60
 773 0068 3A000000 		.word	58
 774 006c 22000000 		.word	34
 775 0070 1A000000 		.word	26
 776 0074 02000000 		.word	2
 777 0078 3B000000 		.word	59
 778 007c 23000000 		.word	35
 779 0080 1B000000 		.word	27
 780 0084 03000000 		.word	3
 781 0088 58000000 		.word	88
 782 008c 50000000 		.word	80
 783 0090 68000000 		.word	104
ARM GAS  C:\Users\jack2\AppData\Local\Temp\ccBwqOQt.s 			page 19


 784 0094 60000000 		.word	96
 785 0098 59000000 		.word	89
 786 009c 51000000 		.word	81
 787 00a0 69000000 		.word	105
 788 00a4 61000000 		.word	97
 789 00a8 5C000000 		.word	92
 790 00ac 5A000000 		.word	90
 791 00b0 52000000 		.word	82
 792 00b4 6A000000 		.word	106
 793 00b8 62000000 		.word	98
 794 00bc 5B000000 		.word	91
 795 00c0 53000000 		.word	83
 796 00c4 6B000000 		.word	107
 797 00c8 63000000 		.word	99
 798 00cc 40000000 		.word	64
 799 00d0 48000000 		.word	72
 800 00d4 70000000 		.word	112
 801 00d8 78000000 		.word	120
 802 00dc 41000000 		.word	65
 803 00e0 49000000 		.word	73
 804 00e4 71000000 		.word	113
 805 00e8 79000000 		.word	121
 806 00ec 44000000 		.word	68
 807 00f0 42000000 		.word	66
 808 00f4 4A000000 		.word	74
 809 00f8 72000000 		.word	114
 810 00fc 7A000000 		.word	122
 811 0100 43000000 		.word	67
 812 0104 4B000000 		.word	75
 813 0108 73000000 		.word	115
 814 010c 7B000000 		.word	123
 815              		.section	.rodata.eightDraw,"a"
 816              		.align	2
 819              	eightDraw:
 820 0000 00000000 		.word	0
 821 0004 EA000000 		.word	234
 822 0008 0F000000 		.word	15
 823 000c E3000000 		.word	227
 824 0010 00000000 		.word	0
 825 0014 2F000000 		.word	47
 826 0018 E2000000 		.word	226
 827 001c 8F000000 		.word	143
 828 0020 00000000 		.word	0
 829 0024 EA000000 		.word	234
 830 0028 0F000000 		.word	15
 831 002c E3000000 		.word	227
 832 0030 00000000 		.word	0
 833 0034 2F000000 		.word	47
 834 0038 E2000000 		.word	226
 835 003c 8F000000 		.word	143
 836              		.section	.rodata.fiveDraw,"a"
 837              		.align	2
 840              	fiveDraw:
 841 0000 00000000 		.word	0
 842 0004 EF000000 		.word	239
 843 0008 0F000000 		.word	15
 844 000c 0F000000 		.word	15
ARM GAS  C:\Users\jack2\AppData\Local\Temp\ccBwqOQt.s 			page 20


 845 0010 00000000 		.word	0
 846 0014 EF000000 		.word	239
 847 0018 E2000000 		.word	226
 848 001c C0000000 		.word	192
 849 0020 00000000 		.word	0
 850 0024 E2000000 		.word	226
 851 0028 00000000 		.word	0
 852 002c EF000000 		.word	239
 853 0030 00000000 		.word	0
 854 0034 2F000000 		.word	47
 855 0038 E2000000 		.word	226
 856 003c 8F000000 		.word	143
 857              		.section	.rodata.fourDraw,"a"
 858              		.align	2
 861              	fourDraw:
 862 0000 00000000 		.word	0
 863 0004 EF000000 		.word	239
 864 0008 00000000 		.word	0
 865 000c EF000000 		.word	239
 866 0010 00000000 		.word	0
 867 0014 EF000000 		.word	239
 868 0018 00000000 		.word	0
 869 001c EF000000 		.word	239
 870 0020 00000000 		.word	0
 871 0024 0F000000 		.word	15
 872 0028 0F000000 		.word	15
 873 002c EF000000 		.word	239
 874 0030 00000000 		.word	0
 875 0034 00000000 		.word	0
 876 0038 00000000 		.word	0
 877 003c EF000000 		.word	239
 878              		.section	.rodata.nineDraw,"a"
 879              		.align	2
 882              	nineDraw:
 883 0000 00000000 		.word	0
 884 0004 EA000000 		.word	234
 885 0008 0F000000 		.word	15
 886 000c E3000000 		.word	227
 887 0010 00000000 		.word	0
 888 0014 EF000000 		.word	239
 889 0018 00000000 		.word	0
 890 001c EF000000 		.word	239
 891 0020 00000000 		.word	0
 892 0024 0C000000 		.word	12
 893 0028 0F000000 		.word	15
 894 002c EF000000 		.word	239
 895 0030 00000000 		.word	0
 896 0034 E2000000 		.word	226
 897 0038 EA000000 		.word	234
 898 003c 8F000000 		.word	143
 899              		.section	.rodata.oneDraw,"a"
 900              		.align	2
 903              	oneDraw:
 904 0000 00000000 		.word	0
 905 0004 EA000000 		.word	234
 906 0008 EF000000 		.word	239
 907 000c 00000000 		.word	0
ARM GAS  C:\Users\jack2\AppData\Local\Temp\ccBwqOQt.s 			page 21


 908 0010 00000000 		.word	0
 909 0014 00000000 		.word	0
 910 0018 EF000000 		.word	239
 911 001c 00000000 		.word	0
 912 0020 00000000 		.word	0
 913 0024 00000000 		.word	0
 914 0028 EF000000 		.word	239
 915 002c 00000000 		.word	0
 916 0030 00000000 		.word	0
 917 0034 E2000000 		.word	226
 918 0038 EF000000 		.word	239
 919 003c E2000000 		.word	226
 920              		.section	.rodata.secretOrder,"a"
 921              		.align	2
 922              		.set	.LANCHOR3,. + 0
 925              	secretOrder:
 926 0000 03000000 		.word	3
 927 0004 07000000 		.word	7
 928 0008 0C000000 		.word	12
 929 000c 10000000 		.word	16
 930 0010 02000000 		.word	2
 931 0014 06000000 		.word	6
 932 0018 0B000000 		.word	11
 933 001c 0F000000 		.word	15
 934 0020 03000000 		.word	3
 935 0024 07000000 		.word	7
 936 0028 0C000000 		.word	12
 937 002c 10000000 		.word	16
 938 0030 02000000 		.word	2
 939 0034 06000000 		.word	6
 940 0038 0B000000 		.word	11
 941 003c 0F000000 		.word	15
 942 0040 01000000 		.word	1
 943 0044 05000000 		.word	5
 944 0048 0A000000 		.word	10
 945 004c 0E000000 		.word	14
 946 0050 01000000 		.word	1
 947 0054 05000000 		.word	5
 948 0058 0A000000 		.word	10
 949 005c 0E000000 		.word	14
 950 0060 00000000 		.word	0
 951 0064 04000000 		.word	4
 952 0068 09000000 		.word	9
 953 006c 0D000000 		.word	13
 954 0070 08000000 		.word	8
 955 0074 00000000 		.word	0
 956 0078 04000000 		.word	4
 957 007c 09000000 		.word	9
 958 0080 0D000000 		.word	13
 959 0084 08000000 		.word	8
 960 0088 00000000 		.word	0
 961 008c 04000000 		.word	4
 962 0090 09000000 		.word	9
 963 0094 0D000000 		.word	13
 964 0098 08000000 		.word	8
 965 009c 01000000 		.word	1
 966 00a0 05000000 		.word	5
ARM GAS  C:\Users\jack2\AppData\Local\Temp\ccBwqOQt.s 			page 22


 967 00a4 0A000000 		.word	10
 968 00a8 0E000000 		.word	14
 969 00ac 01000000 		.word	1
 970 00b0 05000000 		.word	5
 971 00b4 0A000000 		.word	10
 972 00b8 0E000000 		.word	14
 973 00bc 00000000 		.word	0
 974 00c0 04000000 		.word	4
 975 00c4 09000000 		.word	9
 976 00c8 0D000000 		.word	13
 977 00cc 08000000 		.word	8
 978 00d0 03000000 		.word	3
 979 00d4 07000000 		.word	7
 980 00d8 0C000000 		.word	12
 981 00dc 10000000 		.word	16
 982 00e0 02000000 		.word	2
 983 00e4 06000000 		.word	6
 984 00e8 0B000000 		.word	11
 985 00ec 0F000000 		.word	15
 986 00f0 02000000 		.word	2
 987 00f4 06000000 		.word	6
 988 00f8 0B000000 		.word	11
 989 00fc 0F000000 		.word	15
 990 0100 03000000 		.word	3
 991 0104 07000000 		.word	7
 992 0108 0C000000 		.word	12
 993 010c 10000000 		.word	16
 994 0110 01000000 		.word	1
 995 0114 01000000 		.word	1
 996 0118 01000000 		.word	1
 997 011c 01000000 		.word	1
 998 0120 00000000 		.word	0
 999 0124 00000000 		.word	0
 1000 0128 00000000 		.word	0
 1001 012c 00000000 		.word	0
 1002 0130 00000000 		.word	0
 1003 0134 00000000 		.word	0
 1004 0138 00000000 		.word	0
 1005 013c 00000000 		.word	0
 1006 0140 01000000 		.word	1
 1007 0144 01000000 		.word	1
 1008 0148 01000000 		.word	1
 1009 014c 01000000 		.word	1
 1010 0150 01000000 		.word	1
 1011 0154 01000000 		.word	1
 1012 0158 01000000 		.word	1
 1013 015c 01000000 		.word	1
 1014 0160 00000000 		.word	0
 1015 0164 00000000 		.word	0
 1016 0168 00000000 		.word	0
 1017 016c 00000000 		.word	0
 1018 0170 00000000 		.word	0
 1019 0174 00000000 		.word	0
 1020 0178 00000000 		.word	0
 1021 017c 00000000 		.word	0
 1022 0180 00000000 		.word	0
 1023 0184 01000000 		.word	1
ARM GAS  C:\Users\jack2\AppData\Local\Temp\ccBwqOQt.s 			page 23


 1024 0188 01000000 		.word	1
 1025 018c 01000000 		.word	1
 1026 0190 01000000 		.word	1
 1027 0194 01000000 		.word	1
 1028 0198 03000000 		.word	3
 1029 019c 03000000 		.word	3
 1030 01a0 03000000 		.word	3
 1031 01a4 03000000 		.word	3
 1032 01a8 03000000 		.word	3
 1033 01ac 03000000 		.word	3
 1034 01b0 03000000 		.word	3
 1035 01b4 03000000 		.word	3
 1036 01b8 03000000 		.word	3
 1037 01bc 02000000 		.word	2
 1038 01c0 02000000 		.word	2
 1039 01c4 02000000 		.word	2
 1040 01c8 02000000 		.word	2
 1041 01cc 02000000 		.word	2
 1042 01d0 02000000 		.word	2
 1043 01d4 02000000 		.word	2
 1044 01d8 02000000 		.word	2
 1045 01dc 02000000 		.word	2
 1046 01e0 02000000 		.word	2
 1047 01e4 02000000 		.word	2
 1048 01e8 02000000 		.word	2
 1049 01ec 02000000 		.word	2
 1050 01f0 02000000 		.word	2
 1051 01f4 02000000 		.word	2
 1052 01f8 02000000 		.word	2
 1053 01fc 02000000 		.word	2
 1054 0200 03000000 		.word	3
 1055 0204 03000000 		.word	3
 1056 0208 03000000 		.word	3
 1057 020c 03000000 		.word	3
 1058 0210 03000000 		.word	3
 1059 0214 03000000 		.word	3
 1060 0218 03000000 		.word	3
 1061 021c 03000000 		.word	3
 1062              		.section	.rodata.sevenDraw,"a"
 1063              		.align	2
 1066              	sevenDraw:
 1067 0000 00000000 		.word	0
 1068 0004 0F000000 		.word	15
 1069 0008 0F000000 		.word	15
 1070 000c EF000000 		.word	239
 1071 0010 00000000 		.word	0
 1072 0014 00000000 		.word	0
 1073 0018 EA000000 		.word	234
 1074 001c 00000000 		.word	0
 1075 0020 00000000 		.word	0
 1076 0024 EF000000 		.word	239
 1077 0028 00000000 		.word	0
 1078 002c 00000000 		.word	0
 1079 0030 00000000 		.word	0
 1080 0034 EF000000 		.word	239
 1081 0038 00000000 		.word	0
 1082 003c 00000000 		.word	0
ARM GAS  C:\Users\jack2\AppData\Local\Temp\ccBwqOQt.s 			page 24


 1083              		.section	.rodata.sixDraw,"a"
 1084              		.align	2
 1087              	sixDraw:
 1088 0000 00000000 		.word	0
 1089 0004 EA000000 		.word	234
 1090 0008 2F000000 		.word	47
 1091 000c E3000000 		.word	227
 1092 0010 00000000 		.word	0
 1093 0014 EF000000 		.word	239
 1094 0018 E2000000 		.word	226
 1095 001c C0000000 		.word	192
 1096 0020 00000000 		.word	0
 1097 0024 EF000000 		.word	239
 1098 0028 00000000 		.word	0
 1099 002c EF000000 		.word	239
 1100 0030 00000000 		.word	0
 1101 0034 2F000000 		.word	47
 1102 0038 E2000000 		.word	226
 1103 003c 8F000000 		.word	143
 1104              		.section	.rodata.threeDraw,"a"
 1105              		.align	2
 1108              	threeDraw:
 1109 0000 00000000 		.word	0
 1110 0004 0F000000 		.word	15
 1111 0008 0F000000 		.word	15
 1112 000c E3000000 		.word	227
 1113 0010 00000000 		.word	0
 1114 0014 60000000 		.word	96
 1115 0018 E2000000 		.word	226
 1116 001c 8F000000 		.word	143
 1117 0020 00000000 		.word	0
 1118 0024 0C000000 		.word	12
 1119 0028 0F000000 		.word	15
 1120 002c E3000000 		.word	227
 1121 0030 00000000 		.word	0
 1122 0034 E2000000 		.word	226
 1123 0038 E2000000 		.word	226
 1124 003c 8F000000 		.word	143
 1125              		.section	.rodata.twoDraw,"a"
 1126              		.align	2
 1129              	twoDraw:
 1130 0000 00000000 		.word	0
 1131 0004 EA000000 		.word	234
 1132 0008 0F000000 		.word	15
 1133 000c E3000000 		.word	227
 1134 0010 00000000 		.word	0
 1135 0014 00000000 		.word	0
 1136 0018 00000000 		.word	0
 1137 001c EF000000 		.word	239
 1138 0020 00000000 		.word	0
 1139 0024 EA000000 		.word	234
 1140 0028 8F000000 		.word	143
 1141 002c 05000000 		.word	5
 1142 0030 00000000 		.word	0
 1143 0034 EF000000 		.word	239
 1144 0038 E2000000 		.word	226
 1145 003c E2000000 		.word	226
ARM GAS  C:\Users\jack2\AppData\Local\Temp\ccBwqOQt.s 			page 25


 1146              		.section	.rodata.zeroDraw,"a"
 1147              		.align	2
 1150              	zeroDraw:
 1151 0000 EA000000 		.word	234
 1152 0004 0F000000 		.word	15
 1153 0008 0F000000 		.word	15
 1154 000c E3000000 		.word	227
 1155 0010 EF000000 		.word	239
 1156 0014 00000000 		.word	0
 1157 0018 00000000 		.word	0
 1158 001c EF000000 		.word	239
 1159 0020 EF000000 		.word	239
 1160 0024 00000000 		.word	0
 1161 0028 00000000 		.word	0
 1162 002c EF000000 		.word	239
 1163 0030 2F000000 		.word	47
 1164 0034 E3000000 		.word	227
 1165 0038 EA000000 		.word	234
 1166 003c 8F000000 		.word	143
 1167              		.text
 1168              	.Letext0:
 1169              		.file 2 "c:\\users\\jack2\\appdata\\roaming\\code\\user\\globalstorage\\bmd.stm32-for-vscode\\@xpa
 1170              		.file 3 "c:\\users\\jack2\\appdata\\roaming\\code\\user\\globalstorage\\bmd.stm32-for-vscode\\@xpa
 1171              		.file 4 "Drivers/CMSIS/Device/ST/STM32G4xx/Include/stm32g441xx.h"
 1172              		.file 5 "Drivers/STM32G4xx_HAL_Driver/Inc/stm32g4xx_hal.h"
ARM GAS  C:\Users\jack2\AppData\Local\Temp\ccBwqOQt.s 			page 26

