ARM GAS  C:\Users\Jack2bs\AppData\Local\Temp\ccp1prZa.s 			page 1


   1              		.cpu cortex-m4
   2              		.eabi_attribute 27, 1
   3              		.eabi_attribute 28, 1
   4              		.eabi_attribute 20, 1
   5              		.eabi_attribute 21, 1
   6              		.eabi_attribute 23, 3
   7              		.eabi_attribute 24, 1
   8              		.eabi_attribute 25, 1
   9              		.eabi_attribute 26, 1
  10              		.eabi_attribute 30, 1
  11              		.eabi_attribute 34, 1
  12              		.eabi_attribute 18, 4
  13              		.file	"7Seg.c"
  14              		.text
  15              	.Ltext0:
  16              		.cfi_sections	.debug_frame
  17              		.section	.text.updateDisplayCell,"ax",%progbits
  18              		.align	1
  19              		.global	updateDisplayCell
  20              		.arch armv7e-m
  21              		.syntax unified
  22              		.thumb
  23              		.thumb_func
  24              		.fpu fpv4-sp-d16
  26              	updateDisplayCell:
  27              	.LVL0:
  28              	.LFB132:
  29              		.file 1 "Core/Src/7Seg.c"
   1:Core/Src/7Seg.c **** #include "7Seg.h"
   2:Core/Src/7Seg.c **** #include "stm32g4xx_hal.h"
   3:Core/Src/7Seg.c **** #include <stm32g441xx.h>
   4:Core/Src/7Seg.c **** 
   5:Core/Src/7Seg.c **** const int oneDraw[4][4] =
   6:Core/Src/7Seg.c **** {
   7:Core/Src/7Seg.c **** 	{NONE, D_SHAPE , ALL_SEVEN, NONE	},
   8:Core/Src/7Seg.c **** 	{NONE, NONE	   , ALL_SEVEN, NONE	},
   9:Core/Src/7Seg.c **** 	{NONE, NONE	   , ALL_SEVEN, NONE	},
  10:Core/Src/7Seg.c **** 	{NONE, BOTTOM_O, ALL_SEVEN, BOTTOM_O}
  11:Core/Src/7Seg.c **** };
  12:Core/Src/7Seg.c **** 
  13:Core/Src/7Seg.c **** const int twoDraw[4][4] =
  14:Core/Src/7Seg.c **** {
  15:Core/Src/7Seg.c **** 	{BOTTOM_O, TOP_O   , TOP_O	 , BOTTOM_O},
  16:Core/Src/7Seg.c **** 	{NONE	 , NONE	   , D_SHAPE , P_SHAPE },
  17:Core/Src/7Seg.c **** 	{NONE	 , D_SHAPE , P_SHAPE , NONE	   },
  18:Core/Src/7Seg.c **** 	{Q_SHAPE , BOTTOM_O, BOTTOM_O, P_SHAPE }
  19:Core/Src/7Seg.c **** };
  20:Core/Src/7Seg.c **** 
  21:Core/Src/7Seg.c **** const int threeDraw[4][4] =
  22:Core/Src/7Seg.c **** {
  23:Core/Src/7Seg.c **** 	{D_SHAPE, TOP_O		, TOP_O	  , B_SHAPE},
  24:Core/Src/7Seg.c **** 	{NONE	, B_R_CORNER, BOTTOM_O, P_SHAPE},
  25:Core/Src/7Seg.c **** 	{NONE	, T_R_CORNER, TOP_O	  , B_SHAPE},
  26:Core/Src/7Seg.c **** 	{Q_SHAPE, BOTTOM_O	, BOTTOM_O, P_SHAPE}
  27:Core/Src/7Seg.c **** };
  28:Core/Src/7Seg.c **** 
  29:Core/Src/7Seg.c **** const int fourDraw[4][4] =
ARM GAS  C:\Users\Jack2bs\AppData\Local\Temp\ccp1prZa.s 			page 2


  30:Core/Src/7Seg.c **** {
  31:Core/Src/7Seg.c **** 	{NONE	, NONE	  , D_SHAPE	, ALL_SEVEN},
  32:Core/Src/7Seg.c **** 	{NONE	, D_SHAPE , NONE	, ALL_SEVEN},
  33:Core/Src/7Seg.c **** 	{D_SHAPE, BOTTOM_O, BOTTOM_O, ALL_SEVEN},
  34:Core/Src/7Seg.c **** 	{NONE	, NONE	  , NONE	, ALL_SEVEN}
  35:Core/Src/7Seg.c **** };
  36:Core/Src/7Seg.c **** 
  37:Core/Src/7Seg.c **** const int fiveDraw[4][4] =
  38:Core/Src/7Seg.c **** {
  39:Core/Src/7Seg.c **** 	{ALL_SEVEN,	TOP_O	, TOP_O	  , TOP_O	  },
  40:Core/Src/7Seg.c **** 	{ALL_SEVEN,	BOTTOM_O, BOTTOM_O, B_L_CORNER},
  41:Core/Src/7Seg.c **** 	{BOTTOM_O ,	NONE	, NONE	  , TOP_O	  },
  42:Core/Src/7Seg.c **** 	{Q_SHAPE  ,	BOTTOM_O, BOTTOM_O, P_SHAPE   }
  43:Core/Src/7Seg.c **** };
  44:Core/Src/7Seg.c **** 
  45:Core/Src/7Seg.c **** const int sixDraw[4][4] =
  46:Core/Src/7Seg.c **** {
  47:Core/Src/7Seg.c **** 	{D_SHAPE  ,	P_SHAPE	, Q_SHAPE , B_SHAPE	  },
  48:Core/Src/7Seg.c **** 	{ALL_SEVEN,	BOTTOM_O, BOTTOM_O, B_L_CORNER},
  49:Core/Src/7Seg.c **** 	{ALL_SEVEN,	NONE	, NONE	  , ALL_SEVEN },
  50:Core/Src/7Seg.c **** 	{Q_SHAPE  ,	BOTTOM_O, BOTTOM_O, P_SHAPE	  }
  51:Core/Src/7Seg.c **** };
  52:Core/Src/7Seg.c **** 
  53:Core/Src/7Seg.c **** const int sevenDraw[4][4] =
  54:Core/Src/7Seg.c **** {
  55:Core/Src/7Seg.c **** 	{TOP_O, TOP_O	 , TOP_O  , ALL_SEVEN},
  56:Core/Src/7Seg.c **** 	{NONE ,	NONE	 , D_SHAPE, NONE	 },
  57:Core/Src/7Seg.c **** 	{NONE ,	ALL_SEVEN, NONE   , NONE	 },
  58:Core/Src/7Seg.c **** 	{NONE ,	ALL_SEVEN, NONE   , NONE	 }
  59:Core/Src/7Seg.c **** };
  60:Core/Src/7Seg.c **** 
  61:Core/Src/7Seg.c **** const int eightDraw[4][4] =
  62:Core/Src/7Seg.c **** {
  63:Core/Src/7Seg.c **** 	{D_SHAPE , TOP_O   , TOP_O   , B_SHAPE },
  64:Core/Src/7Seg.c **** 	{TOP_O 	 , BOTTOM_O, BOTTOM_O, TOP_O   },
  65:Core/Src/7Seg.c **** 	{BOTTOM_O, TOP_O   , TOP_O   , BOTTOM_O},
  66:Core/Src/7Seg.c **** 	{Q_SHAPE , BOTTOM_O, BOTTOM_O, P_SHAPE }
  67:Core/Src/7Seg.c **** };
  68:Core/Src/7Seg.c **** 
  69:Core/Src/7Seg.c **** const int nineDraw[4][4] =
  70:Core/Src/7Seg.c **** {
  71:Core/Src/7Seg.c **** 	{D_SHAPE   , TOP_O  , TOP_O  , B_SHAPE  },
  72:Core/Src/7Seg.c **** 	{ALL_SEVEN , NONE	, NONE   , ALL_SEVEN},
  73:Core/Src/7Seg.c **** 	{T_R_CORNER, TOP_O  , TOP_O  , ALL_SEVEN},
  74:Core/Src/7Seg.c **** 	{Q_SHAPE   , B_SHAPE, D_SHAPE, P_SHAPE  }
  75:Core/Src/7Seg.c **** };
  76:Core/Src/7Seg.c **** 
  77:Core/Src/7Seg.c **** const int zeroDraw[4][4] =
  78:Core/Src/7Seg.c **** {
  79:Core/Src/7Seg.c **** 	{D_SHAPE   , TOP_O  , TOP_O  , B_SHAPE  },
  80:Core/Src/7Seg.c **** 	{ALL_SEVEN , NONE	, NONE   , ALL_SEVEN},
  81:Core/Src/7Seg.c **** 	{ALL_SEVEN , NONE   , NONE   , ALL_SEVEN},
  82:Core/Src/7Seg.c **** 	{Q_SHAPE   , B_SHAPE, D_SHAPE, P_SHAPE  }
  83:Core/Src/7Seg.c **** };
  84:Core/Src/7Seg.c **** 
  85:Core/Src/7Seg.c **** const int (* numDraws[10])[4][4] = {&zeroDraw, &oneDraw, &twoDraw, &threeDraw, &fourDraw, &fiveDraw
  86:Core/Src/7Seg.c **** 
ARM GAS  C:\Users\Jack2bs\AppData\Local\Temp\ccp1prZa.s 			page 3


  87:Core/Src/7Seg.c **** const int displayAddresses[4][17] = {
  88:Core/Src/7Seg.c ****     {0x30, 0x28, 0x08, 0x10, 0x31, 0x29, 0x09, 0x11, 0x34, 0x32, 0x2a, 0x0a, 0x12, 0x33, 0x2b, 0x0b
  89:Core/Src/7Seg.c ****     {0x38, 0x20, 0x18, 0x00, 0x39, 0x21, 0x19, 0x01, 0x3b, 0x3a, 0x22, 0x1a, 0x02, 0x3b, 0x23, 0x1b
  90:Core/Src/7Seg.c ****     {0x58, 0x50, 0x68, 0x60, 0x59, 0x51, 0x69, 0x61, 0x5b, 0x5a, 0x52, 0x6a, 0x62, 0x5b, 0x53, 0x6b
  91:Core/Src/7Seg.c ****     {0x40, 0x48, 0x70, 0x78, 0x41, 0x49, 0x71, 0x79, 0x44, 0x42, 0x4a, 0x72, 0x7a, 0x43, 0x4b, 0x73
  92:Core/Src/7Seg.c **** };
  93:Core/Src/7Seg.c **** 
  94:Core/Src/7Seg.c **** int lastDisplayState[4][17] = {};
  95:Core/Src/7Seg.c **** 
  96:Core/Src/7Seg.c **** int displayState[4][17] = {};
  97:Core/Src/7Seg.c **** 
  98:Core/Src/7Seg.c **** void updateDisplayCell(int data, int row, int col)
  99:Core/Src/7Seg.c **** {
  30              		.loc 1 99 1 view -0
  31              		.cfi_startproc
  32              		@ args = 0, pretend = 0, frame = 0
  33              		@ frame_needed = 0, uses_anonymous_args = 0
  34              		@ link register save eliminated.
 100:Core/Src/7Seg.c ****     displayState[row][col] = data;
  35              		.loc 1 100 5 view .LVU1
  36              		.loc 1 100 28 is_stmt 0 view .LVU2
  37 0000 01EB0111 		add	r1, r1, r1, lsl #4
  38              	.LVL1:
  39              		.loc 1 100 28 view .LVU3
  40 0004 1144     		add	r1, r1, r2
  41 0006 024B     		ldr	r3, .L2
  42 0008 43F82100 		str	r0, [r3, r1, lsl #2]
 101:Core/Src/7Seg.c **** }
  43              		.loc 1 101 1 view .LVU4
  44 000c 7047     		bx	lr
  45              	.L3:
  46 000e 00BF     		.align	2
  47              	.L2:
  48 0010 00000000 		.word	.LANCHOR0
  49              		.cfi_endproc
  50              	.LFE132:
  52              		.section	.text.updateDisplayWithTime,"ax",%progbits
  53              		.align	1
  54              		.global	updateDisplayWithTime
  55              		.syntax unified
  56              		.thumb
  57              		.thumb_func
  58              		.fpu fpv4-sp-d16
  60              	updateDisplayWithTime:
  61              	.LVL2:
  62              	.LFB133:
 102:Core/Src/7Seg.c **** 
 103:Core/Src/7Seg.c **** void updateDisplayWithTime(int hr, int min)
 104:Core/Src/7Seg.c **** {
  63              		.loc 1 104 1 is_stmt 1 view -0
  64              		.cfi_startproc
  65              		@ args = 0, pretend = 0, frame = 0
  66              		@ frame_needed = 0, uses_anonymous_args = 0
  67              		.loc 1 104 1 is_stmt 0 view .LVU6
  68 0000 F8B5     		push	{r3, r4, r5, r6, r7, lr}
  69              	.LCFI0:
  70              		.cfi_def_cfa_offset 24
ARM GAS  C:\Users\Jack2bs\AppData\Local\Temp\ccp1prZa.s 			page 4


  71              		.cfi_offset 3, -24
  72              		.cfi_offset 4, -20
  73              		.cfi_offset 5, -16
  74              		.cfi_offset 6, -12
  75              		.cfi_offset 7, -8
  76              		.cfi_offset 14, -4
  77 0002 0646     		mov	r6, r0
  78 0004 0D46     		mov	r5, r1
 105:Core/Src/7Seg.c ****     for (int i = 0; i < 4; i++)
  79              		.loc 1 105 5 is_stmt 1 view .LVU7
  80              	.LBB2:
  81              		.loc 1 105 10 view .LVU8
  82              	.LVL3:
  83              		.loc 1 105 14 is_stmt 0 view .LVU9
  84 0006 0027     		movs	r7, #0
  85              		.loc 1 105 5 view .LVU10
  86 0008 14E0     		b	.L5
  87              	.LVL4:
  88              	.L6:
  89              	.LBB3:
  90              	.LBB4:
 106:Core/Src/7Seg.c ****     {
 107:Core/Src/7Seg.c ****         for (int j = 0; j < 4; j++)
 108:Core/Src/7Seg.c ****         {
 109:Core/Src/7Seg.c ****             int data = (*numDraws[hr / 10])[j][i];
  91              		.loc 1 109 13 is_stmt 1 discriminator 3 view .LVU11
  92              		.loc 1 109 38 is_stmt 0 discriminator 3 view .LVU12
  93 000a 3C4A     		ldr	r2, .L26
  94 000c 82FB0632 		smull	r3, r2, r2, r6
  95 0010 F317     		asrs	r3, r6, #31
  96 0012 C3EBA203 		rsb	r3, r3, r2, asr #2
  97              		.loc 1 109 34 discriminator 3 view .LVU13
  98 0016 3A4A     		ldr	r2, .L26+4
  99 0018 52F82330 		ldr	r3, [r2, r3, lsl #2]
 100              		.loc 1 109 17 discriminator 3 view .LVU14
 101 001c 07EB8400 		add	r0, r7, r4, lsl #2
 102              	.LVL5:
 110:Core/Src/7Seg.c ****             updateDisplayCell(data, j, i);
 103              		.loc 1 110 13 is_stmt 1 discriminator 3 view .LVU15
 104 0020 3A46     		mov	r2, r7
 105 0022 2146     		mov	r1, r4
 106 0024 53F82000 		ldr	r0, [r3, r0, lsl #2]
 107              	.LVL6:
 108              		.loc 1 110 13 is_stmt 0 discriminator 3 view .LVU16
 109 0028 FFF7FEFF 		bl	updateDisplayCell
 110              	.LVL7:
 111              		.loc 1 110 13 discriminator 3 view .LVU17
 112              	.LBE4:
 107:Core/Src/7Seg.c ****         {
 113              		.loc 1 107 32 is_stmt 1 discriminator 3 view .LVU18
 107:Core/Src/7Seg.c ****         {
 114              		.loc 1 107 33 is_stmt 0 discriminator 3 view .LVU19
 115 002c 0134     		adds	r4, r4, #1
 116              	.LVL8:
 117              	.L7:
 107:Core/Src/7Seg.c ****         {
 118              		.loc 1 107 25 is_stmt 1 discriminator 1 view .LVU20
ARM GAS  C:\Users\Jack2bs\AppData\Local\Temp\ccp1prZa.s 			page 5


 107:Core/Src/7Seg.c ****         {
 119              		.loc 1 107 9 is_stmt 0 discriminator 1 view .LVU21
 120 002e 032C     		cmp	r4, #3
 121 0030 EBDD     		ble	.L6
 122              	.LBE3:
 105:Core/Src/7Seg.c ****     {
 123              		.loc 1 105 28 is_stmt 1 discriminator 2 view .LVU22
 105:Core/Src/7Seg.c ****     {
 124              		.loc 1 105 29 is_stmt 0 discriminator 2 view .LVU23
 125 0032 0137     		adds	r7, r7, #1
 126              	.LVL9:
 127              	.L5:
 105:Core/Src/7Seg.c ****     {
 128              		.loc 1 105 21 is_stmt 1 discriminator 1 view .LVU24
 105:Core/Src/7Seg.c ****     {
 129              		.loc 1 105 5 is_stmt 0 discriminator 1 view .LVU25
 130 0034 032F     		cmp	r7, #3
 131 0036 01DC     		bgt	.L22
 132              	.LBB5:
 107:Core/Src/7Seg.c ****         {
 133              		.loc 1 107 18 view .LVU26
 134 0038 0024     		movs	r4, #0
 135 003a F8E7     		b	.L7
 136              	.L22:
 137              	.LBE5:
 138              	.LBE2:
 139              	.LBB6:
 111:Core/Src/7Seg.c ****         }
 112:Core/Src/7Seg.c ****     }
 113:Core/Src/7Seg.c ****     for (int i = 4; i < 8; i++)
 140              		.loc 1 113 14 view .LVU27
 141 003c 0427     		movs	r7, #4
 142              	.LVL10:
 143              		.loc 1 113 14 view .LVU28
 144 003e 19E0     		b	.L8
 145              	.LVL11:
 146              	.L9:
 147              	.LBB7:
 148              	.LBB8:
 114:Core/Src/7Seg.c ****     {
 115:Core/Src/7Seg.c ****         for (int j = 0; j < 4; j++)
 116:Core/Src/7Seg.c ****         {
 117:Core/Src/7Seg.c ****             int data = (*numDraws[hr % 10])[j][i - 4];
 149              		.loc 1 117 13 is_stmt 1 discriminator 3 view .LVU29
 150              		.loc 1 117 38 is_stmt 0 discriminator 3 view .LVU30
 151 0040 2E4A     		ldr	r2, .L26
 152 0042 82FB0632 		smull	r3, r2, r2, r6
 153 0046 F317     		asrs	r3, r6, #31
 154 0048 C3EBA203 		rsb	r3, r3, r2, asr #2
 155 004c 03EB8303 		add	r3, r3, r3, lsl #2
 156 0050 A6EB4303 		sub	r3, r6, r3, lsl #1
 157              		.loc 1 117 34 discriminator 3 view .LVU31
 158 0054 2A4A     		ldr	r2, .L26+4
 159 0056 52F82300 		ldr	r0, [r2, r3, lsl #2]
 160              		.loc 1 117 50 discriminator 3 view .LVU32
 161 005a 3B1F     		subs	r3, r7, #4
 162              		.loc 1 117 17 discriminator 3 view .LVU33
ARM GAS  C:\Users\Jack2bs\AppData\Local\Temp\ccp1prZa.s 			page 6


 163 005c 03EB8403 		add	r3, r3, r4, lsl #2
 164              	.LVL12:
 118:Core/Src/7Seg.c ****             updateDisplayCell(data, j, i);
 165              		.loc 1 118 13 is_stmt 1 discriminator 3 view .LVU34
 166 0060 3A46     		mov	r2, r7
 167 0062 2146     		mov	r1, r4
 168 0064 50F82300 		ldr	r0, [r0, r3, lsl #2]
 169              	.LVL13:
 170              		.loc 1 118 13 is_stmt 0 discriminator 3 view .LVU35
 171 0068 FFF7FEFF 		bl	updateDisplayCell
 172              	.LVL14:
 173              		.loc 1 118 13 discriminator 3 view .LVU36
 174              	.LBE8:
 115:Core/Src/7Seg.c ****         {
 175              		.loc 1 115 32 is_stmt 1 discriminator 3 view .LVU37
 115:Core/Src/7Seg.c ****         {
 176              		.loc 1 115 33 is_stmt 0 discriminator 3 view .LVU38
 177 006c 0134     		adds	r4, r4, #1
 178              	.LVL15:
 179              	.L10:
 115:Core/Src/7Seg.c ****         {
 180              		.loc 1 115 25 is_stmt 1 discriminator 1 view .LVU39
 115:Core/Src/7Seg.c ****         {
 181              		.loc 1 115 9 is_stmt 0 discriminator 1 view .LVU40
 182 006e 032C     		cmp	r4, #3
 183 0070 E6DD     		ble	.L9
 184              	.LBE7:
 113:Core/Src/7Seg.c ****     {
 185              		.loc 1 113 28 is_stmt 1 discriminator 2 view .LVU41
 113:Core/Src/7Seg.c ****     {
 186              		.loc 1 113 29 is_stmt 0 discriminator 2 view .LVU42
 187 0072 0137     		adds	r7, r7, #1
 188              	.LVL16:
 189              	.L8:
 113:Core/Src/7Seg.c ****     {
 190              		.loc 1 113 21 is_stmt 1 discriminator 1 view .LVU43
 113:Core/Src/7Seg.c ****     {
 191              		.loc 1 113 5 is_stmt 0 discriminator 1 view .LVU44
 192 0074 072F     		cmp	r7, #7
 193 0076 01DC     		bgt	.L23
 194              	.LBB9:
 115:Core/Src/7Seg.c ****         {
 195              		.loc 1 115 18 view .LVU45
 196 0078 0024     		movs	r4, #0
 197 007a F8E7     		b	.L10
 198              	.L23:
 199              	.LBE9:
 200              	.LBE6:
 201              	.LBB10:
 119:Core/Src/7Seg.c ****         }
 120:Core/Src/7Seg.c ****     }
 121:Core/Src/7Seg.c ****     for (int i = 9; i < 13; i++)
 202              		.loc 1 121 14 view .LVU46
 203 007c 0926     		movs	r6, #9
 204              	.LVL17:
 205              		.loc 1 121 14 view .LVU47
 206 007e 16E0     		b	.L11
ARM GAS  C:\Users\Jack2bs\AppData\Local\Temp\ccp1prZa.s 			page 7


 207              	.LVL18:
 208              	.L12:
 209              	.LBB11:
 210              	.LBB12:
 122:Core/Src/7Seg.c ****     {
 123:Core/Src/7Seg.c ****         for (int j = 0; j < 4; j++)
 124:Core/Src/7Seg.c ****         {
 125:Core/Src/7Seg.c ****             int data = (*numDraws[min / 10])[j][i - 9];
 211              		.loc 1 125 13 is_stmt 1 discriminator 3 view .LVU48
 212              		.loc 1 125 39 is_stmt 0 discriminator 3 view .LVU49
 213 0080 1E4A     		ldr	r2, .L26
 214 0082 82FB0532 		smull	r3, r2, r2, r5
 215 0086 EB17     		asrs	r3, r5, #31
 216 0088 C3EBA203 		rsb	r3, r3, r2, asr #2
 217              		.loc 1 125 34 discriminator 3 view .LVU50
 218 008c 1C4A     		ldr	r2, .L26+4
 219 008e 52F82300 		ldr	r0, [r2, r3, lsl #2]
 220              		.loc 1 125 51 discriminator 3 view .LVU51
 221 0092 A6F10903 		sub	r3, r6, #9
 222              		.loc 1 125 17 discriminator 3 view .LVU52
 223 0096 03EB8403 		add	r3, r3, r4, lsl #2
 224              	.LVL19:
 126:Core/Src/7Seg.c ****             updateDisplayCell(data, j, i);
 225              		.loc 1 126 13 is_stmt 1 discriminator 3 view .LVU53
 226 009a 3246     		mov	r2, r6
 227 009c 2146     		mov	r1, r4
 228 009e 50F82300 		ldr	r0, [r0, r3, lsl #2]
 229              	.LVL20:
 230              		.loc 1 126 13 is_stmt 0 discriminator 3 view .LVU54
 231 00a2 FFF7FEFF 		bl	updateDisplayCell
 232              	.LVL21:
 233              		.loc 1 126 13 discriminator 3 view .LVU55
 234              	.LBE12:
 123:Core/Src/7Seg.c ****         {
 235              		.loc 1 123 32 is_stmt 1 discriminator 3 view .LVU56
 123:Core/Src/7Seg.c ****         {
 236              		.loc 1 123 33 is_stmt 0 discriminator 3 view .LVU57
 237 00a6 0134     		adds	r4, r4, #1
 238              	.LVL22:
 239              	.L13:
 123:Core/Src/7Seg.c ****         {
 240              		.loc 1 123 25 is_stmt 1 discriminator 1 view .LVU58
 123:Core/Src/7Seg.c ****         {
 241              		.loc 1 123 9 is_stmt 0 discriminator 1 view .LVU59
 242 00a8 032C     		cmp	r4, #3
 243 00aa E9DD     		ble	.L12
 244              	.LBE11:
 121:Core/Src/7Seg.c ****     {
 245              		.loc 1 121 29 is_stmt 1 discriminator 2 view .LVU60
 121:Core/Src/7Seg.c ****     {
 246              		.loc 1 121 30 is_stmt 0 discriminator 2 view .LVU61
 247 00ac 0136     		adds	r6, r6, #1
 248              	.LVL23:
 249              	.L11:
 121:Core/Src/7Seg.c ****     {
 250              		.loc 1 121 21 is_stmt 1 discriminator 1 view .LVU62
 121:Core/Src/7Seg.c ****     {
ARM GAS  C:\Users\Jack2bs\AppData\Local\Temp\ccp1prZa.s 			page 8


 251              		.loc 1 121 5 is_stmt 0 discriminator 1 view .LVU63
 252 00ae 0C2E     		cmp	r6, #12
 253 00b0 01DC     		bgt	.L24
 254              	.LBB13:
 123:Core/Src/7Seg.c ****         {
 255              		.loc 1 123 18 view .LVU64
 256 00b2 0024     		movs	r4, #0
 257 00b4 F8E7     		b	.L13
 258              	.L24:
 259              	.LBE13:
 260              	.LBE10:
 261              	.LBB14:
 127:Core/Src/7Seg.c ****         }
 128:Core/Src/7Seg.c ****     }
 129:Core/Src/7Seg.c ****     for (int i = 13; i < 17; i++)
 262              		.loc 1 129 14 view .LVU65
 263 00b6 0D26     		movs	r6, #13
 264              	.LVL24:
 265              		.loc 1 129 14 view .LVU66
 266 00b8 1AE0     		b	.L14
 267              	.LVL25:
 268              	.L15:
 269              	.LBB15:
 270              	.LBB16:
 130:Core/Src/7Seg.c ****     {
 131:Core/Src/7Seg.c ****         for (int j = 0; j < 4; j++)
 132:Core/Src/7Seg.c ****         {
 133:Core/Src/7Seg.c ****             int data = (*numDraws[min % 10])[j][i - 13];
 271              		.loc 1 133 13 is_stmt 1 discriminator 3 view .LVU67
 272              		.loc 1 133 39 is_stmt 0 discriminator 3 view .LVU68
 273 00ba 104A     		ldr	r2, .L26
 274 00bc 82FB0532 		smull	r3, r2, r2, r5
 275 00c0 EB17     		asrs	r3, r5, #31
 276 00c2 C3EBA203 		rsb	r3, r3, r2, asr #2
 277 00c6 03EB8303 		add	r3, r3, r3, lsl #2
 278 00ca A5EB4303 		sub	r3, r5, r3, lsl #1
 279              		.loc 1 133 34 discriminator 3 view .LVU69
 280 00ce 0C4A     		ldr	r2, .L26+4
 281 00d0 52F82300 		ldr	r0, [r2, r3, lsl #2]
 282              		.loc 1 133 51 discriminator 3 view .LVU70
 283 00d4 A6F10D03 		sub	r3, r6, #13
 284              		.loc 1 133 17 discriminator 3 view .LVU71
 285 00d8 03EB8403 		add	r3, r3, r4, lsl #2
 286              	.LVL26:
 134:Core/Src/7Seg.c ****             updateDisplayCell(data, j, i);
 287              		.loc 1 134 13 is_stmt 1 discriminator 3 view .LVU72
 288 00dc 3246     		mov	r2, r6
 289 00de 2146     		mov	r1, r4
 290 00e0 50F82300 		ldr	r0, [r0, r3, lsl #2]
 291              	.LVL27:
 292              		.loc 1 134 13 is_stmt 0 discriminator 3 view .LVU73
 293 00e4 FFF7FEFF 		bl	updateDisplayCell
 294              	.LVL28:
 295              		.loc 1 134 13 discriminator 3 view .LVU74
 296              	.LBE16:
 131:Core/Src/7Seg.c ****         {
 297              		.loc 1 131 32 is_stmt 1 discriminator 3 view .LVU75
ARM GAS  C:\Users\Jack2bs\AppData\Local\Temp\ccp1prZa.s 			page 9


 131:Core/Src/7Seg.c ****         {
 298              		.loc 1 131 33 is_stmt 0 discriminator 3 view .LVU76
 299 00e8 0134     		adds	r4, r4, #1
 300              	.LVL29:
 301              	.L16:
 131:Core/Src/7Seg.c ****         {
 302              		.loc 1 131 25 is_stmt 1 discriminator 1 view .LVU77
 131:Core/Src/7Seg.c ****         {
 303              		.loc 1 131 9 is_stmt 0 discriminator 1 view .LVU78
 304 00ea 032C     		cmp	r4, #3
 305 00ec E5DD     		ble	.L15
 306              	.LBE15:
 129:Core/Src/7Seg.c ****     {
 307              		.loc 1 129 30 is_stmt 1 discriminator 2 view .LVU79
 129:Core/Src/7Seg.c ****     {
 308              		.loc 1 129 31 is_stmt 0 discriminator 2 view .LVU80
 309 00ee 0136     		adds	r6, r6, #1
 310              	.LVL30:
 311              	.L14:
 129:Core/Src/7Seg.c ****     {
 312              		.loc 1 129 22 is_stmt 1 discriminator 1 view .LVU81
 129:Core/Src/7Seg.c ****     {
 313              		.loc 1 129 5 is_stmt 0 discriminator 1 view .LVU82
 314 00f0 102E     		cmp	r6, #16
 315 00f2 01DC     		bgt	.L25
 316              	.LBB17:
 131:Core/Src/7Seg.c ****         {
 317              		.loc 1 131 18 view .LVU83
 318 00f4 0024     		movs	r4, #0
 319 00f6 F8E7     		b	.L16
 320              	.L25:
 321              	.LBE17:
 322              	.LBE14:
 135:Core/Src/7Seg.c ****         }
 136:Core/Src/7Seg.c ****     }
 137:Core/Src/7Seg.c **** }
 323              		.loc 1 137 1 view .LVU84
 324 00f8 F8BD     		pop	{r3, r4, r5, r6, r7, pc}
 325              	.LVL31:
 326              	.L27:
 327              		.loc 1 137 1 view .LVU85
 328 00fa 00BF     		.align	2
 329              	.L26:
 330 00fc 67666666 		.word	1717986919
 331 0100 00000000 		.word	.LANCHOR1
 332              		.cfi_endproc
 333              	.LFE133:
 335              		.section	.text.setDisplayCell,"ax",%progbits
 336              		.align	1
 337              		.global	setDisplayCell
 338              		.syntax unified
 339              		.thumb
 340              		.thumb_func
 341              		.fpu fpv4-sp-d16
 343              	setDisplayCell:
 344              	.LVL32:
 345              	.LFB134:
ARM GAS  C:\Users\Jack2bs\AppData\Local\Temp\ccp1prZa.s 			page 10


 138:Core/Src/7Seg.c **** 
 139:Core/Src/7Seg.c **** /* This is what will change with different computing units*/
 140:Core/Src/7Seg.c **** void setDisplayCell(int row, int col)
 141:Core/Src/7Seg.c **** {
 346              		.loc 1 141 1 is_stmt 1 view -0
 347              		.cfi_startproc
 348              		@ args = 0, pretend = 0, frame = 0
 349              		@ frame_needed = 0, uses_anonymous_args = 0
 350              		.loc 1 141 1 is_stmt 0 view .LVU87
 351 0000 F8B5     		push	{r3, r4, r5, r6, r7, lr}
 352              	.LCFI1:
 353              		.cfi_def_cfa_offset 24
 354              		.cfi_offset 3, -24
 355              		.cfi_offset 4, -20
 356              		.cfi_offset 5, -16
 357              		.cfi_offset 6, -12
 358              		.cfi_offset 7, -8
 359              		.cfi_offset 14, -4
 142:Core/Src/7Seg.c ****     int pOut = (displayState[row][col] << 8) | ((displayAddresses[row][col] & 0b1110000) << 1) | (d
 360              		.loc 1 142 5 is_stmt 1 view .LVU88
 361              		.loc 1 142 34 is_stmt 0 view .LVU89
 362 0002 00EB0010 		add	r0, r0, r0, lsl #4
 363              	.LVL33:
 364              		.loc 1 142 34 view .LVU90
 365 0006 0144     		add	r1, r1, r0
 366              	.LVL34:
 367              		.loc 1 142 34 view .LVU91
 368 0008 134B     		ldr	r3, .L30
 369 000a 53F82120 		ldr	r2, [r3, r1, lsl #2]
 370              		.loc 1 142 71 view .LVU92
 371 000e 134B     		ldr	r3, .L30+4
 372 0010 53F82130 		ldr	r3, [r3, r1, lsl #2]
 373              		.loc 1 142 90 view .LVU93
 374 0014 5C00     		lsls	r4, r3, #1
 375 0016 04F0E004 		and	r4, r4, #224
 376              		.loc 1 142 46 view .LVU94
 377 001a 44EA0224 		orr	r4, r4, r2, lsl #8
 378              		.loc 1 142 126 view .LVU95
 379 001e 03F00F03 		and	r3, r3, #15
 380              		.loc 1 142 9 view .LVU96
 381 0022 1C43     		orrs	r4, r4, r3
 382              	.LVL35:
 143:Core/Src/7Seg.c ****     uint16_t pA = pOut & (0b1110011111101111);
 383              		.loc 1 143 5 is_stmt 1 view .LVU97
 384              		.loc 1 143 24 is_stmt 0 view .LVU98
 385 0024 A3B2     		uxth	r3, r4
 386              		.loc 1 143 14 view .LVU99
 387 0026 23F4C052 		bic	r2, r3, #6144
 388              	.LVL36:
 144:Core/Src/7Seg.c **** 	uint16_t pB = pOut & ~(0b1110011111101111);
 389              		.loc 1 144 2 is_stmt 1 view .LVU100
 390              		.loc 1 144 11 is_stmt 0 view .LVU101
 391 002a 41F61007 		movw	r7, #6160
 392 002e 3B40     		ands	r3, r3, r7
 393              	.LVL37:
 145:Core/Src/7Seg.c **** 	GPIOA->ODR = pA;
 394              		.loc 1 145 2 is_stmt 1 view .LVU102
ARM GAS  C:\Users\Jack2bs\AppData\Local\Temp\ccp1prZa.s 			page 11


 395              		.loc 1 145 13 is_stmt 0 view .LVU103
 396 0030 4FF09046 		mov	r6, #1207959552
 397 0034 7261     		str	r2, [r6, #20]
 146:Core/Src/7Seg.c **** 	GPIOB->ODR = pB;
 398              		.loc 1 146 2 is_stmt 1 view .LVU104
 399              		.loc 1 146 13 is_stmt 0 view .LVU105
 400 0036 0A4D     		ldr	r5, .L30+8
 401 0038 6B61     		str	r3, [r5, #20]
 147:Core/Src/7Seg.c **** 
 148:Core/Src/7Seg.c ****     HAL_Delay(5);
 402              		.loc 1 148 5 is_stmt 1 view .LVU106
 403 003a 0520     		movs	r0, #5
 404 003c FFF7FEFF 		bl	HAL_Delay
 405              	.LVL38:
 149:Core/Src/7Seg.c **** 
 150:Core/Src/7Seg.c ****     pOut |= (1<<2);
 406              		.loc 1 150 5 view .LVU107
 407              		.loc 1 150 10 is_stmt 0 view .LVU108
 408 0040 44F00404 		orr	r4, r4, #4
 409              	.LVL39:
 151:Core/Src/7Seg.c ****     pA = pOut & (0b1110011111101111);
 410              		.loc 1 151 5 is_stmt 1 view .LVU109
 411              		.loc 1 151 15 is_stmt 0 view .LVU110
 412 0044 A4B2     		uxth	r4, r4
 413              	.LVL40:
 414              		.loc 1 151 8 view .LVU111
 415 0046 24F4C053 		bic	r3, r4, #6144
 416              	.LVL41:
 152:Core/Src/7Seg.c **** 	pB = pOut & ~(0b1110011111101111);
 417              		.loc 1 152 2 is_stmt 1 view .LVU112
 418              		.loc 1 152 5 is_stmt 0 view .LVU113
 419 004a 3C40     		ands	r4, r4, r7
 420              	.LVL42:
 153:Core/Src/7Seg.c **** 	GPIOA->ODR = pA;
 421              		.loc 1 153 2 is_stmt 1 view .LVU114
 422              		.loc 1 153 13 is_stmt 0 view .LVU115
 423 004c 7361     		str	r3, [r6, #20]
 154:Core/Src/7Seg.c **** 	GPIOB->ODR = pB;
 424              		.loc 1 154 2 is_stmt 1 view .LVU116
 425              		.loc 1 154 13 is_stmt 0 view .LVU117
 426 004e 6C61     		str	r4, [r5, #20]
 155:Core/Src/7Seg.c **** 
 156:Core/Src/7Seg.c ****     HAL_Delay(5);
 427              		.loc 1 156 5 is_stmt 1 view .LVU118
 428 0050 0520     		movs	r0, #5
 429 0052 FFF7FEFF 		bl	HAL_Delay
 430              	.LVL43:
 157:Core/Src/7Seg.c **** }
 431              		.loc 1 157 1 is_stmt 0 view .LVU119
 432 0056 F8BD     		pop	{r3, r4, r5, r6, r7, pc}
 433              	.LVL44:
 434              	.L31:
 435              		.loc 1 157 1 view .LVU120
 436              		.align	2
 437              	.L30:
 438 0058 00000000 		.word	.LANCHOR0
 439 005c 00000000 		.word	.LANCHOR2
ARM GAS  C:\Users\Jack2bs\AppData\Local\Temp\ccp1prZa.s 			page 12


 440 0060 00040048 		.word	1207960576
 441              		.cfi_endproc
 442              	.LFE134:
 444              		.section	.text.setDisplay,"ax",%progbits
 445              		.align	1
 446              		.global	setDisplay
 447              		.syntax unified
 448              		.thumb
 449              		.thumb_func
 450              		.fpu fpv4-sp-d16
 452              	setDisplay:
 453              	.LFB135:
 158:Core/Src/7Seg.c **** 
 159:Core/Src/7Seg.c **** void setDisplay()
 160:Core/Src/7Seg.c **** {
 454              		.loc 1 160 1 is_stmt 1 view -0
 455              		.cfi_startproc
 456              		@ args = 0, pretend = 0, frame = 0
 457              		@ frame_needed = 0, uses_anonymous_args = 0
 458 0000 38B5     		push	{r3, r4, r5, lr}
 459              	.LCFI2:
 460              		.cfi_def_cfa_offset 16
 461              		.cfi_offset 3, -16
 462              		.cfi_offset 4, -12
 463              		.cfi_offset 5, -8
 464              		.cfi_offset 14, -4
 161:Core/Src/7Seg.c ****     for (int i = 0; i < 17; i++)
 465              		.loc 1 161 5 view .LVU122
 466              	.LBB18:
 467              		.loc 1 161 10 view .LVU123
 468              	.LVL45:
 469              		.loc 1 161 14 is_stmt 0 view .LVU124
 470 0002 0025     		movs	r5, #0
 471              		.loc 1 161 5 view .LVU125
 472 0004 10E0     		b	.L33
 473              	.LVL46:
 474              	.L34:
 475              	.LBB19:
 162:Core/Src/7Seg.c ****     {
 163:Core/Src/7Seg.c ****         for (int j = 0; j < 4; j++)
 164:Core/Src/7Seg.c ****         {
 165:Core/Src/7Seg.c ****             //if (displayState[j][i] != lastDisplayState[j][i])
 166:Core/Src/7Seg.c ****             //{
 167:Core/Src/7Seg.c ****                 setDisplayCell(j, i);
 476              		.loc 1 167 17 is_stmt 1 discriminator 3 view .LVU126
 477 0006 2946     		mov	r1, r5
 478 0008 2046     		mov	r0, r4
 479 000a FFF7FEFF 		bl	setDisplayCell
 480              	.LVL47:
 168:Core/Src/7Seg.c ****                 lastDisplayState[j][i] = displayState[j][i];
 481              		.loc 1 168 17 discriminator 3 view .LVU127
 482              		.loc 1 168 57 is_stmt 0 discriminator 3 view .LVU128
 483 000e 04EB0413 		add	r3, r4, r4, lsl #4
 484 0012 2B44     		add	r3, r3, r5
 485 0014 074A     		ldr	r2, .L39
 486 0016 52F82310 		ldr	r1, [r2, r3, lsl #2]
 487              		.loc 1 168 40 discriminator 3 view .LVU129
ARM GAS  C:\Users\Jack2bs\AppData\Local\Temp\ccp1prZa.s 			page 13


 488 001a 074A     		ldr	r2, .L39+4
 489 001c 42F82310 		str	r1, [r2, r3, lsl #2]
 163:Core/Src/7Seg.c ****         {
 490              		.loc 1 163 32 is_stmt 1 discriminator 3 view .LVU130
 163:Core/Src/7Seg.c ****         {
 491              		.loc 1 163 33 is_stmt 0 discriminator 3 view .LVU131
 492 0020 0134     		adds	r4, r4, #1
 493              	.LVL48:
 494              	.L35:
 163:Core/Src/7Seg.c ****         {
 495              		.loc 1 163 25 is_stmt 1 discriminator 1 view .LVU132
 163:Core/Src/7Seg.c ****         {
 496              		.loc 1 163 9 is_stmt 0 discriminator 1 view .LVU133
 497 0022 032C     		cmp	r4, #3
 498 0024 EFDD     		ble	.L34
 499              	.LBE19:
 161:Core/Src/7Seg.c ****     {
 500              		.loc 1 161 29 is_stmt 1 discriminator 2 view .LVU134
 161:Core/Src/7Seg.c ****     {
 501              		.loc 1 161 30 is_stmt 0 discriminator 2 view .LVU135
 502 0026 0135     		adds	r5, r5, #1
 503              	.LVL49:
 504              	.L33:
 161:Core/Src/7Seg.c ****     {
 505              		.loc 1 161 21 is_stmt 1 discriminator 1 view .LVU136
 161:Core/Src/7Seg.c ****     {
 506              		.loc 1 161 5 is_stmt 0 discriminator 1 view .LVU137
 507 0028 102D     		cmp	r5, #16
 508 002a 01DC     		bgt	.L38
 509              	.LBB20:
 163:Core/Src/7Seg.c ****         {
 510              		.loc 1 163 18 view .LVU138
 511 002c 0024     		movs	r4, #0
 512 002e F8E7     		b	.L35
 513              	.L38:
 514              	.LBE20:
 515              	.LBE18:
 169:Core/Src/7Seg.c ****             //}
 170:Core/Src/7Seg.c ****         }
 171:Core/Src/7Seg.c ****     }
 172:Core/Src/7Seg.c ****     return;
 173:Core/Src/7Seg.c **** }...
 516              		.loc 1 173 1 view .LVU139
 517 0030 38BD     		pop	{r3, r4, r5, pc}
 518              	.LVL50:
 519              	.L40:
 520              		.loc 1 173 1 view .LVU140
 521 0032 00BF     		.align	2
 522              	.L39:
 523 0034 00000000 		.word	.LANCHOR0
 524 0038 00000000 		.word	.LANCHOR3
 525              		.cfi_endproc
 526              	.LFE135:
 528              		.global	displayState
 529              		.global	lastDisplayState
 530              		.global	displayAddresses
 531              		.global	numDraws
ARM GAS  C:\Users\Jack2bs\AppData\Local\Temp\ccp1prZa.s 			page 14


 532              		.global	zeroDraw
 533              		.global	nineDraw
 534              		.global	eightDraw
 535              		.global	sevenDraw
 536              		.global	sixDraw
 537              		.global	fiveDraw
 538              		.global	fourDraw
 539              		.global	threeDraw
 540              		.global	twoDraw
 541              		.global	oneDraw
 542              		.section	.bss.displayState,"aw",%nobits
 543              		.align	2
 544              		.set	.LANCHOR0,. + 0
 547              	displayState:
 548 0000 00000000 		.space	272
 548      00000000 
 548      00000000 
 548      00000000 
 548      00000000 
 549              		.section	.bss.lastDisplayState,"aw",%nobits
 550              		.align	2
 551              		.set	.LANCHOR3,. + 0
 554              	lastDisplayState:
 555 0000 00000000 		.space	272
 555      00000000 
 555      00000000 
 555      00000000 
 555      00000000 
 556              		.section	.data.numDraws,"aw"
 557              		.align	2
 558              		.set	.LANCHOR1,. + 0
 561              	numDraws:
 562 0000 00000000 		.word	zeroDraw
 563 0004 00000000 		.word	oneDraw
 564 0008 00000000 		.word	twoDraw
 565 000c 00000000 		.word	threeDraw
 566 0010 00000000 		.word	fourDraw
 567 0014 00000000 		.word	fiveDraw
 568 0018 00000000 		.word	sixDraw
 569 001c 00000000 		.word	sevenDraw
 570 0020 00000000 		.word	eightDraw
 571 0024 00000000 		.word	nineDraw
 572              		.section	.rodata.displayAddresses,"a"
 573              		.align	2
 574              		.set	.LANCHOR2,. + 0
 577              	displayAddresses:
 578 0000 30000000 		.word	48
 579 0004 28000000 		.word	40
 580 0008 08000000 		.word	8
 581 000c 10000000 		.word	16
 582 0010 31000000 		.word	49
 583 0014 29000000 		.word	41
 584 0018 09000000 		.word	9
 585 001c 11000000 		.word	17
 586 0020 34000000 		.word	52
 587 0024 32000000 		.word	50
 588 0028 2A000000 		.word	42
ARM GAS  C:\Users\Jack2bs\AppData\Local\Temp\ccp1prZa.s 			page 15


 589 002c 0A000000 		.word	10
 590 0030 12000000 		.word	18
 591 0034 33000000 		.word	51
 592 0038 2B000000 		.word	43
 593 003c 0B000000 		.word	11
 594 0040 13000000 		.word	19
 595 0044 38000000 		.word	56
 596 0048 20000000 		.word	32
 597 004c 18000000 		.word	24
 598 0050 00000000 		.word	0
 599 0054 39000000 		.word	57
 600 0058 21000000 		.word	33
 601 005c 19000000 		.word	25
 602 0060 01000000 		.word	1
 603 0064 3B000000 		.word	59
 604 0068 3A000000 		.word	58
 605 006c 22000000 		.word	34
 606 0070 1A000000 		.word	26
 607 0074 02000000 		.word	2
 608 0078 3B000000 		.word	59
 609 007c 23000000 		.word	35
 610 0080 1B000000 		.word	27
 611 0084 03000000 		.word	3
 612 0088 58000000 		.word	88
 613 008c 50000000 		.word	80
 614 0090 68000000 		.word	104
 615 0094 60000000 		.word	96
 616 0098 59000000 		.word	89
 617 009c 51000000 		.word	81
 618 00a0 69000000 		.word	105
 619 00a4 61000000 		.word	97
 620 00a8 5B000000 		.word	91
 621 00ac 5A000000 		.word	90
 622 00b0 52000000 		.word	82
 623 00b4 6A000000 		.word	106
 624 00b8 62000000 		.word	98
 625 00bc 5B000000 		.word	91
 626 00c0 53000000 		.word	83
 627 00c4 6B000000 		.word	107
 628 00c8 63000000 		.word	99
 629 00cc 40000000 		.word	64
 630 00d0 48000000 		.word	72
 631 00d4 70000000 		.word	112
 632 00d8 78000000 		.word	120
 633 00dc 41000000 		.word	65
 634 00e0 49000000 		.word	73
 635 00e4 71000000 		.word	113
 636 00e8 79000000 		.word	121
 637 00ec 44000000 		.word	68
 638 00f0 42000000 		.word	66
 639 00f4 4A000000 		.word	74
 640 00f8 72000000 		.word	114
 641 00fc 7A000000 		.word	122
 642 0100 43000000 		.word	67
 643 0104 4B000000 		.word	75
 644 0108 73000000 		.word	115
 645 010c 7B000000 		.word	123
ARM GAS  C:\Users\Jack2bs\AppData\Local\Temp\ccp1prZa.s 			page 16


 646              		.section	.rodata.eightDraw,"a"
 647              		.align	2
 650              	eightDraw:
 651 0000 EA000000 		.word	234
 652 0004 0F000000 		.word	15
 653 0008 0F000000 		.word	15
 654 000c E3000000 		.word	227
 655 0010 0F000000 		.word	15
 656 0014 E2000000 		.word	226
 657 0018 E2000000 		.word	226
 658 001c 0F000000 		.word	15
 659 0020 E2000000 		.word	226
 660 0024 0F000000 		.word	15
 661 0028 0F000000 		.word	15
 662 002c E2000000 		.word	226
 663 0030 2F000000 		.word	47
 664 0034 E2000000 		.word	226
 665 0038 E2000000 		.word	226
 666 003c 8F000000 		.word	143
 667              		.section	.rodata.fiveDraw,"a"
 668              		.align	2
 671              	fiveDraw:
 672 0000 EF000000 		.word	239
 673 0004 0F000000 		.word	15
 674 0008 0F000000 		.word	15
 675 000c 0F000000 		.word	15
 676 0010 EF000000 		.word	239
 677 0014 E2000000 		.word	226
 678 0018 E2000000 		.word	226
 679 001c C0000000 		.word	192
 680 0020 E2000000 		.word	226
 681 0024 00000000 		.word	0
 682 0028 00000000 		.word	0
 683 002c 0F000000 		.word	15
 684 0030 2F000000 		.word	47
 685 0034 E2000000 		.word	226
 686 0038 E2000000 		.word	226
 687 003c 8F000000 		.word	143
 688              		.section	.rodata.fourDraw,"a"
 689              		.align	2
 692              	fourDraw:
 693 0000 00000000 		.word	0
 694 0004 00000000 		.word	0
 695 0008 EA000000 		.word	234
 696 000c EF000000 		.word	239
 697 0010 00000000 		.word	0
 698 0014 EA000000 		.word	234
 699 0018 00000000 		.word	0
 700 001c EF000000 		.word	239
 701 0020 EA000000 		.word	234
 702 0024 E2000000 		.word	226
 703 0028 E2000000 		.word	226
 704 002c EF000000 		.word	239
 705 0030 00000000 		.word	0
 706 0034 00000000 		.word	0
 707 0038 00000000 		.word	0
 708 003c EF000000 		.word	239
ARM GAS  C:\Users\Jack2bs\AppData\Local\Temp\ccp1prZa.s 			page 17


 709              		.section	.rodata.nineDraw,"a"
 710              		.align	2
 713              	nineDraw:
 714 0000 EA000000 		.word	234
 715 0004 0F000000 		.word	15
 716 0008 0F000000 		.word	15
 717 000c E3000000 		.word	227
 718 0010 EF000000 		.word	239
 719 0014 00000000 		.word	0
 720 0018 00000000 		.word	0
 721 001c EF000000 		.word	239
 722 0020 0C000000 		.word	12
 723 0024 0F000000 		.word	15
 724 0028 0F000000 		.word	15
 725 002c EF000000 		.word	239
 726 0030 2F000000 		.word	47
 727 0034 E3000000 		.word	227
 728 0038 EA000000 		.word	234
 729 003c 8F000000 		.word	143
 730              		.section	.rodata.oneDraw,"a"
 731              		.align	2
 734              	oneDraw:
 735 0000 00000000 		.word	0
 736 0004 EA000000 		.word	234
 737 0008 EF000000 		.word	239
 738 000c 00000000 		.word	0
 739 0010 00000000 		.word	0
 740 0014 00000000 		.word	0
 741 0018 EF000000 		.word	239
 742 001c 00000000 		.word	0
 743 0020 00000000 		.word	0
 744 0024 00000000 		.word	0
 745 0028 EF000000 		.word	239
 746 002c 00000000 		.word	0
 747 0030 00000000 		.word	0
 748 0034 E2000000 		.word	226
 749 0038 EF000000 		.word	239
 750 003c E2000000 		.word	226
 751              		.section	.rodata.sevenDraw,"a"
 752              		.align	2
 755              	sevenDraw:
 756 0000 0F000000 		.word	15
 757 0004 0F000000 		.word	15
 758 0008 0F000000 		.word	15
 759 000c EF000000 		.word	239
 760 0010 00000000 		.word	0
 761 0014 00000000 		.word	0
 762 0018 EA000000 		.word	234
 763 001c 00000000 		.word	0
 764 0020 00000000 		.word	0
 765 0024 EF000000 		.word	239
 766 0028 00000000 		.word	0
 767 002c 00000000 		.word	0
 768 0030 00000000 		.word	0
 769 0034 EF000000 		.word	239
 770 0038 00000000 		.word	0
 771 003c 00000000 		.word	0
ARM GAS  C:\Users\Jack2bs\AppData\Local\Temp\ccp1prZa.s 			page 18


 772              		.section	.rodata.sixDraw,"a"
 773              		.align	2
 776              	sixDraw:
 777 0000 EA000000 		.word	234
 778 0004 8F000000 		.word	143
 779 0008 2F000000 		.word	47
 780 000c E3000000 		.word	227
 781 0010 EF000000 		.word	239
 782 0014 E2000000 		.word	226
 783 0018 E2000000 		.word	226
 784 001c C0000000 		.word	192
 785 0020 EF000000 		.word	239
 786 0024 00000000 		.word	0
 787 0028 00000000 		.word	0
 788 002c EF000000 		.word	239
 789 0030 2F000000 		.word	47
 790 0034 E2000000 		.word	226
 791 0038 E2000000 		.word	226
 792 003c 8F000000 		.word	143
 793              		.section	.rodata.threeDraw,"a"
 794              		.align	2
 797              	threeDraw:
 798 0000 EA000000 		.word	234
 799 0004 0F000000 		.word	15
 800 0008 0F000000 		.word	15
 801 000c E3000000 		.word	227
 802 0010 00000000 		.word	0
 803 0014 60000000 		.word	96
 804 0018 E2000000 		.word	226
 805 001c 8F000000 		.word	143
 806 0020 00000000 		.word	0
 807 0024 0C000000 		.word	12
 808 0028 0F000000 		.word	15
 809 002c E3000000 		.word	227
 810 0030 2F000000 		.word	47
 811 0034 E2000000 		.word	226
 812 0038 E2000000 		.word	226
 813 003c 8F000000 		.word	143
 814              		.section	.rodata.twoDraw,"a"
 815              		.align	2
 818              	twoDraw:
 819 0000 E2000000 		.word	226
 820 0004 0F000000 		.word	15
 821 0008 0F000000 		.word	15
 822 000c E2000000 		.word	226
 823 0010 00000000 		.word	0
 824 0014 00000000 		.word	0
 825 0018 EA000000 		.word	234
 826 001c 8F000000 		.word	143
 827 0020 00000000 		.word	0
 828 0024 EA000000 		.word	234
 829 0028 8F000000 		.word	143
 830 002c 00000000 		.word	0
 831 0030 2F000000 		.word	47
 832 0034 E2000000 		.word	226
 833 0038 E2000000 		.word	226
 834 003c 8F000000 		.word	143
ARM GAS  C:\Users\Jack2bs\AppData\Local\Temp\ccp1prZa.s 			page 19


 835              		.section	.rodata.zeroDraw,"a"
 836              		.align	2
 839              	zeroDraw:
 840 0000 EA000000 		.word	234
 841 0004 0F000000 		.word	15
 842 0008 0F000000 		.word	15
 843 000c E3000000 		.word	227
 844 0010 EF000000 		.word	239
 845 0014 00000000 		.word	0
 846 0018 00000000 		.word	0
 847 001c EF000000 		.word	239
 848 0020 EF000000 		.word	239
 849 0024 00000000 		.word	0
 850 0028 00000000 		.word	0
 851 002c EF000000 		.word	239
 852 0030 2F000000 		.word	47
 853 0034 E3000000 		.word	227
 854 0038 EA000000 		.word	234
 855 003c 8F000000 		.word	143
 856              		.text
 857              	.Letext0:
 858              		.file 2 "e:\\arm\\10 2020-q4-major\\arm-none-eabi\\include\\machine\\_default_types.h"
 859              		.file 3 "e:\\arm\\10 2020-q4-major\\arm-none-eabi\\include\\sys\\_stdint.h"
 860              		.file 4 "Drivers/CMSIS/Device/ST/STM32G4xx/Include/stm32g441xx.h"
 861              		.file 5 "Drivers/STM32G4xx_HAL_Driver/Inc/stm32g4xx_hal.h"
ARM GAS  C:\Users\Jack2bs\AppData\Local\Temp\ccp1prZa.s 			page 20


DEFINED SYMBOLS
                            *ABS*:00000000 7Seg.c
C:\Users\Jack2bs\AppData\Local\Temp\ccp1prZa.s:18     .text.updateDisplayCell:00000000 $t
C:\Users\Jack2bs\AppData\Local\Temp\ccp1prZa.s:26     .text.updateDisplayCell:00000000 updateDisplayCell
C:\Users\Jack2bs\AppData\Local\Temp\ccp1prZa.s:48     .text.updateDisplayCell:00000010 $d
C:\Users\Jack2bs\AppData\Local\Temp\ccp1prZa.s:53     .text.updateDisplayWithTime:00000000 $t
C:\Users\Jack2bs\AppData\Local\Temp\ccp1prZa.s:60     .text.updateDisplayWithTime:00000000 updateDisplayWithTime
C:\Users\Jack2bs\AppData\Local\Temp\ccp1prZa.s:330    .text.updateDisplayWithTime:000000fc $d
C:\Users\Jack2bs\AppData\Local\Temp\ccp1prZa.s:336    .text.setDisplayCell:00000000 $t
C:\Users\Jack2bs\AppData\Local\Temp\ccp1prZa.s:343    .text.setDisplayCell:00000000 setDisplayCell
C:\Users\Jack2bs\AppData\Local\Temp\ccp1prZa.s:438    .text.setDisplayCell:00000058 $d
C:\Users\Jack2bs\AppData\Local\Temp\ccp1prZa.s:445    .text.setDisplay:00000000 $t
C:\Users\Jack2bs\AppData\Local\Temp\ccp1prZa.s:452    .text.setDisplay:00000000 setDisplay
C:\Users\Jack2bs\AppData\Local\Temp\ccp1prZa.s:523    .text.setDisplay:00000034 $d
C:\Users\Jack2bs\AppData\Local\Temp\ccp1prZa.s:547    .bss.displayState:00000000 displayState
C:\Users\Jack2bs\AppData\Local\Temp\ccp1prZa.s:554    .bss.lastDisplayState:00000000 lastDisplayState
C:\Users\Jack2bs\AppData\Local\Temp\ccp1prZa.s:577    .rodata.displayAddresses:00000000 displayAddresses
C:\Users\Jack2bs\AppData\Local\Temp\ccp1prZa.s:561    .data.numDraws:00000000 numDraws
C:\Users\Jack2bs\AppData\Local\Temp\ccp1prZa.s:839    .rodata.zeroDraw:00000000 zeroDraw
C:\Users\Jack2bs\AppData\Local\Temp\ccp1prZa.s:713    .rodata.nineDraw:00000000 nineDraw
C:\Users\Jack2bs\AppData\Local\Temp\ccp1prZa.s:650    .rodata.eightDraw:00000000 eightDraw
C:\Users\Jack2bs\AppData\Local\Temp\ccp1prZa.s:755    .rodata.sevenDraw:00000000 sevenDraw
C:\Users\Jack2bs\AppData\Local\Temp\ccp1prZa.s:776    .rodata.sixDraw:00000000 sixDraw
C:\Users\Jack2bs\AppData\Local\Temp\ccp1prZa.s:671    .rodata.fiveDraw:00000000 fiveDraw
C:\Users\Jack2bs\AppData\Local\Temp\ccp1prZa.s:692    .rodata.fourDraw:00000000 fourDraw
C:\Users\Jack2bs\AppData\Local\Temp\ccp1prZa.s:797    .rodata.threeDraw:00000000 threeDraw
C:\Users\Jack2bs\AppData\Local\Temp\ccp1prZa.s:818    .rodata.twoDraw:00000000 twoDraw
C:\Users\Jack2bs\AppData\Local\Temp\ccp1prZa.s:734    .rodata.oneDraw:00000000 oneDraw
C:\Users\Jack2bs\AppData\Local\Temp\ccp1prZa.s:543    .bss.displayState:00000000 $d
C:\Users\Jack2bs\AppData\Local\Temp\ccp1prZa.s:550    .bss.lastDisplayState:00000000 $d
C:\Users\Jack2bs\AppData\Local\Temp\ccp1prZa.s:557    .data.numDraws:00000000 $d
C:\Users\Jack2bs\AppData\Local\Temp\ccp1prZa.s:573    .rodata.displayAddresses:00000000 $d
C:\Users\Jack2bs\AppData\Local\Temp\ccp1prZa.s:647    .rodata.eightDraw:00000000 $d
C:\Users\Jack2bs\AppData\Local\Temp\ccp1prZa.s:668    .rodata.fiveDraw:00000000 $d
C:\Users\Jack2bs\AppData\Local\Temp\ccp1prZa.s:689    .rodata.fourDraw:00000000 $d
C:\Users\Jack2bs\AppData\Local\Temp\ccp1prZa.s:710    .rodata.nineDraw:00000000 $d
C:\Users\Jack2bs\AppData\Local\Temp\ccp1prZa.s:731    .rodata.oneDraw:00000000 $d
C:\Users\Jack2bs\AppData\Local\Temp\ccp1prZa.s:752    .rodata.sevenDraw:00000000 $d
C:\Users\Jack2bs\AppData\Local\Temp\ccp1prZa.s:773    .rodata.sixDraw:00000000 $d
C:\Users\Jack2bs\AppData\Local\Temp\ccp1prZa.s:794    .rodata.threeDraw:00000000 $d
C:\Users\Jack2bs\AppData\Local\Temp\ccp1prZa.s:815    .rodata.twoDraw:00000000 $d
C:\Users\Jack2bs\AppData\Local\Temp\ccp1prZa.s:836    .rodata.zeroDraw:00000000 $d

UNDEFINED SYMBOLS
HAL_Delay
