ARM GAS  C:\Users\Jack2bs\AppData\Local\Temp\ccSjm82b.s 			page 1


   1              		.cpu cortex-m4
   2              		.eabi_attribute 27, 1
   3              		.eabi_attribute 28, 1
   4              		.eabi_attribute 20, 1
   5              		.eabi_attribute 21, 1
   6              		.eabi_attribute 23, 3
   7              		.eabi_attribute 24, 1
   8              		.eabi_attribute 25, 1
   9              		.eabi_attribute 26, 1
  10              		.eabi_attribute 30, 1
  11              		.eabi_attribute 34, 1
  12              		.eabi_attribute 18, 4
  13              		.file	"7Seg.c"
  14              		.text
  15              	.Ltext0:
  16              		.cfi_sections	.debug_frame
  17              		.section	.text.updateDisplayCell,"ax",%progbits
  18              		.align	1
  19              		.global	updateDisplayCell
  20              		.arch armv7e-m
  21              		.syntax unified
  22              		.thumb
  23              		.thumb_func
  24              		.fpu fpv4-sp-d16
  26              	updateDisplayCell:
  27              	.LVL0:
  28              	.LFB132:
  29              		.file 1 "Core/Src/7Seg.c"
   1:Core/Src/7Seg.c **** #include "7Seg.h"
   2:Core/Src/7Seg.c **** #include "stm32g4xx_hal.h"
   3:Core/Src/7Seg.c **** #include <stm32g441xx.h>
   4:Core/Src/7Seg.c **** 
   5:Core/Src/7Seg.c **** const int oneDraw[4][4] =
   6:Core/Src/7Seg.c **** {
   7:Core/Src/7Seg.c **** 	{NONE, D_SHAPE , ALL_SEVEN, NONE	},
   8:Core/Src/7Seg.c **** 	{NONE, NONE	   , ALL_SEVEN, NONE	},
   9:Core/Src/7Seg.c **** 	{NONE, NONE	   , ALL_SEVEN, NONE	},
  10:Core/Src/7Seg.c **** 	{NONE, BOTTOM_O, ALL_SEVEN, BOTTOM_O}
  11:Core/Src/7Seg.c **** };
  12:Core/Src/7Seg.c **** 
  13:Core/Src/7Seg.c **** const int twoDraw[4][4] =
  14:Core/Src/7Seg.c **** {
  15:Core/Src/7Seg.c **** 	{BOTTOM_O, TOP_O   , TOP_O	 , BOTTOM_O},
  16:Core/Src/7Seg.c **** 	{NONE	 , NONE	   , D_SHAPE , P_SHAPE },
  17:Core/Src/7Seg.c **** 	{NONE	 , D_SHAPE , P_SHAPE , NONE	   },
  18:Core/Src/7Seg.c **** 	{Q_SHAPE , BOTTOM_O, BOTTOM_O, P_SHAPE }
  19:Core/Src/7Seg.c **** };
  20:Core/Src/7Seg.c **** 
  21:Core/Src/7Seg.c **** const int threeDraw[4][4] =
  22:Core/Src/7Seg.c **** {
  23:Core/Src/7Seg.c **** 	{D_SHAPE, TOP_O		, TOP_O	  , B_SHAPE},
  24:Core/Src/7Seg.c **** 	{NONE	, B_R_CORNER, BOTTOM_O, P_SHAPE},
  25:Core/Src/7Seg.c **** 	{NONE	, T_R_CORNER, TOP_O	  , B_SHAPE},
  26:Core/Src/7Seg.c **** 	{Q_SHAPE, BOTTOM_O	, BOTTOM_O, P_SHAPE}
  27:Core/Src/7Seg.c **** };
  28:Core/Src/7Seg.c **** 
  29:Core/Src/7Seg.c **** const int fourDraw[4][4] =
ARM GAS  C:\Users\Jack2bs\AppData\Local\Temp\ccSjm82b.s 			page 2


  30:Core/Src/7Seg.c **** {
  31:Core/Src/7Seg.c **** 	{NONE	, NONE	  , D_SHAPE	, ALL_SEVEN},
  32:Core/Src/7Seg.c **** 	{NONE	, D_SHAPE , NONE	, ALL_SEVEN},
  33:Core/Src/7Seg.c **** 	{D_SHAPE, BOTTOM_O, BOTTOM_O, ALL_SEVEN},
  34:Core/Src/7Seg.c **** 	{NONE	, NONE	  , NONE	, ALL_SEVEN}
  35:Core/Src/7Seg.c **** };
  36:Core/Src/7Seg.c **** 
  37:Core/Src/7Seg.c **** const int fiveDraw[4][4] =
  38:Core/Src/7Seg.c **** {
  39:Core/Src/7Seg.c **** 	{ALL_SEVEN,	TOP_O	, TOP_O	  , TOP_O	  },
  40:Core/Src/7Seg.c **** 	{ALL_SEVEN,	BOTTOM_O, BOTTOM_O, B_L_CORNER},
  41:Core/Src/7Seg.c **** 	{BOTTOM_O ,	NONE	, NONE	  , TOP_O	  },
  42:Core/Src/7Seg.c **** 	{Q_SHAPE  ,	BOTTOM_O, BOTTOM_O, P_SHAPE   }
  43:Core/Src/7Seg.c **** };
  44:Core/Src/7Seg.c **** 
  45:Core/Src/7Seg.c **** const int sixDraw[4][4] =
  46:Core/Src/7Seg.c **** {
  47:Core/Src/7Seg.c **** 	{D_SHAPE  ,	P_SHAPE	, Q_SHAPE , B_SHAPE	  },
  48:Core/Src/7Seg.c **** 	{ALL_SEVEN,	BOTTOM_O, BOTTOM_O, B_L_CORNER},
  49:Core/Src/7Seg.c **** 	{ALL_SEVEN,	NONE	, NONE	  , ALL_SEVEN },
  50:Core/Src/7Seg.c **** 	{Q_SHAPE  ,	BOTTOM_O, BOTTOM_O, P_SHAPE	  }
  51:Core/Src/7Seg.c **** };
  52:Core/Src/7Seg.c **** 
  53:Core/Src/7Seg.c **** const int sevenDraw[4][4] =
  54:Core/Src/7Seg.c **** {
  55:Core/Src/7Seg.c **** 	{TOP_O, TOP_O	 , TOP_O  , ALL_SEVEN},
  56:Core/Src/7Seg.c **** 	{NONE ,	NONE	 , D_SHAPE, NONE	 },
  57:Core/Src/7Seg.c **** 	{NONE ,	ALL_SEVEN, NONE   , NONE	 },
  58:Core/Src/7Seg.c **** 	{NONE ,	ALL_SEVEN, NONE   , NONE	 }
  59:Core/Src/7Seg.c **** };
  60:Core/Src/7Seg.c **** 
  61:Core/Src/7Seg.c **** const int eightDraw[4][4] =
  62:Core/Src/7Seg.c **** {
  63:Core/Src/7Seg.c **** 	{D_SHAPE , TOP_O   , TOP_O   , B_SHAPE },
  64:Core/Src/7Seg.c **** 	{TOP_O 	 , BOTTOM_O, BOTTOM_O, TOP_O   },
  65:Core/Src/7Seg.c **** 	{BOTTOM_O, TOP_O   , TOP_O   , BOTTOM_O},
  66:Core/Src/7Seg.c **** 	{Q_SHAPE , BOTTOM_O, BOTTOM_O, P_SHAPE }
  67:Core/Src/7Seg.c **** };
  68:Core/Src/7Seg.c **** 
  69:Core/Src/7Seg.c **** const int nineDraw[4][4] =
  70:Core/Src/7Seg.c **** {
  71:Core/Src/7Seg.c **** 	{D_SHAPE   , TOP_O  , TOP_O  , B_SHAPE  },
  72:Core/Src/7Seg.c **** 	{ALL_SEVEN , NONE	, NONE   , ALL_SEVEN},
  73:Core/Src/7Seg.c **** 	{T_R_CORNER, TOP_O  , TOP_O  , ALL_SEVEN},
  74:Core/Src/7Seg.c **** 	{Q_SHAPE   , B_SHAPE, D_SHAPE, P_SHAPE  }
  75:Core/Src/7Seg.c **** };
  76:Core/Src/7Seg.c **** 
  77:Core/Src/7Seg.c **** const int zeroDraw[4][4] =
  78:Core/Src/7Seg.c **** {
  79:Core/Src/7Seg.c **** 	{D_SHAPE   , TOP_O  , TOP_O  , B_SHAPE  },
  80:Core/Src/7Seg.c **** 	{ALL_SEVEN , NONE	, NONE   , ALL_SEVEN},
  81:Core/Src/7Seg.c **** 	{ALL_SEVEN , NONE   , NONE   , ALL_SEVEN},
  82:Core/Src/7Seg.c **** 	{Q_SHAPE   , B_SHAPE, D_SHAPE, P_SHAPE  }
  83:Core/Src/7Seg.c **** };
  84:Core/Src/7Seg.c **** 
  85:Core/Src/7Seg.c **** const int (* numDraws[10])[4][4] = {&zeroDraw, &oneDraw, &twoDraw, &threeDraw, &fourDraw, &fiveDraw
  86:Core/Src/7Seg.c **** 
ARM GAS  C:\Users\Jack2bs\AppData\Local\Temp\ccSjm82b.s 			page 3


  87:Core/Src/7Seg.c **** const int displayAddresses[4][17] = {
  88:Core/Src/7Seg.c ****     {0x30, 0x28, 0x08, 0x10, 0x31, 0x29, 0x09, 0x11, 0x34, 0x32, 0x2a, 0x0a, 0x12, 0x33, 0x2b, 0x0b
  89:Core/Src/7Seg.c ****     {0x38, 0x20, 0x18, 0x00, 0x39, 0x21, 0x19, 0x01, 0x3c, 0x3a, 0x22, 0x1a, 0x02, 0x3b, 0x23, 0x1b
  90:Core/Src/7Seg.c ****     {0x58, 0x50, 0x68, 0x60, 0x59, 0x51, 0x69, 0x61, 0x5c, 0x5a, 0x52, 0x6a, 0x62, 0x5b, 0x53, 0x6b
  91:Core/Src/7Seg.c ****     {0x40, 0x48, 0x70, 0x78, 0x41, 0x49, 0x71, 0x79, 0x44, 0x42, 0x4a, 0x72, 0x7a, 0x43, 0x4b, 0x73
  92:Core/Src/7Seg.c **** };
  93:Core/Src/7Seg.c **** 
  94:Core/Src/7Seg.c **** int lastDisplayState[4][17] = {};
  95:Core/Src/7Seg.c **** 
  96:Core/Src/7Seg.c **** int displayState[4][17] = {};
  97:Core/Src/7Seg.c **** 
  98:Core/Src/7Seg.c **** void updateDisplayCell(int data, int row, int col)
  99:Core/Src/7Seg.c **** {
  30              		.loc 1 99 1 view -0
  31              		.cfi_startproc
  32              		@ args = 0, pretend = 0, frame = 0
  33              		@ frame_needed = 0, uses_anonymous_args = 0
  34              		@ link register save eliminated.
 100:Core/Src/7Seg.c ****     displayState[row][col] = data;
  35              		.loc 1 100 5 view .LVU1
  36              		.loc 1 100 28 is_stmt 0 view .LVU2
  37 0000 01EB0111 		add	r1, r1, r1, lsl #4
  38              	.LVL1:
  39              		.loc 1 100 28 view .LVU3
  40 0004 1144     		add	r1, r1, r2
  41 0006 024B     		ldr	r3, .L2
  42 0008 43F82100 		str	r0, [r3, r1, lsl #2]
 101:Core/Src/7Seg.c **** }
  43              		.loc 1 101 1 view .LVU4
  44 000c 7047     		bx	lr
  45              	.L3:
  46 000e 00BF     		.align	2
  47              	.L2:
  48 0010 00000000 		.word	.LANCHOR0
  49              		.cfi_endproc
  50              	.LFE132:
  52              		.section	.text.updateDisplayWithTime,"ax",%progbits
  53              		.align	1
  54              		.global	updateDisplayWithTime
  55              		.syntax unified
  56              		.thumb
  57              		.thumb_func
  58              		.fpu fpv4-sp-d16
  60              	updateDisplayWithTime:
  61              	.LVL2:
  62              	.LFB133:
 102:Core/Src/7Seg.c **** 
 103:Core/Src/7Seg.c **** void updateDisplayWithTime(int hr, int min)
 104:Core/Src/7Seg.c **** {
  63              		.loc 1 104 1 is_stmt 1 view -0
  64              		.cfi_startproc
  65              		@ args = 0, pretend = 0, frame = 0
  66              		@ frame_needed = 0, uses_anonymous_args = 0
  67              		.loc 1 104 1 is_stmt 0 view .LVU6
  68 0000 F8B5     		push	{r3, r4, r5, r6, r7, lr}
  69              	.LCFI0:
  70              		.cfi_def_cfa_offset 24
ARM GAS  C:\Users\Jack2bs\AppData\Local\Temp\ccSjm82b.s 			page 4


  71              		.cfi_offset 3, -24
  72              		.cfi_offset 4, -20
  73              		.cfi_offset 5, -16
  74              		.cfi_offset 6, -12
  75              		.cfi_offset 7, -8
  76              		.cfi_offset 14, -4
  77 0002 0646     		mov	r6, r0
  78 0004 0D46     		mov	r5, r1
 105:Core/Src/7Seg.c ****     for (int i = 0; i < 4; i++)
  79              		.loc 1 105 5 is_stmt 1 view .LVU7
  80              	.LBB2:
  81              		.loc 1 105 10 view .LVU8
  82              	.LVL3:
  83              		.loc 1 105 14 is_stmt 0 view .LVU9
  84 0006 0027     		movs	r7, #0
  85              		.loc 1 105 5 view .LVU10
  86 0008 14E0     		b	.L5
  87              	.LVL4:
  88              	.L6:
  89              	.LBB3:
  90              	.LBB4:
 106:Core/Src/7Seg.c ****     {
 107:Core/Src/7Seg.c ****         for (int j = 0; j < 4; j++)
 108:Core/Src/7Seg.c ****         {
 109:Core/Src/7Seg.c ****             int data = (*numDraws[hr / 10])[j][i];
  91              		.loc 1 109 13 is_stmt 1 discriminator 3 view .LVU11
  92              		.loc 1 109 38 is_stmt 0 discriminator 3 view .LVU12
  93 000a 464A     		ldr	r2, .L26
  94 000c 82FB0632 		smull	r3, r2, r2, r6
  95 0010 F317     		asrs	r3, r6, #31
  96 0012 C3EBA203 		rsb	r3, r3, r2, asr #2
  97              		.loc 1 109 34 discriminator 3 view .LVU13
  98 0016 444A     		ldr	r2, .L26+4
  99 0018 52F82330 		ldr	r3, [r2, r3, lsl #2]
 100              		.loc 1 109 17 discriminator 3 view .LVU14
 101 001c 07EB8400 		add	r0, r7, r4, lsl #2
 102              	.LVL5:
 110:Core/Src/7Seg.c ****             updateDisplayCell(data, j, i);
 103              		.loc 1 110 13 is_stmt 1 discriminator 3 view .LVU15
 104 0020 3A46     		mov	r2, r7
 105 0022 2146     		mov	r1, r4
 106 0024 53F82000 		ldr	r0, [r3, r0, lsl #2]
 107              	.LVL6:
 108              		.loc 1 110 13 is_stmt 0 discriminator 3 view .LVU16
 109 0028 FFF7FEFF 		bl	updateDisplayCell
 110              	.LVL7:
 111              		.loc 1 110 13 discriminator 3 view .LVU17
 112              	.LBE4:
 107:Core/Src/7Seg.c ****         {
 113              		.loc 1 107 32 is_stmt 1 discriminator 3 view .LVU18
 107:Core/Src/7Seg.c ****         {
 114              		.loc 1 107 33 is_stmt 0 discriminator 3 view .LVU19
 115 002c 0134     		adds	r4, r4, #1
 116              	.LVL8:
 117              	.L7:
 107:Core/Src/7Seg.c ****         {
 118              		.loc 1 107 25 is_stmt 1 discriminator 1 view .LVU20
ARM GAS  C:\Users\Jack2bs\AppData\Local\Temp\ccSjm82b.s 			page 5


 107:Core/Src/7Seg.c ****         {
 119              		.loc 1 107 9 is_stmt 0 discriminator 1 view .LVU21
 120 002e 032C     		cmp	r4, #3
 121 0030 EBDD     		ble	.L6
 122              	.LBE3:
 105:Core/Src/7Seg.c ****     {
 123              		.loc 1 105 28 is_stmt 1 discriminator 2 view .LVU22
 105:Core/Src/7Seg.c ****     {
 124              		.loc 1 105 29 is_stmt 0 discriminator 2 view .LVU23
 125 0032 0137     		adds	r7, r7, #1
 126              	.LVL9:
 127              	.L5:
 105:Core/Src/7Seg.c ****     {
 128              		.loc 1 105 21 is_stmt 1 discriminator 1 view .LVU24
 105:Core/Src/7Seg.c ****     {
 129              		.loc 1 105 5 is_stmt 0 discriminator 1 view .LVU25
 130 0034 032F     		cmp	r7, #3
 131 0036 01DC     		bgt	.L22
 132              	.LBB5:
 107:Core/Src/7Seg.c ****         {
 133              		.loc 1 107 18 view .LVU26
 134 0038 0024     		movs	r4, #0
 135 003a F8E7     		b	.L7
 136              	.L22:
 137              	.LBE5:
 138              	.LBE2:
 139              	.LBB6:
 111:Core/Src/7Seg.c ****         }
 112:Core/Src/7Seg.c ****     }
 113:Core/Src/7Seg.c ****     for (int i = 4; i < 8; i++)
 140              		.loc 1 113 14 view .LVU27
 141 003c 0427     		movs	r7, #4
 142              	.LVL10:
 143              		.loc 1 113 14 view .LVU28
 144 003e 19E0     		b	.L8
 145              	.LVL11:
 146              	.L9:
 147              	.LBB7:
 148              	.LBB8:
 114:Core/Src/7Seg.c ****     {
 115:Core/Src/7Seg.c ****         for (int j = 0; j < 4; j++)
 116:Core/Src/7Seg.c ****         {
 117:Core/Src/7Seg.c ****             int data = (*numDraws[hr % 10])[j][i - 4];
 149              		.loc 1 117 13 is_stmt 1 discriminator 3 view .LVU29
 150              		.loc 1 117 38 is_stmt 0 discriminator 3 view .LVU30
 151 0040 384A     		ldr	r2, .L26
 152 0042 82FB0632 		smull	r3, r2, r2, r6
 153 0046 F317     		asrs	r3, r6, #31
 154 0048 C3EBA203 		rsb	r3, r3, r2, asr #2
 155 004c 03EB8303 		add	r3, r3, r3, lsl #2
 156 0050 A6EB4303 		sub	r3, r6, r3, lsl #1
 157              		.loc 1 117 34 discriminator 3 view .LVU31
 158 0054 344A     		ldr	r2, .L26+4
 159 0056 52F82300 		ldr	r0, [r2, r3, lsl #2]
 160              		.loc 1 117 50 discriminator 3 view .LVU32
 161 005a 3B1F     		subs	r3, r7, #4
 162              		.loc 1 117 17 discriminator 3 view .LVU33
ARM GAS  C:\Users\Jack2bs\AppData\Local\Temp\ccSjm82b.s 			page 6


 163 005c 03EB8403 		add	r3, r3, r4, lsl #2
 164              	.LVL12:
 118:Core/Src/7Seg.c ****             updateDisplayCell(data, j, i);
 165              		.loc 1 118 13 is_stmt 1 discriminator 3 view .LVU34
 166 0060 3A46     		mov	r2, r7
 167 0062 2146     		mov	r1, r4
 168 0064 50F82300 		ldr	r0, [r0, r3, lsl #2]
 169              	.LVL13:
 170              		.loc 1 118 13 is_stmt 0 discriminator 3 view .LVU35
 171 0068 FFF7FEFF 		bl	updateDisplayCell
 172              	.LVL14:
 173              		.loc 1 118 13 discriminator 3 view .LVU36
 174              	.LBE8:
 115:Core/Src/7Seg.c ****         {
 175              		.loc 1 115 32 is_stmt 1 discriminator 3 view .LVU37
 115:Core/Src/7Seg.c ****         {
 176              		.loc 1 115 33 is_stmt 0 discriminator 3 view .LVU38
 177 006c 0134     		adds	r4, r4, #1
 178              	.LVL15:
 179              	.L10:
 115:Core/Src/7Seg.c ****         {
 180              		.loc 1 115 25 is_stmt 1 discriminator 1 view .LVU39
 115:Core/Src/7Seg.c ****         {
 181              		.loc 1 115 9 is_stmt 0 discriminator 1 view .LVU40
 182 006e 032C     		cmp	r4, #3
 183 0070 E6DD     		ble	.L9
 184              	.LBE7:
 113:Core/Src/7Seg.c ****     {
 185              		.loc 1 113 28 is_stmt 1 discriminator 2 view .LVU41
 113:Core/Src/7Seg.c ****     {
 186              		.loc 1 113 29 is_stmt 0 discriminator 2 view .LVU42
 187 0072 0137     		adds	r7, r7, #1
 188              	.LVL16:
 189              	.L8:
 113:Core/Src/7Seg.c ****     {
 190              		.loc 1 113 21 is_stmt 1 discriminator 1 view .LVU43
 113:Core/Src/7Seg.c ****     {
 191              		.loc 1 113 5 is_stmt 0 discriminator 1 view .LVU44
 192 0074 072F     		cmp	r7, #7
 193 0076 01DC     		bgt	.L23
 194              	.LBB9:
 115:Core/Src/7Seg.c ****         {
 195              		.loc 1 115 18 view .LVU45
 196 0078 0024     		movs	r4, #0
 197 007a F8E7     		b	.L10
 198              	.L23:
 199              	.LBE9:
 200              	.LBE6:
 119:Core/Src/7Seg.c ****         }
 120:Core/Src/7Seg.c ****     }
 121:Core/Src/7Seg.c ****     
 122:Core/Src/7Seg.c ****     updateDisplayCell(0x00, 0, 8);
 201              		.loc 1 122 5 is_stmt 1 view .LVU46
 202 007c 0822     		movs	r2, #8
 203 007e 0021     		movs	r1, #0
 204 0080 0846     		mov	r0, r1
 205 0082 FFF7FEFF 		bl	updateDisplayCell
ARM GAS  C:\Users\Jack2bs\AppData\Local\Temp\ccSjm82b.s 			page 7


 206              	.LVL17:
 123:Core/Src/7Seg.c ****     updateDisplayCell(TOP_O, 1, 8);
 207              		.loc 1 123 5 view .LVU47
 208 0086 0822     		movs	r2, #8
 209 0088 0121     		movs	r1, #1
 210 008a 0F20     		movs	r0, #15
 211 008c FFF7FEFF 		bl	updateDisplayCell
 212              	.LVL18:
 124:Core/Src/7Seg.c ****     updateDisplayCell(BOTTOM_O, 2, 8);
 213              		.loc 1 124 5 view .LVU48
 214 0090 0822     		movs	r2, #8
 215 0092 0221     		movs	r1, #2
 216 0094 E220     		movs	r0, #226
 217 0096 FFF7FEFF 		bl	updateDisplayCell
 218              	.LVL19:
 125:Core/Src/7Seg.c ****     updateDisplayCell(0x00, 3, 8);
 219              		.loc 1 125 5 view .LVU49
 220 009a 0822     		movs	r2, #8
 221 009c 0321     		movs	r1, #3
 222 009e 0020     		movs	r0, #0
 223 00a0 FFF7FEFF 		bl	updateDisplayCell
 224              	.LVL20:
 126:Core/Src/7Seg.c **** 
 127:Core/Src/7Seg.c ****     for (int i = 9; i < 13; i++)
 225              		.loc 1 127 5 view .LVU50
 226              	.LBB10:
 227              		.loc 1 127 10 view .LVU51
 228              		.loc 1 127 14 is_stmt 0 view .LVU52
 229 00a4 0926     		movs	r6, #9
 230              	.LVL21:
 231              		.loc 1 127 5 view .LVU53
 232 00a6 16E0     		b	.L11
 233              	.LVL22:
 234              	.L12:
 235              	.LBB11:
 236              	.LBB12:
 128:Core/Src/7Seg.c ****     {
 129:Core/Src/7Seg.c ****         for (int j = 0; j < 4; j++)
 130:Core/Src/7Seg.c ****         {
 131:Core/Src/7Seg.c ****             int data = (*numDraws[min / 10])[j][i - 9];
 237              		.loc 1 131 13 is_stmt 1 discriminator 3 view .LVU54
 238              		.loc 1 131 39 is_stmt 0 discriminator 3 view .LVU55
 239 00a8 1E4A     		ldr	r2, .L26
 240 00aa 82FB0532 		smull	r3, r2, r2, r5
 241 00ae EB17     		asrs	r3, r5, #31
 242 00b0 C3EBA203 		rsb	r3, r3, r2, asr #2
 243              		.loc 1 131 34 discriminator 3 view .LVU56
 244 00b4 1C4A     		ldr	r2, .L26+4
 245 00b6 52F82300 		ldr	r0, [r2, r3, lsl #2]
 246              		.loc 1 131 51 discriminator 3 view .LVU57
 247 00ba A6F10903 		sub	r3, r6, #9
 248              		.loc 1 131 17 discriminator 3 view .LVU58
 249 00be 03EB8403 		add	r3, r3, r4, lsl #2
 250              	.LVL23:
 132:Core/Src/7Seg.c ****             updateDisplayCell(data, j, i);
 251              		.loc 1 132 13 is_stmt 1 discriminator 3 view .LVU59
 252 00c2 3246     		mov	r2, r6
ARM GAS  C:\Users\Jack2bs\AppData\Local\Temp\ccSjm82b.s 			page 8


 253 00c4 2146     		mov	r1, r4
 254 00c6 50F82300 		ldr	r0, [r0, r3, lsl #2]
 255              	.LVL24:
 256              		.loc 1 132 13 is_stmt 0 discriminator 3 view .LVU60
 257 00ca FFF7FEFF 		bl	updateDisplayCell
 258              	.LVL25:
 259              		.loc 1 132 13 discriminator 3 view .LVU61
 260              	.LBE12:
 129:Core/Src/7Seg.c ****         {
 261              		.loc 1 129 32 is_stmt 1 discriminator 3 view .LVU62
 129:Core/Src/7Seg.c ****         {
 262              		.loc 1 129 33 is_stmt 0 discriminator 3 view .LVU63
 263 00ce 0134     		adds	r4, r4, #1
 264              	.LVL26:
 265              	.L13:
 129:Core/Src/7Seg.c ****         {
 266              		.loc 1 129 25 is_stmt 1 discriminator 1 view .LVU64
 129:Core/Src/7Seg.c ****         {
 267              		.loc 1 129 9 is_stmt 0 discriminator 1 view .LVU65
 268 00d0 032C     		cmp	r4, #3
 269 00d2 E9DD     		ble	.L12
 270              	.LBE11:
 127:Core/Src/7Seg.c ****     {
 271              		.loc 1 127 29 is_stmt 1 discriminator 2 view .LVU66
 127:Core/Src/7Seg.c ****     {
 272              		.loc 1 127 30 is_stmt 0 discriminator 2 view .LVU67
 273 00d4 0136     		adds	r6, r6, #1
 274              	.LVL27:
 275              	.L11:
 127:Core/Src/7Seg.c ****     {
 276              		.loc 1 127 21 is_stmt 1 discriminator 1 view .LVU68
 127:Core/Src/7Seg.c ****     {
 277              		.loc 1 127 5 is_stmt 0 discriminator 1 view .LVU69
 278 00d6 0C2E     		cmp	r6, #12
 279 00d8 01DC     		bgt	.L24
 280              	.LBB13:
 129:Core/Src/7Seg.c ****         {
 281              		.loc 1 129 18 view .LVU70
 282 00da 0024     		movs	r4, #0
 283 00dc F8E7     		b	.L13
 284              	.L24:
 285              	.LBE13:
 286              	.LBE10:
 287              	.LBB14:
 133:Core/Src/7Seg.c ****         }
 134:Core/Src/7Seg.c ****     }
 135:Core/Src/7Seg.c ****     for (int i = 13; i < 17; i++)
 288              		.loc 1 135 14 view .LVU71
 289 00de 0D26     		movs	r6, #13
 290              	.LVL28:
 291              		.loc 1 135 14 view .LVU72
 292 00e0 1AE0     		b	.L14
 293              	.LVL29:
 294              	.L15:
 295              	.LBB15:
 296              	.LBB16:
 136:Core/Src/7Seg.c ****     {
ARM GAS  C:\Users\Jack2bs\AppData\Local\Temp\ccSjm82b.s 			page 9


 137:Core/Src/7Seg.c ****         for (int j = 0; j < 4; j++)
 138:Core/Src/7Seg.c ****         {
 139:Core/Src/7Seg.c ****             int data = (*numDraws[min % 10])[j][i - 13];
 297              		.loc 1 139 13 is_stmt 1 discriminator 3 view .LVU73
 298              		.loc 1 139 39 is_stmt 0 discriminator 3 view .LVU74
 299 00e2 104A     		ldr	r2, .L26
 300 00e4 82FB0532 		smull	r3, r2, r2, r5
 301 00e8 EB17     		asrs	r3, r5, #31
 302 00ea C3EBA203 		rsb	r3, r3, r2, asr #2
 303 00ee 03EB8303 		add	r3, r3, r3, lsl #2
 304 00f2 A5EB4303 		sub	r3, r5, r3, lsl #1
 305              		.loc 1 139 34 discriminator 3 view .LVU75
 306 00f6 0C4A     		ldr	r2, .L26+4
 307 00f8 52F82300 		ldr	r0, [r2, r3, lsl #2]
 308              		.loc 1 139 51 discriminator 3 view .LVU76
 309 00fc A6F10D03 		sub	r3, r6, #13
 310              		.loc 1 139 17 discriminator 3 view .LVU77
 311 0100 03EB8403 		add	r3, r3, r4, lsl #2
 312              	.LVL30:
 140:Core/Src/7Seg.c ****             updateDisplayCell(data, j, i);
 313              		.loc 1 140 13 is_stmt 1 discriminator 3 view .LVU78
 314 0104 3246     		mov	r2, r6
 315 0106 2146     		mov	r1, r4
 316 0108 50F82300 		ldr	r0, [r0, r3, lsl #2]
 317              	.LVL31:
 318              		.loc 1 140 13 is_stmt 0 discriminator 3 view .LVU79
 319 010c FFF7FEFF 		bl	updateDisplayCell
 320              	.LVL32:
 321              		.loc 1 140 13 discriminator 3 view .LVU80
 322              	.LBE16:
 137:Core/Src/7Seg.c ****         {
 323              		.loc 1 137 32 is_stmt 1 discriminator 3 view .LVU81
 137:Core/Src/7Seg.c ****         {
 324              		.loc 1 137 33 is_stmt 0 discriminator 3 view .LVU82
 325 0110 0134     		adds	r4, r4, #1
 326              	.LVL33:
 327              	.L16:
 137:Core/Src/7Seg.c ****         {
 328              		.loc 1 137 25 is_stmt 1 discriminator 1 view .LVU83
 137:Core/Src/7Seg.c ****         {
 329              		.loc 1 137 9 is_stmt 0 discriminator 1 view .LVU84
 330 0112 032C     		cmp	r4, #3
 331 0114 E5DD     		ble	.L15
 332              	.LBE15:
 135:Core/Src/7Seg.c ****     {
 333              		.loc 1 135 30 is_stmt 1 discriminator 2 view .LVU85
 135:Core/Src/7Seg.c ****     {
 334              		.loc 1 135 31 is_stmt 0 discriminator 2 view .LVU86
 335 0116 0136     		adds	r6, r6, #1
 336              	.LVL34:
 337              	.L14:
 135:Core/Src/7Seg.c ****     {
 338              		.loc 1 135 22 is_stmt 1 discriminator 1 view .LVU87
 135:Core/Src/7Seg.c ****     {
 339              		.loc 1 135 5 is_stmt 0 discriminator 1 view .LVU88
 340 0118 102E     		cmp	r6, #16
 341 011a 01DC     		bgt	.L25
ARM GAS  C:\Users\Jack2bs\AppData\Local\Temp\ccSjm82b.s 			page 10


 342              	.LBB17:
 137:Core/Src/7Seg.c ****         {
 343              		.loc 1 137 18 view .LVU89
 344 011c 0024     		movs	r4, #0
 345 011e F8E7     		b	.L16
 346              	.L25:
 347              	.LBE17:
 348              	.LBE14:
 141:Core/Src/7Seg.c ****         }
 142:Core/Src/7Seg.c ****     }
 143:Core/Src/7Seg.c **** }
 349              		.loc 1 143 1 view .LVU90
 350 0120 F8BD     		pop	{r3, r4, r5, r6, r7, pc}
 351              	.LVL35:
 352              	.L27:
 353              		.loc 1 143 1 view .LVU91
 354 0122 00BF     		.align	2
 355              	.L26:
 356 0124 67666666 		.word	1717986919
 357 0128 00000000 		.word	.LANCHOR1
 358              		.cfi_endproc
 359              	.LFE133:
 361              		.section	.text.setDisplayCell,"ax",%progbits
 362              		.align	1
 363              		.global	setDisplayCell
 364              		.syntax unified
 365              		.thumb
 366              		.thumb_func
 367              		.fpu fpv4-sp-d16
 369              	setDisplayCell:
 370              	.LVL36:
 371              	.LFB134:
 144:Core/Src/7Seg.c **** 
 145:Core/Src/7Seg.c **** /* This is what will change with different computing units*/
 146:Core/Src/7Seg.c **** void setDisplayCell(int row, int col)
 147:Core/Src/7Seg.c **** {
 372              		.loc 1 147 1 is_stmt 1 view -0
 373              		.cfi_startproc
 374              		@ args = 0, pretend = 0, frame = 0
 375              		@ frame_needed = 0, uses_anonymous_args = 0
 376              		.loc 1 147 1 is_stmt 0 view .LVU93
 377 0000 F8B5     		push	{r3, r4, r5, r6, r7, lr}
 378              	.LCFI1:
 379              		.cfi_def_cfa_offset 24
 380              		.cfi_offset 3, -24
 381              		.cfi_offset 4, -20
 382              		.cfi_offset 5, -16
 383              		.cfi_offset 6, -12
 384              		.cfi_offset 7, -8
 385              		.cfi_offset 14, -4
 148:Core/Src/7Seg.c ****     int pOut = (displayState[row][col] << 8) | ((displayAddresses[row][col] & 0b1110000) << 1) | (d
 386              		.loc 1 148 5 is_stmt 1 view .LVU94
 387              		.loc 1 148 34 is_stmt 0 view .LVU95
 388 0002 00EB0010 		add	r0, r0, r0, lsl #4
 389              	.LVL37:
 390              		.loc 1 148 34 view .LVU96
 391 0006 0144     		add	r1, r1, r0
ARM GAS  C:\Users\Jack2bs\AppData\Local\Temp\ccSjm82b.s 			page 11


 392              	.LVL38:
 393              		.loc 1 148 34 view .LVU97
 394 0008 154B     		ldr	r3, .L30
 395 000a 53F82120 		ldr	r2, [r3, r1, lsl #2]
 396              		.loc 1 148 71 view .LVU98
 397 000e 154B     		ldr	r3, .L30+4
 398 0010 53F82130 		ldr	r3, [r3, r1, lsl #2]
 399              		.loc 1 148 90 view .LVU99
 400 0014 5C00     		lsls	r4, r3, #1
 401 0016 04F0E004 		and	r4, r4, #224
 402              		.loc 1 148 46 view .LVU100
 403 001a 44EA0224 		orr	r4, r4, r2, lsl #8
 404              		.loc 1 148 126 view .LVU101
 405 001e 03F00F03 		and	r3, r3, #15
 406              		.loc 1 148 9 view .LVU102
 407 0022 1C43     		orrs	r4, r4, r3
 408              	.LVL39:
 149:Core/Src/7Seg.c ****     uint16_t pA = pOut & (0b1110011111101111);
 409              		.loc 1 149 5 is_stmt 1 view .LVU103
 410              		.loc 1 149 24 is_stmt 0 view .LVU104
 411 0024 A3B2     		uxth	r3, r4
 412              		.loc 1 149 14 view .LVU105
 413 0026 23F4C052 		bic	r2, r3, #6144
 414              	.LVL40:
 150:Core/Src/7Seg.c **** 	uint16_t pB = pOut & ~(0b1110011111101111);
 415              		.loc 1 150 2 is_stmt 1 view .LVU106
 416              		.loc 1 150 11 is_stmt 0 view .LVU107
 417 002a 41F61007 		movw	r7, #6160
 418 002e 3B40     		ands	r3, r3, r7
 419              	.LVL41:
 151:Core/Src/7Seg.c **** 	GPIOA->ODR = pA;
 420              		.loc 1 151 2 is_stmt 1 view .LVU108
 421              		.loc 1 151 13 is_stmt 0 view .LVU109
 422 0030 4FF09046 		mov	r6, #1207959552
 423 0034 7261     		str	r2, [r6, #20]
 152:Core/Src/7Seg.c **** 	GPIOB->ODR = pB;
 424              		.loc 1 152 2 is_stmt 1 view .LVU110
 425              		.loc 1 152 13 is_stmt 0 view .LVU111
 426 0036 0C4D     		ldr	r5, .L30+8
 427 0038 6B61     		str	r3, [r5, #20]
 153:Core/Src/7Seg.c **** 
 154:Core/Src/7Seg.c ****     HAL_Delay(5);
 428              		.loc 1 154 5 is_stmt 1 view .LVU112
 429 003a 0520     		movs	r0, #5
 430 003c FFF7FEFF 		bl	HAL_Delay
 431              	.LVL42:
 155:Core/Src/7Seg.c **** 
 156:Core/Src/7Seg.c ****     pOut |= (0b1111111);
 432              		.loc 1 156 5 view .LVU113
 433              		.loc 1 156 10 is_stmt 0 view .LVU114
 434 0040 44F07F04 		orr	r4, r4, #127
 435              	.LVL43:
 157:Core/Src/7Seg.c ****     pA = pOut & (0b1110011111101111);
 436              		.loc 1 157 5 is_stmt 1 view .LVU115
 437              		.loc 1 157 15 is_stmt 0 view .LVU116
 438 0044 A4B2     		uxth	r4, r4
 439              	.LVL44:
ARM GAS  C:\Users\Jack2bs\AppData\Local\Temp\ccSjm82b.s 			page 12


 440              		.loc 1 157 8 view .LVU117
 441 0046 24F4C053 		bic	r3, r4, #6144
 442 004a 23F01003 		bic	r3, r3, #16
 443 004e 9BB2     		uxth	r3, r3
 444              	.LVL45:
 158:Core/Src/7Seg.c **** 	pB = pOut & ~(0b1110011111101111);
 445              		.loc 1 158 2 is_stmt 1 view .LVU118
 446              		.loc 1 158 5 is_stmt 0 view .LVU119
 447 0050 3C40     		ands	r4, r4, r7
 448              	.LVL46:
 159:Core/Src/7Seg.c **** 	GPIOA->ODR = pA;
 449              		.loc 1 159 2 is_stmt 1 view .LVU120
 450              		.loc 1 159 13 is_stmt 0 view .LVU121
 451 0052 7361     		str	r3, [r6, #20]
 160:Core/Src/7Seg.c **** 	GPIOB->ODR = pB;
 452              		.loc 1 160 2 is_stmt 1 view .LVU122
 453              		.loc 1 160 13 is_stmt 0 view .LVU123
 454 0054 6C61     		str	r4, [r5, #20]
 161:Core/Src/7Seg.c **** 
 162:Core/Src/7Seg.c ****     HAL_Delay(5);
 455              		.loc 1 162 5 is_stmt 1 view .LVU124
 456 0056 0520     		movs	r0, #5
 457 0058 FFF7FEFF 		bl	HAL_Delay
 458              	.LVL47:
 163:Core/Src/7Seg.c **** }
 459              		.loc 1 163 1 is_stmt 0 view .LVU125
 460 005c F8BD     		pop	{r3, r4, r5, r6, r7, pc}
 461              	.LVL48:
 462              	.L31:
 463              		.loc 1 163 1 view .LVU126
 464 005e 00BF     		.align	2
 465              	.L30:
 466 0060 00000000 		.word	.LANCHOR0
 467 0064 00000000 		.word	.LANCHOR2
 468 0068 00040048 		.word	1207960576
 469              		.cfi_endproc
 470              	.LFE134:
 472              		.section	.text.setDisplay,"ax",%progbits
 473              		.align	1
 474              		.global	setDisplay
 475              		.syntax unified
 476              		.thumb
 477              		.thumb_func
 478              		.fpu fpv4-sp-d16
 480              	setDisplay:
 481              	.LFB135:
 164:Core/Src/7Seg.c **** 
 165:Core/Src/7Seg.c **** void setDisplay()
 166:Core/Src/7Seg.c **** {
 482              		.loc 1 166 1 is_stmt 1 view -0
 483              		.cfi_startproc
 484              		@ args = 0, pretend = 0, frame = 0
 485              		@ frame_needed = 0, uses_anonymous_args = 0
 486 0000 38B5     		push	{r3, r4, r5, lr}
 487              	.LCFI2:
 488              		.cfi_def_cfa_offset 16
 489              		.cfi_offset 3, -16
ARM GAS  C:\Users\Jack2bs\AppData\Local\Temp\ccSjm82b.s 			page 13


 490              		.cfi_offset 4, -12
 491              		.cfi_offset 5, -8
 492              		.cfi_offset 14, -4
 167:Core/Src/7Seg.c ****     for (int i = 0; i < 17; i++)
 493              		.loc 1 167 5 view .LVU128
 494              	.LBB18:
 495              		.loc 1 167 10 view .LVU129
 496              	.LVL49:
 497              		.loc 1 167 14 is_stmt 0 view .LVU130
 498 0002 0025     		movs	r5, #0
 499              		.loc 1 167 5 view .LVU131
 500 0004 10E0     		b	.L33
 501              	.LVL50:
 502              	.L34:
 503              	.LBB19:
 168:Core/Src/7Seg.c ****     {
 169:Core/Src/7Seg.c ****         for (int j = 0; j < 4; j++)
 170:Core/Src/7Seg.c ****         {
 171:Core/Src/7Seg.c ****             //if (displayState[j][i] != lastDisplayState[j][i])
 172:Core/Src/7Seg.c ****             //{
 173:Core/Src/7Seg.c ****                 setDisplayCell(j, i);
 504              		.loc 1 173 17 is_stmt 1 discriminator 3 view .LVU132
 505 0006 2946     		mov	r1, r5
 506 0008 2046     		mov	r0, r4
 507 000a FFF7FEFF 		bl	setDisplayCell
 508              	.LVL51:
 174:Core/Src/7Seg.c ****                 lastDisplayState[j][i] = displayState[j][i];
 509              		.loc 1 174 17 discriminator 3 view .LVU133
 510              		.loc 1 174 57 is_stmt 0 discriminator 3 view .LVU134
 511 000e 04EB0413 		add	r3, r4, r4, lsl #4
 512 0012 2B44     		add	r3, r3, r5
 513 0014 074A     		ldr	r2, .L39
 514 0016 52F82310 		ldr	r1, [r2, r3, lsl #2]
 515              		.loc 1 174 40 discriminator 3 view .LVU135
 516 001a 074A     		ldr	r2, .L39+4
 517 001c 42F82310 		str	r1, [r2, r3, lsl #2]
 169:Core/Src/7Seg.c ****         {
 518              		.loc 1 169 32 is_stmt 1 discriminator 3 view .LVU136
 169:Core/Src/7Seg.c ****         {
 519              		.loc 1 169 33 is_stmt 0 discriminator 3 view .LVU137
 520 0020 0134     		adds	r4, r4, #1
 521              	.LVL52:
 522              	.L35:
 169:Core/Src/7Seg.c ****         {
 523              		.loc 1 169 25 is_stmt 1 discriminator 1 view .LVU138
 169:Core/Src/7Seg.c ****         {
 524              		.loc 1 169 9 is_stmt 0 discriminator 1 view .LVU139
 525 0022 032C     		cmp	r4, #3
 526 0024 EFDD     		ble	.L34
 527              	.LBE19:
 167:Core/Src/7Seg.c ****     {
 528              		.loc 1 167 29 is_stmt 1 discriminator 2 view .LVU140
 167:Core/Src/7Seg.c ****     {
 529              		.loc 1 167 30 is_stmt 0 discriminator 2 view .LVU141
 530 0026 0135     		adds	r5, r5, #1
 531              	.LVL53:
 532              	.L33:
ARM GAS  C:\Users\Jack2bs\AppData\Local\Temp\ccSjm82b.s 			page 14


 167:Core/Src/7Seg.c ****     {
 533              		.loc 1 167 21 is_stmt 1 discriminator 1 view .LVU142
 167:Core/Src/7Seg.c ****     {
 534              		.loc 1 167 5 is_stmt 0 discriminator 1 view .LVU143
 535 0028 102D     		cmp	r5, #16
 536 002a 01DC     		bgt	.L38
 537              	.LBB20:
 169:Core/Src/7Seg.c ****         {
 538              		.loc 1 169 18 view .LVU144
 539 002c 0024     		movs	r4, #0
 540 002e F8E7     		b	.L35
 541              	.L38:
 542              	.LBE20:
 543              	.LBE18:
 175:Core/Src/7Seg.c ****             //}
 176:Core/Src/7Seg.c ****         }
 177:Core/Src/7Seg.c ****     }
 178:Core/Src/7Seg.c ****     return;
 179:Core/Src/7Seg.c **** }...
 544              		.loc 1 179 1 view .LVU145
 545 0030 38BD     		pop	{r3, r4, r5, pc}
 546              	.LVL54:
 547              	.L40:
 548              		.loc 1 179 1 view .LVU146
 549 0032 00BF     		.align	2
 550              	.L39:
 551 0034 00000000 		.word	.LANCHOR0
 552 0038 00000000 		.word	.LANCHOR3
 553              		.cfi_endproc
 554              	.LFE135:
 556              		.global	displayState
 557              		.global	lastDisplayState
 558              		.global	displayAddresses
 559              		.global	numDraws
 560              		.global	zeroDraw
 561              		.global	nineDraw
 562              		.global	eightDraw
 563              		.global	sevenDraw
 564              		.global	sixDraw
 565              		.global	fiveDraw
 566              		.global	fourDraw
 567              		.global	threeDraw
 568              		.global	twoDraw
 569              		.global	oneDraw
 570              		.section	.bss.displayState,"aw",%nobits
 571              		.align	2
 572              		.set	.LANCHOR0,. + 0
 575              	displayState:
 576 0000 00000000 		.space	272
 576      00000000 
 576      00000000 
 576      00000000 
 576      00000000 
 577              		.section	.bss.lastDisplayState,"aw",%nobits
 578              		.align	2
 579              		.set	.LANCHOR3,. + 0
 582              	lastDisplayState:
ARM GAS  C:\Users\Jack2bs\AppData\Local\Temp\ccSjm82b.s 			page 15


 583 0000 00000000 		.space	272
 583      00000000 
 583      00000000 
 583      00000000 
 583      00000000 
 584              		.section	.data.numDraws,"aw"
 585              		.align	2
 586              		.set	.LANCHOR1,. + 0
 589              	numDraws:
 590 0000 00000000 		.word	zeroDraw
 591 0004 00000000 		.word	oneDraw
 592 0008 00000000 		.word	twoDraw
 593 000c 00000000 		.word	threeDraw
 594 0010 00000000 		.word	fourDraw
 595 0014 00000000 		.word	fiveDraw
 596 0018 00000000 		.word	sixDraw
 597 001c 00000000 		.word	sevenDraw
 598 0020 00000000 		.word	eightDraw
 599 0024 00000000 		.word	nineDraw
 600              		.section	.rodata.displayAddresses,"a"
 601              		.align	2
 602              		.set	.LANCHOR2,. + 0
 605              	displayAddresses:
 606 0000 30000000 		.word	48
 607 0004 28000000 		.word	40
 608 0008 08000000 		.word	8
 609 000c 10000000 		.word	16
 610 0010 31000000 		.word	49
 611 0014 29000000 		.word	41
 612 0018 09000000 		.word	9
 613 001c 11000000 		.word	17
 614 0020 34000000 		.word	52
 615 0024 32000000 		.word	50
 616 0028 2A000000 		.word	42
 617 002c 0A000000 		.word	10
 618 0030 12000000 		.word	18
 619 0034 33000000 		.word	51
 620 0038 2B000000 		.word	43
 621 003c 0B000000 		.word	11
 622 0040 13000000 		.word	19
 623 0044 38000000 		.word	56
 624 0048 20000000 		.word	32
 625 004c 18000000 		.word	24
 626 0050 00000000 		.word	0
 627 0054 39000000 		.word	57
 628 0058 21000000 		.word	33
 629 005c 19000000 		.word	25
 630 0060 01000000 		.word	1
 631 0064 3C000000 		.word	60
 632 0068 3A000000 		.word	58
 633 006c 22000000 		.word	34
 634 0070 1A000000 		.word	26
 635 0074 02000000 		.word	2
 636 0078 3B000000 		.word	59
 637 007c 23000000 		.word	35
 638 0080 1B000000 		.word	27
 639 0084 03000000 		.word	3
ARM GAS  C:\Users\Jack2bs\AppData\Local\Temp\ccSjm82b.s 			page 16


 640 0088 58000000 		.word	88
 641 008c 50000000 		.word	80
 642 0090 68000000 		.word	104
 643 0094 60000000 		.word	96
 644 0098 59000000 		.word	89
 645 009c 51000000 		.word	81
 646 00a0 69000000 		.word	105
 647 00a4 61000000 		.word	97
 648 00a8 5C000000 		.word	92
 649 00ac 5A000000 		.word	90
 650 00b0 52000000 		.word	82
 651 00b4 6A000000 		.word	106
 652 00b8 62000000 		.word	98
 653 00bc 5B000000 		.word	91
 654 00c0 53000000 		.word	83
 655 00c4 6B000000 		.word	107
 656 00c8 63000000 		.word	99
 657 00cc 40000000 		.word	64
 658 00d0 48000000 		.word	72
 659 00d4 70000000 		.word	112
 660 00d8 78000000 		.word	120
 661 00dc 41000000 		.word	65
 662 00e0 49000000 		.word	73
 663 00e4 71000000 		.word	113
 664 00e8 79000000 		.word	121
 665 00ec 44000000 		.word	68
 666 00f0 42000000 		.word	66
 667 00f4 4A000000 		.word	74
 668 00f8 72000000 		.word	114
 669 00fc 7A000000 		.word	122
 670 0100 43000000 		.word	67
 671 0104 4B000000 		.word	75
 672 0108 73000000 		.word	115
 673 010c 7B000000 		.word	123
 674              		.section	.rodata.eightDraw,"a"
 675              		.align	2
 678              	eightDraw:
 679 0000 EA000000 		.word	234
 680 0004 0F000000 		.word	15
 681 0008 0F000000 		.word	15
 682 000c E3000000 		.word	227
 683 0010 0F000000 		.word	15
 684 0014 E2000000 		.word	226
 685 0018 E2000000 		.word	226
 686 001c 0F000000 		.word	15
 687 0020 E2000000 		.word	226
 688 0024 0F000000 		.word	15
 689 0028 0F000000 		.word	15
 690 002c E2000000 		.word	226
 691 0030 2F000000 		.word	47
 692 0034 E2000000 		.word	226
 693 0038 E2000000 		.word	226
 694 003c 8F000000 		.word	143
 695              		.section	.rodata.fiveDraw,"a"
 696              		.align	2
 699              	fiveDraw:
 700 0000 EF000000 		.word	239
ARM GAS  C:\Users\Jack2bs\AppData\Local\Temp\ccSjm82b.s 			page 17


 701 0004 0F000000 		.word	15
 702 0008 0F000000 		.word	15
 703 000c 0F000000 		.word	15
 704 0010 EF000000 		.word	239
 705 0014 E2000000 		.word	226
 706 0018 E2000000 		.word	226
 707 001c C0000000 		.word	192
 708 0020 E2000000 		.word	226
 709 0024 00000000 		.word	0
 710 0028 00000000 		.word	0
 711 002c 0F000000 		.word	15
 712 0030 2F000000 		.word	47
 713 0034 E2000000 		.word	226
 714 0038 E2000000 		.word	226
 715 003c 8F000000 		.word	143
 716              		.section	.rodata.fourDraw,"a"
 717              		.align	2
 720              	fourDraw:
 721 0000 00000000 		.word	0
 722 0004 00000000 		.word	0
 723 0008 EA000000 		.word	234
 724 000c EF000000 		.word	239
 725 0010 00000000 		.word	0
 726 0014 EA000000 		.word	234
 727 0018 00000000 		.word	0
 728 001c EF000000 		.word	239
 729 0020 EA000000 		.word	234
 730 0024 E2000000 		.word	226
 731 0028 E2000000 		.word	226
 732 002c EF000000 		.word	239
 733 0030 00000000 		.word	0
 734 0034 00000000 		.word	0
 735 0038 00000000 		.word	0
 736 003c EF000000 		.word	239
 737              		.section	.rodata.nineDraw,"a"
 738              		.align	2
 741              	nineDraw:
 742 0000 EA000000 		.word	234
 743 0004 0F000000 		.word	15
 744 0008 0F000000 		.word	15
 745 000c E3000000 		.word	227
 746 0010 EF000000 		.word	239
 747 0014 00000000 		.word	0
 748 0018 00000000 		.word	0
 749 001c EF000000 		.word	239
 750 0020 0C000000 		.word	12
 751 0024 0F000000 		.word	15
 752 0028 0F000000 		.word	15
 753 002c EF000000 		.word	239
 754 0030 2F000000 		.word	47
 755 0034 E3000000 		.word	227
 756 0038 EA000000 		.word	234
 757 003c 8F000000 		.word	143
 758              		.section	.rodata.oneDraw,"a"
 759              		.align	2
 762              	oneDraw:
 763 0000 00000000 		.word	0
ARM GAS  C:\Users\Jack2bs\AppData\Local\Temp\ccSjm82b.s 			page 18


 764 0004 EA000000 		.word	234
 765 0008 EF000000 		.word	239
 766 000c 00000000 		.word	0
 767 0010 00000000 		.word	0
 768 0014 00000000 		.word	0
 769 0018 EF000000 		.word	239
 770 001c 00000000 		.word	0
 771 0020 00000000 		.word	0
 772 0024 00000000 		.word	0
 773 0028 EF000000 		.word	239
 774 002c 00000000 		.word	0
 775 0030 00000000 		.word	0
 776 0034 E2000000 		.word	226
 777 0038 EF000000 		.word	239
 778 003c E2000000 		.word	226
 779              		.section	.rodata.sevenDraw,"a"
 780              		.align	2
 783              	sevenDraw:
 784 0000 0F000000 		.word	15
 785 0004 0F000000 		.word	15
 786 0008 0F000000 		.word	15
 787 000c EF000000 		.word	239
 788 0010 00000000 		.word	0
 789 0014 00000000 		.word	0
 790 0018 EA000000 		.word	234
 791 001c 00000000 		.word	0
 792 0020 00000000 		.word	0
 793 0024 EF000000 		.word	239
 794 0028 00000000 		.word	0
 795 002c 00000000 		.word	0
 796 0030 00000000 		.word	0
 797 0034 EF000000 		.word	239
 798 0038 00000000 		.word	0
 799 003c 00000000 		.word	0
 800              		.section	.rodata.sixDraw,"a"
 801              		.align	2
 804              	sixDraw:
 805 0000 EA000000 		.word	234
 806 0004 8F000000 		.word	143
 807 0008 2F000000 		.word	47
 808 000c E3000000 		.word	227
 809 0010 EF000000 		.word	239
 810 0014 E2000000 		.word	226
 811 0018 E2000000 		.word	226
 812 001c C0000000 		.word	192
 813 0020 EF000000 		.word	239
 814 0024 00000000 		.word	0
 815 0028 00000000 		.word	0
 816 002c EF000000 		.word	239
 817 0030 2F000000 		.word	47
 818 0034 E2000000 		.word	226
 819 0038 E2000000 		.word	226
 820 003c 8F000000 		.word	143
 821              		.section	.rodata.threeDraw,"a"
 822              		.align	2
 825              	threeDraw:
 826 0000 EA000000 		.word	234
ARM GAS  C:\Users\Jack2bs\AppData\Local\Temp\ccSjm82b.s 			page 19


 827 0004 0F000000 		.word	15
 828 0008 0F000000 		.word	15
 829 000c E3000000 		.word	227
 830 0010 00000000 		.word	0
 831 0014 60000000 		.word	96
 832 0018 E2000000 		.word	226
 833 001c 8F000000 		.word	143
 834 0020 00000000 		.word	0
 835 0024 0C000000 		.word	12
 836 0028 0F000000 		.word	15
 837 002c E3000000 		.word	227
 838 0030 2F000000 		.word	47
 839 0034 E2000000 		.word	226
 840 0038 E2000000 		.word	226
 841 003c 8F000000 		.word	143
 842              		.section	.rodata.twoDraw,"a"
 843              		.align	2
 846              	twoDraw:
 847 0000 E2000000 		.word	226
 848 0004 0F000000 		.word	15
 849 0008 0F000000 		.word	15
 850 000c E2000000 		.word	226
 851 0010 00000000 		.word	0
 852 0014 00000000 		.word	0
 853 0018 EA000000 		.word	234
 854 001c 8F000000 		.word	143
 855 0020 00000000 		.word	0
 856 0024 EA000000 		.word	234
 857 0028 8F000000 		.word	143
 858 002c 00000000 		.word	0
 859 0030 2F000000 		.word	47
 860 0034 E2000000 		.word	226
 861 0038 E2000000 		.word	226
 862 003c 8F000000 		.word	143
 863              		.section	.rodata.zeroDraw,"a"
 864              		.align	2
 867              	zeroDraw:
 868 0000 EA000000 		.word	234
 869 0004 0F000000 		.word	15
 870 0008 0F000000 		.word	15
 871 000c E3000000 		.word	227
 872 0010 EF000000 		.word	239
 873 0014 00000000 		.word	0
 874 0018 00000000 		.word	0
 875 001c EF000000 		.word	239
 876 0020 EF000000 		.word	239
 877 0024 00000000 		.word	0
 878 0028 00000000 		.word	0
 879 002c EF000000 		.word	239
 880 0030 2F000000 		.word	47
 881 0034 E3000000 		.word	227
 882 0038 EA000000 		.word	234
 883 003c 8F000000 		.word	143
 884              		.text
 885              	.Letext0:
 886              		.file 2 "e:\\arm\\10 2020-q4-major\\arm-none-eabi\\include\\machine\\_default_types.h"
 887              		.file 3 "e:\\arm\\10 2020-q4-major\\arm-none-eabi\\include\\sys\\_stdint.h"
ARM GAS  C:\Users\Jack2bs\AppData\Local\Temp\ccSjm82b.s 			page 20


 888              		.file 4 "Drivers/CMSIS/Device/ST/STM32G4xx/Include/stm32g441xx.h"
 889              		.file 5 "Drivers/STM32G4xx_HAL_Driver/Inc/stm32g4xx_hal.h"
ARM GAS  C:\Users\Jack2bs\AppData\Local\Temp\ccSjm82b.s 			page 21

