ARM GAS  C:\Users\jack2\AppData\Local\Temp\ccQDisGo.s 			page 1


   1              		.cpu cortex-m4
   2              		.eabi_attribute 27, 1
   3              		.eabi_attribute 28, 1
   4              		.eabi_attribute 20, 1
   5              		.eabi_attribute 21, 1
   6              		.eabi_attribute 23, 3
   7              		.eabi_attribute 24, 1
   8              		.eabi_attribute 25, 1
   9              		.eabi_attribute 26, 1
  10              		.eabi_attribute 30, 1
  11              		.eabi_attribute 34, 1
  12              		.eabi_attribute 18, 4
  13              		.file	"Lcd.c"
  14              		.text
  15              	.Ltext0:
  16              		.cfi_sections	.debug_frame
  17              		.section	.text.DWT_Delay_Init,"ax",%progbits
  18              		.align	1
  19              		.global	DWT_Delay_Init
  20              		.arch armv7e-m
  21              		.syntax unified
  22              		.thumb
  23              		.thumb_func
  24              		.fpu fpv4-sp-d16
  26              	DWT_Delay_Init:
  27              	.LFB135:
  28              		.file 1 "Core/Src/Lcd.c"
   1:Core/Src/Lcd.c **** #include "Lcd.h"
   2:Core/Src/Lcd.c **** #include "main.h"
   3:Core/Src/Lcd.c **** #include <stm32g441xx.h>
   4:Core/Src/Lcd.c **** #include <stm32g4xx_hal.h>
   5:Core/Src/Lcd.c **** #include <stdarg.h>
   6:Core/Src/Lcd.c **** #include <stdio.h>
   7:Core/Src/Lcd.c **** 
   8:Core/Src/Lcd.c **** 
   9:Core/Src/Lcd.c **** uint8_t displayMode = 0b1000;
  10:Core/Src/Lcd.c **** 
  11:Core/Src/Lcd.c **** uint32_t DWT_Delay_Init(void)
  12:Core/Src/Lcd.c **** {
  29              		.loc 1 12 1 view -0
  30              		.cfi_startproc
  31              		@ args = 0, pretend = 0, frame = 0
  32              		@ frame_needed = 0, uses_anonymous_args = 0
  33              		@ link register save eliminated.
  13:Core/Src/Lcd.c **** 	CoreDebug->DEMCR &= ~CoreDebug_DEMCR_TRCENA_Msk;
  34              		.loc 1 13 2 view .LVU1
  35              		.loc 1 13 19 is_stmt 0 view .LVU2
  36 0000 104B     		ldr	r3, .L4
  37 0002 D3F8FC20 		ldr	r2, [r3, #252]
  38 0006 22F08072 		bic	r2, r2, #16777216
  39 000a C3F8FC20 		str	r2, [r3, #252]
  14:Core/Src/Lcd.c **** 	CoreDebug->DEMCR |= CoreDebug_DEMCR_TRCENA_Msk;
  40              		.loc 1 14 2 is_stmt 1 view .LVU3
  41              		.loc 1 14 19 is_stmt 0 view .LVU4
  42 000e D3F8FC20 		ldr	r2, [r3, #252]
  43 0012 42F08072 		orr	r2, r2, #16777216
  44 0016 C3F8FC20 		str	r2, [r3, #252]
ARM GAS  C:\Users\jack2\AppData\Local\Temp\ccQDisGo.s 			page 2


  15:Core/Src/Lcd.c **** 
  16:Core/Src/Lcd.c **** 	DWT->CTRL &= ~DWT_CTRL_CYCCNTENA_Msk;
  45              		.loc 1 16 2 is_stmt 1 view .LVU5
  46              		.loc 1 16 12 is_stmt 0 view .LVU6
  47 001a A3F55D43 		sub	r3, r3, #56576
  48 001e 1A68     		ldr	r2, [r3]
  49 0020 22F00102 		bic	r2, r2, #1
  50 0024 1A60     		str	r2, [r3]
  17:Core/Src/Lcd.c **** 	DWT->CTRL |= DWT_CTRL_CYCCNTENA_Msk;
  51              		.loc 1 17 2 is_stmt 1 view .LVU7
  52              		.loc 1 17 12 is_stmt 0 view .LVU8
  53 0026 1A68     		ldr	r2, [r3]
  54 0028 42F00102 		orr	r2, r2, #1
  55 002c 1A60     		str	r2, [r3]
  18:Core/Src/Lcd.c **** 
  19:Core/Src/Lcd.c **** 	DWT->CYCCNT = 0;
  56              		.loc 1 19 2 is_stmt 1 view .LVU9
  57              		.loc 1 19 14 is_stmt 0 view .LVU10
  58 002e 0022     		movs	r2, #0
  59 0030 5A60     		str	r2, [r3, #4]
  20:Core/Src/Lcd.c **** 
  21:Core/Src/Lcd.c **** 	__ASM volatile ("NOP");
  60              		.loc 1 21 2 is_stmt 1 view .LVU11
  61              		.syntax unified
  62              	@ 21 "Core/Src/Lcd.c" 1
  63 0032 00BF     		NOP
  64              	@ 0 "" 2
  22:Core/Src/Lcd.c **** 	__ASM volatile ("NOP");
  65              		.loc 1 22 2 view .LVU12
  66              	@ 22 "Core/Src/Lcd.c" 1
  67 0034 00BF     		NOP
  68              	@ 0 "" 2
  23:Core/Src/Lcd.c **** 	__ASM volatile ("NOP");
  69              		.loc 1 23 2 view .LVU13
  70              	@ 23 "Core/Src/Lcd.c" 1
  71 0036 00BF     		NOP
  72              	@ 0 "" 2
  24:Core/Src/Lcd.c **** 
  25:Core/Src/Lcd.c **** 	if(DWT->CYCCNT)
  73              		.loc 1 25 2 view .LVU14
  74              		.loc 1 25 8 is_stmt 0 view .LVU15
  75              		.thumb
  76              		.syntax unified
  77 0038 5B68     		ldr	r3, [r3, #4]
  78              		.loc 1 25 4 view .LVU16
  79 003a 0BB1     		cbz	r3, .L3
  26:Core/Src/Lcd.c **** 	{
  27:Core/Src/Lcd.c **** 		return 0;
  80              		.loc 1 27 10 view .LVU17
  81 003c 1046     		mov	r0, r2
  82 003e 7047     		bx	lr
  83              	.L3:
  28:Core/Src/Lcd.c **** 	}
  29:Core/Src/Lcd.c **** 	else
  30:Core/Src/Lcd.c **** 	{
  31:Core/Src/Lcd.c **** 		return 1;
  84              		.loc 1 31 10 view .LVU18
ARM GAS  C:\Users\jack2\AppData\Local\Temp\ccQDisGo.s 			page 3


  85 0040 0120     		movs	r0, #1
  32:Core/Src/Lcd.c **** 	}
  33:Core/Src/Lcd.c **** 
  34:Core/Src/Lcd.c **** }
  86              		.loc 1 34 1 view .LVU19
  87 0042 7047     		bx	lr
  88              	.L5:
  89              		.align	2
  90              	.L4:
  91 0044 00ED00E0 		.word	-536810240
  92              		.cfi_endproc
  93              	.LFE135:
  95              		.section	.text.DWT_Delay_us,"ax",%progbits
  96              		.align	1
  97              		.global	DWT_Delay_us
  98              		.syntax unified
  99              		.thumb
 100              		.thumb_func
 101              		.fpu fpv4-sp-d16
 103              	DWT_Delay_us:
 104              	.LVL0:
 105              	.LFB136:
  35:Core/Src/Lcd.c **** 
  36:Core/Src/Lcd.c **** void DWT_Delay_us(volatile uint32_t micros)
  37:Core/Src/Lcd.c **** {
 106              		.loc 1 37 1 is_stmt 1 view -0
 107              		.cfi_startproc
 108              		@ args = 0, pretend = 0, frame = 8
 109              		@ frame_needed = 0, uses_anonymous_args = 0
 110              		@ link register save eliminated.
 111              		.loc 1 37 1 is_stmt 0 view .LVU21
 112 0000 82B0     		sub	sp, sp, #8
 113              		.cfi_def_cfa_offset 8
 114 0002 0190     		str	r0, [sp, #4]
  38:Core/Src/Lcd.c **** 	uint32_t iniTicks = DWT->CYCCNT;
 115              		.loc 1 38 2 is_stmt 1 view .LVU22
 116              		.loc 1 38 11 is_stmt 0 view .LVU23
 117 0004 074B     		ldr	r3, .L9
 118 0006 5968     		ldr	r1, [r3, #4]
 119              	.LVL1:
  39:Core/Src/Lcd.c **** 	uint32_t ticks = 100000000 / 1000000;
 120              		.loc 1 39 2 is_stmt 1 view .LVU24
  40:Core/Src/Lcd.c **** 	micros *= ticks;
 121              		.loc 1 40 2 view .LVU25
 122              		.loc 1 40 9 is_stmt 0 view .LVU26
 123 0008 019B     		ldr	r3, [sp, #4]
 124 000a 6422     		movs	r2, #100
 125 000c 02FB03F3 		mul	r3, r2, r3
 126 0010 0193     		str	r3, [sp, #4]
  41:Core/Src/Lcd.c **** 	while((DWT->CYCCNT - iniTicks) < micros - ticks);
 127              		.loc 1 41 2 is_stmt 1 view .LVU27
 128              	.L7:
 129              		.loc 1 41 50 discriminator 1 view .LVU28
 130              		.loc 1 41 7 discriminator 1 view .LVU29
 131              		.loc 1 41 12 is_stmt 0 discriminator 1 view .LVU30
 132 0012 044B     		ldr	r3, .L9
 133 0014 5A68     		ldr	r2, [r3, #4]
ARM GAS  C:\Users\jack2\AppData\Local\Temp\ccQDisGo.s 			page 4


 134              		.loc 1 41 21 discriminator 1 view .LVU31
 135 0016 521A     		subs	r2, r2, r1
 136              		.loc 1 41 42 discriminator 1 view .LVU32
 137 0018 019B     		ldr	r3, [sp, #4]
 138 001a 643B     		subs	r3, r3, #100
 139              		.loc 1 41 7 discriminator 1 view .LVU33
 140 001c 9A42     		cmp	r2, r3
 141 001e F8D3     		bcc	.L7
  42:Core/Src/Lcd.c **** }
 142              		.loc 1 42 1 view .LVU34
 143 0020 02B0     		add	sp, sp, #8
 144              		.cfi_def_cfa_offset 0
 145              		@ sp needed
 146 0022 7047     		bx	lr
 147              	.L10:
 148              		.align	2
 149              	.L9:
 150 0024 001000E0 		.word	-536866816
 151              		.cfi_endproc
 152              	.LFE136:
 154              		.section	.text.DWT_Delay_ms,"ax",%progbits
 155              		.align	1
 156              		.global	DWT_Delay_ms
 157              		.syntax unified
 158              		.thumb
 159              		.thumb_func
 160              		.fpu fpv4-sp-d16
 162              	DWT_Delay_ms:
 163              	.LVL2:
 164              	.LFB137:
  43:Core/Src/Lcd.c **** 
  44:Core/Src/Lcd.c **** void DWT_Delay_ms(volatile uint32_t millis)
  45:Core/Src/Lcd.c **** {
 165              		.loc 1 45 1 is_stmt 1 view -0
 166              		.cfi_startproc
 167              		@ args = 0, pretend = 0, frame = 8
 168              		@ frame_needed = 0, uses_anonymous_args = 0
 169              		@ link register save eliminated.
 170              		.loc 1 45 1 is_stmt 0 view .LVU36
 171 0000 82B0     		sub	sp, sp, #8
 172              		.cfi_def_cfa_offset 8
 173 0002 0190     		str	r0, [sp, #4]
  46:Core/Src/Lcd.c **** 	uint32_t iniTicks = DWT->CYCCNT;
 174              		.loc 1 46 2 is_stmt 1 view .LVU37
 175              		.loc 1 46 11 is_stmt 0 view .LVU38
 176 0004 074B     		ldr	r3, .L14
 177 0006 5968     		ldr	r1, [r3, #4]
 178              	.LVL3:
  47:Core/Src/Lcd.c **** 	uint32_t ticks = 100000000 / 1000;
 179              		.loc 1 47 2 is_stmt 1 view .LVU39
  48:Core/Src/Lcd.c **** 	millis *= ticks;
 180              		.loc 1 48 2 view .LVU40
 181              		.loc 1 48 9 is_stmt 0 view .LVU41
 182 0008 019B     		ldr	r3, [sp, #4]
 183 000a 074A     		ldr	r2, .L14+4
 184 000c 02FB03F3 		mul	r3, r2, r3
 185 0010 0193     		str	r3, [sp, #4]
ARM GAS  C:\Users\jack2\AppData\Local\Temp\ccQDisGo.s 			page 5


  49:Core/Src/Lcd.c **** 	while((DWT->CYCCNT - iniTicks) < millis);
 186              		.loc 1 49 2 is_stmt 1 view .LVU42
 187              	.L12:
 188              		.loc 1 49 42 discriminator 1 view .LVU43
 189              		.loc 1 49 7 discriminator 1 view .LVU44
 190              		.loc 1 49 12 is_stmt 0 discriminator 1 view .LVU45
 191 0012 044B     		ldr	r3, .L14
 192 0014 5B68     		ldr	r3, [r3, #4]
 193              		.loc 1 49 21 discriminator 1 view .LVU46
 194 0016 5B1A     		subs	r3, r3, r1
 195              		.loc 1 49 33 discriminator 1 view .LVU47
 196 0018 019A     		ldr	r2, [sp, #4]
 197              		.loc 1 49 7 discriminator 1 view .LVU48
 198 001a 9342     		cmp	r3, r2
 199 001c F9D3     		bcc	.L12
  50:Core/Src/Lcd.c **** }
 200              		.loc 1 50 1 view .LVU49
 201 001e 02B0     		add	sp, sp, #8
 202              		.cfi_def_cfa_offset 0
 203              		@ sp needed
 204 0020 7047     		bx	lr
 205              	.L15:
 206 0022 00BF     		.align	2
 207              	.L14:
 208 0024 001000E0 		.word	-536866816
 209 0028 A0860100 		.word	100000
 210              		.cfi_endproc
 211              	.LFE137:
 213              		.section	.text.setE,"ax",%progbits
 214              		.align	1
 215              		.global	setE
 216              		.syntax unified
 217              		.thumb
 218              		.thumb_func
 219              		.fpu fpv4-sp-d16
 221              	setE:
 222              	.LVL4:
 223              	.LFB138:
  51:Core/Src/Lcd.c **** 
  52:Core/Src/Lcd.c **** void setE(uint8_t sOrC)
  53:Core/Src/Lcd.c **** {
 224              		.loc 1 53 1 is_stmt 1 view -0
 225              		.cfi_startproc
 226              		@ args = 0, pretend = 0, frame = 0
 227              		@ frame_needed = 0, uses_anonymous_args = 0
 228              		@ link register save eliminated.
  54:Core/Src/Lcd.c **** 	uint32_t ePortOut;
 229              		.loc 1 54 2 view .LVU51
  55:Core/Src/Lcd.c **** 	ePortOut = E_PORT->ODR;
 230              		.loc 1 55 2 view .LVU52
 231              		.loc 1 55 11 is_stmt 0 view .LVU53
 232 0000 054B     		ldr	r3, .L19
 233 0002 5B69     		ldr	r3, [r3, #20]
 234              	.LVL5:
  56:Core/Src/Lcd.c **** 
  57:Core/Src/Lcd.c **** 	if (sOrC)
 235              		.loc 1 57 2 is_stmt 1 view .LVU54
ARM GAS  C:\Users\jack2\AppData\Local\Temp\ccQDisGo.s 			page 6


 236              		.loc 1 57 5 is_stmt 0 view .LVU55
 237 0004 20B1     		cbz	r0, .L17
  58:Core/Src/Lcd.c **** 	{
  59:Core/Src/Lcd.c **** 		ePortOut |= (1<<E_PIN);
 238              		.loc 1 59 3 is_stmt 1 view .LVU56
 239              		.loc 1 59 12 is_stmt 0 view .LVU57
 240 0006 43F00403 		orr	r3, r3, #4
 241              	.LVL6:
 242              	.L18:
  60:Core/Src/Lcd.c **** 	}
  61:Core/Src/Lcd.c **** 	else
  62:Core/Src/Lcd.c **** 	{
  63:Core/Src/Lcd.c **** 		ePortOut &= ~(1<<E_PIN);
  64:Core/Src/Lcd.c **** 	}
  65:Core/Src/Lcd.c **** 
  66:Core/Src/Lcd.c **** 	E_PORT->ODR = ePortOut;
 243              		.loc 1 66 2 is_stmt 1 view .LVU58
 244              		.loc 1 66 14 is_stmt 0 view .LVU59
 245 000a 034A     		ldr	r2, .L19
 246 000c 5361     		str	r3, [r2, #20]
  67:Core/Src/Lcd.c **** }
 247              		.loc 1 67 1 view .LVU60
 248 000e 7047     		bx	lr
 249              	.L17:
  63:Core/Src/Lcd.c **** 	}
 250              		.loc 1 63 3 is_stmt 1 view .LVU61
  63:Core/Src/Lcd.c **** 	}
 251              		.loc 1 63 12 is_stmt 0 view .LVU62
 252 0010 23F00403 		bic	r3, r3, #4
 253              	.LVL7:
  63:Core/Src/Lcd.c **** 	}
 254              		.loc 1 63 12 view .LVU63
 255 0014 F9E7     		b	.L18
 256              	.L20:
 257 0016 00BF     		.align	2
 258              	.L19:
 259 0018 00040048 		.word	1207960576
 260              		.cfi_endproc
 261              	.LFE138:
 263              		.section	.text.setRW,"ax",%progbits
 264              		.align	1
 265              		.global	setRW
 266              		.syntax unified
 267              		.thumb
 268              		.thumb_func
 269              		.fpu fpv4-sp-d16
 271              	setRW:
 272              	.LVL8:
 273              	.LFB139:
  68:Core/Src/Lcd.c **** 
  69:Core/Src/Lcd.c **** void setRW(uint8_t sOrC)
  70:Core/Src/Lcd.c **** {
 274              		.loc 1 70 1 is_stmt 1 view -0
 275              		.cfi_startproc
 276              		@ args = 0, pretend = 0, frame = 0
 277              		@ frame_needed = 0, uses_anonymous_args = 0
 278              		@ link register save eliminated.
ARM GAS  C:\Users\jack2\AppData\Local\Temp\ccQDisGo.s 			page 7


  71:Core/Src/Lcd.c **** 	uint16_t rWPortOut;
 279              		.loc 1 71 2 view .LVU65
  72:Core/Src/Lcd.c **** 	rWPortOut = RW_PORT->ODR;
 280              		.loc 1 72 2 view .LVU66
 281              		.loc 1 72 21 is_stmt 0 view .LVU67
 282 0000 064B     		ldr	r3, .L24
 283 0002 5B69     		ldr	r3, [r3, #20]
 284              		.loc 1 72 12 view .LVU68
 285 0004 9BB2     		uxth	r3, r3
 286              	.LVL9:
  73:Core/Src/Lcd.c **** 
  74:Core/Src/Lcd.c **** 	if (sOrC)
 287              		.loc 1 74 2 is_stmt 1 view .LVU69
 288              		.loc 1 74 5 is_stmt 0 view .LVU70
 289 0006 20B1     		cbz	r0, .L22
  75:Core/Src/Lcd.c **** 	{
  76:Core/Src/Lcd.c **** 		rWPortOut |= (1<<RW_PIN);
 290              		.loc 1 76 3 is_stmt 1 view .LVU71
 291              		.loc 1 76 13 is_stmt 0 view .LVU72
 292 0008 43F00103 		orr	r3, r3, #1
 293              	.LVL10:
 294              	.L23:
  77:Core/Src/Lcd.c **** 	}
  78:Core/Src/Lcd.c **** 	else
  79:Core/Src/Lcd.c **** 	{
  80:Core/Src/Lcd.c **** 		rWPortOut &= ~(1<<RW_PIN);
  81:Core/Src/Lcd.c **** 	}
  82:Core/Src/Lcd.c **** 
  83:Core/Src/Lcd.c **** 	RW_PORT->ODR = rWPortOut;
 295              		.loc 1 83 2 is_stmt 1 view .LVU73
 296              		.loc 1 83 15 is_stmt 0 view .LVU74
 297 000c 034A     		ldr	r2, .L24
 298 000e 5361     		str	r3, [r2, #20]
  84:Core/Src/Lcd.c **** }
 299              		.loc 1 84 1 view .LVU75
 300 0010 7047     		bx	lr
 301              	.L22:
  80:Core/Src/Lcd.c **** 	}
 302              		.loc 1 80 3 is_stmt 1 view .LVU76
  80:Core/Src/Lcd.c **** 	}
 303              		.loc 1 80 13 is_stmt 0 view .LVU77
 304 0012 23F00103 		bic	r3, r3, #1
 305              	.LVL11:
  80:Core/Src/Lcd.c **** 	}
 306              		.loc 1 80 13 view .LVU78
 307 0016 9BB2     		uxth	r3, r3
 308              	.LVL12:
  80:Core/Src/Lcd.c **** 	}
 309              		.loc 1 80 13 view .LVU79
 310 0018 F8E7     		b	.L23
 311              	.L25:
 312 001a 00BF     		.align	2
 313              	.L24:
 314 001c 00040048 		.word	1207960576
 315              		.cfi_endproc
 316              	.LFE139:
 318              		.section	.text.setRS,"ax",%progbits
ARM GAS  C:\Users\jack2\AppData\Local\Temp\ccQDisGo.s 			page 8


 319              		.align	1
 320              		.global	setRS
 321              		.syntax unified
 322              		.thumb
 323              		.thumb_func
 324              		.fpu fpv4-sp-d16
 326              	setRS:
 327              	.LVL13:
 328              	.LFB140:
  85:Core/Src/Lcd.c **** 
  86:Core/Src/Lcd.c **** void setRS(uint8_t sOrC)
  87:Core/Src/Lcd.c **** {
 329              		.loc 1 87 1 is_stmt 1 view -0
 330              		.cfi_startproc
 331              		@ args = 0, pretend = 0, frame = 0
 332              		@ frame_needed = 0, uses_anonymous_args = 0
 333              		@ link register save eliminated.
  88:Core/Src/Lcd.c **** 	uint16_t rSPortOut;
 334              		.loc 1 88 2 view .LVU81
  89:Core/Src/Lcd.c **** 	rSPortOut = RS_PORT->ODR;
 335              		.loc 1 89 2 view .LVU82
 336              		.loc 1 89 21 is_stmt 0 view .LVU83
 337 0000 064B     		ldr	r3, .L29
 338 0002 5B69     		ldr	r3, [r3, #20]
 339              		.loc 1 89 12 view .LVU84
 340 0004 9BB2     		uxth	r3, r3
 341              	.LVL14:
  90:Core/Src/Lcd.c **** 
  91:Core/Src/Lcd.c **** 	if (sOrC)
 342              		.loc 1 91 2 is_stmt 1 view .LVU85
 343              		.loc 1 91 5 is_stmt 0 view .LVU86
 344 0006 20B1     		cbz	r0, .L27
  92:Core/Src/Lcd.c **** 	{
  93:Core/Src/Lcd.c **** 		rSPortOut |= (1<<RS_PIN);
 345              		.loc 1 93 3 is_stmt 1 view .LVU87
 346              		.loc 1 93 13 is_stmt 0 view .LVU88
 347 0008 43F00203 		orr	r3, r3, #2
 348              	.LVL15:
 349              	.L28:
  94:Core/Src/Lcd.c **** 	}
  95:Core/Src/Lcd.c **** 	else
  96:Core/Src/Lcd.c **** 	{
  97:Core/Src/Lcd.c **** 		rSPortOut &= ~(1<<RS_PIN);
  98:Core/Src/Lcd.c **** 	}
  99:Core/Src/Lcd.c **** 
 100:Core/Src/Lcd.c **** 	RS_PORT->ODR = rSPortOut;
 350              		.loc 1 100 2 is_stmt 1 view .LVU89
 351              		.loc 1 100 15 is_stmt 0 view .LVU90
 352 000c 034A     		ldr	r2, .L29
 353 000e 5361     		str	r3, [r2, #20]
 101:Core/Src/Lcd.c **** }
 354              		.loc 1 101 1 view .LVU91
 355 0010 7047     		bx	lr
 356              	.L27:
  97:Core/Src/Lcd.c **** 	}
 357              		.loc 1 97 3 is_stmt 1 view .LVU92
  97:Core/Src/Lcd.c **** 	}
ARM GAS  C:\Users\jack2\AppData\Local\Temp\ccQDisGo.s 			page 9


 358              		.loc 1 97 13 is_stmt 0 view .LVU93
 359 0012 23F00203 		bic	r3, r3, #2
 360              	.LVL16:
  97:Core/Src/Lcd.c **** 	}
 361              		.loc 1 97 13 view .LVU94
 362 0016 9BB2     		uxth	r3, r3
 363              	.LVL17:
  97:Core/Src/Lcd.c **** 	}
 364              		.loc 1 97 13 view .LVU95
 365 0018 F8E7     		b	.L28
 366              	.L30:
 367 001a 00BF     		.align	2
 368              	.L29:
 369 001c 00040048 		.word	1207960576
 370              		.cfi_endproc
 371              	.LFE140:
 373              		.section	.text.sendNibble,"ax",%progbits
 374              		.align	1
 375              		.global	sendNibble
 376              		.syntax unified
 377              		.thumb
 378              		.thumb_func
 379              		.fpu fpv4-sp-d16
 381              	sendNibble:
 382              	.LVL18:
 383              	.LFB141:
 102:Core/Src/Lcd.c **** 
 103:Core/Src/Lcd.c **** 
 104:Core/Src/Lcd.c **** #ifndef FOUR_BIT_OPERATION
 105:Core/Src/Lcd.c **** 
 106:Core/Src/Lcd.c **** void sendByte(uint8_t byte)
 107:Core/Src/Lcd.c **** {
 108:Core/Src/Lcd.c **** 	uint16_t portOut;
 109:Core/Src/Lcd.c **** 	portOut = DATA_PORT->ODR;
 110:Core/Src/Lcd.c **** 
 111:Core/Src/Lcd.c **** 	portOut &= ~(1 << DB4) & ~(1<<DB5) & ~(1<<DB6) & ~(1<<DB7) & 
 112:Core/Src/Lcd.c **** 		~(1 << DB0) & ~(1<<DB1) & ~(1<<DB2) & ~(1<<DB3); 
 113:Core/Src/Lcd.c **** 
 114:Core/Src/Lcd.c **** 	portOut |= (byte >> 0 & 0b1) << DB0;
 115:Core/Src/Lcd.c **** 	portOut |= (byte >> 1 & 0b1) << DB1;
 116:Core/Src/Lcd.c **** 	portOut |= (byte >> 2 & 0b1) << DB2;
 117:Core/Src/Lcd.c **** 	portOut |= (byte >> 3 & 0b1) << DB3;
 118:Core/Src/Lcd.c **** 	portOut |= (byte >> 4 & 0b1) << DB4;
 119:Core/Src/Lcd.c **** 	portOut |= (byte >> 5 & 0b1) << DB5;
 120:Core/Src/Lcd.c **** 	portOut |= (byte >> 6 & 0b1) << DB6;
 121:Core/Src/Lcd.c **** 	portOut |= (byte >> 7 & 0b1) << DB7;
 122:Core/Src/Lcd.c **** 
 123:Core/Src/Lcd.c **** 	DATA_PORT->ODR = portOut;
 124:Core/Src/Lcd.c **** 
 125:Core/Src/Lcd.c **** 	setE(0);
 126:Core/Src/Lcd.c **** 	setE(1);
 127:Core/Src/Lcd.c **** 	setE(0);
 128:Core/Src/Lcd.c **** }
 129:Core/Src/Lcd.c **** 
 130:Core/Src/Lcd.c **** #else
 131:Core/Src/Lcd.c **** 
 132:Core/Src/Lcd.c **** void sendNibble(uint8_t nibble)
ARM GAS  C:\Users\jack2\AppData\Local\Temp\ccQDisGo.s 			page 10


 133:Core/Src/Lcd.c **** {
 384              		.loc 1 133 1 is_stmt 1 view -0
 385              		.cfi_startproc
 386              		@ args = 0, pretend = 0, frame = 0
 387              		@ frame_needed = 0, uses_anonymous_args = 0
 388              		@ link register save eliminated.
 134:Core/Src/Lcd.c **** 	uint16_t portOut;
 389              		.loc 1 134 2 view .LVU97
 135:Core/Src/Lcd.c **** 	portOut = DATA_PORT->ODR;
 390              		.loc 1 135 2 view .LVU98
 391              		.loc 1 135 21 is_stmt 0 view .LVU99
 392 0000 0D4A     		ldr	r2, .L32
 393 0002 5369     		ldr	r3, [r2, #20]
 394              		.loc 1 135 10 view .LVU100
 395 0004 9BB2     		uxth	r3, r3
 396              	.LVL19:
 136:Core/Src/Lcd.c **** 
 137:Core/Src/Lcd.c **** 	nibble = ((nibble << 4 ) >> 4);
 397              		.loc 1 137 2 is_stmt 1 view .LVU101
 138:Core/Src/Lcd.c **** 
 139:Core/Src/Lcd.c **** 	portOut &= ~(1 << DB4) & ~(1<<DB5) & ~(1<<DB6) & ~(1<<DB7);
 398              		.loc 1 139 2 view .LVU102
 399              		.loc 1 139 10 is_stmt 0 view .LVU103
 400 0006 23F07803 		bic	r3, r3, #120
 401              	.LVL20:
 140:Core/Src/Lcd.c **** 
 141:Core/Src/Lcd.c **** 	portOut |= (nibble & 0b1) << DB4;
 402              		.loc 1 141 2 is_stmt 1 view .LVU104
 403              		.loc 1 141 28 is_stmt 0 view .LVU105
 404 000a C100     		lsls	r1, r0, #3
 405 000c 01F00801 		and	r1, r1, #8
 406              		.loc 1 141 10 view .LVU106
 407 0010 0B43     		orrs	r3, r3, r1
 408              	.LVL21:
 409              		.loc 1 141 10 view .LVU107
 410 0012 1BB2     		sxth	r3, r3
 411              	.LVL22:
 142:Core/Src/Lcd.c **** 	portOut |= (nibble >> 1 & 0b1) << DB5;
 412              		.loc 1 142 2 is_stmt 1 view .LVU108
 413              		.loc 1 142 33 is_stmt 0 view .LVU109
 414 0014 4108     		lsrs	r1, r0, #1
 415 0016 0901     		lsls	r1, r1, #4
 416 0018 01F01001 		and	r1, r1, #16
 417              		.loc 1 142 10 view .LVU110
 418 001c 0B43     		orrs	r3, r3, r1
 419              	.LVL23:
 143:Core/Src/Lcd.c **** 	portOut |= (nibble >> 2 & 0b1) << DB6;
 420              		.loc 1 143 2 is_stmt 1 view .LVU111
 421              		.loc 1 143 33 is_stmt 0 view .LVU112
 422 001e 8108     		lsrs	r1, r0, #2
 423 0020 4901     		lsls	r1, r1, #5
 424 0022 01F02001 		and	r1, r1, #32
 425              		.loc 1 143 10 view .LVU113
 426 0026 0B43     		orrs	r3, r3, r1
 427              	.LVL24:
 144:Core/Src/Lcd.c **** 	portOut |= (nibble >> 3 & 0b1) << DB7;
 428              		.loc 1 144 2 is_stmt 1 view .LVU114
ARM GAS  C:\Users\jack2\AppData\Local\Temp\ccQDisGo.s 			page 11


 429              		.loc 1 144 33 is_stmt 0 view .LVU115
 430 0028 C008     		lsrs	r0, r0, #3
 431              	.LVL25:
 432              		.loc 1 144 33 view .LVU116
 433 002a 8001     		lsls	r0, r0, #6
 434 002c 00F04000 		and	r0, r0, #64
 435              		.loc 1 144 10 view .LVU117
 436 0030 0343     		orrs	r3, r3, r0
 437              	.LVL26:
 438              		.loc 1 144 10 view .LVU118
 439 0032 9BB2     		uxth	r3, r3
 440              	.LVL27:
 145:Core/Src/Lcd.c **** 
 146:Core/Src/Lcd.c **** 	DATA_PORT->ODR = portOut;
 441              		.loc 1 146 2 is_stmt 1 view .LVU119
 442              		.loc 1 146 17 is_stmt 0 view .LVU120
 443 0034 5361     		str	r3, [r2, #20]
 147:Core/Src/Lcd.c **** 
 148:Core/Src/Lcd.c **** }
 444              		.loc 1 148 1 view .LVU121
 445 0036 7047     		bx	lr
 446              	.L33:
 447              		.align	2
 448              	.L32:
 449 0038 00040048 		.word	1207960576
 450              		.cfi_endproc
 451              	.LFE141:
 453              		.section	.text.sendByte,"ax",%progbits
 454              		.align	1
 455              		.global	sendByte
 456              		.syntax unified
 457              		.thumb
 458              		.thumb_func
 459              		.fpu fpv4-sp-d16
 461              	sendByte:
 462              	.LVL28:
 463              	.LFB142:
 149:Core/Src/Lcd.c **** 
 150:Core/Src/Lcd.c **** void sendByte(uint8_t data)
 151:Core/Src/Lcd.c **** {
 464              		.loc 1 151 1 is_stmt 1 view -0
 465              		.cfi_startproc
 466              		@ args = 0, pretend = 0, frame = 0
 467              		@ frame_needed = 0, uses_anonymous_args = 0
 468              		.loc 1 151 1 is_stmt 0 view .LVU123
 469 0000 10B5     		push	{r4, lr}
 470              		.cfi_def_cfa_offset 8
 471              		.cfi_offset 4, -8
 472              		.cfi_offset 14, -4
 473 0002 0446     		mov	r4, r0
 152:Core/Src/Lcd.c **** 
 153:Core/Src/Lcd.c **** 	sendNibble(data >> 4);
 474              		.loc 1 153 2 is_stmt 1 view .LVU124
 475 0004 0009     		lsrs	r0, r0, #4
 476              	.LVL29:
 477              		.loc 1 153 2 is_stmt 0 view .LVU125
 478 0006 FFF7FEFF 		bl	sendNibble
ARM GAS  C:\Users\jack2\AppData\Local\Temp\ccQDisGo.s 			page 12


 479              	.LVL30:
 154:Core/Src/Lcd.c **** 
 155:Core/Src/Lcd.c **** 	setE(0);
 480              		.loc 1 155 2 is_stmt 1 view .LVU126
 481 000a 0020     		movs	r0, #0
 482 000c FFF7FEFF 		bl	setE
 483              	.LVL31:
 156:Core/Src/Lcd.c **** 	setE(1);
 484              		.loc 1 156 2 view .LVU127
 485 0010 0120     		movs	r0, #1
 486 0012 FFF7FEFF 		bl	setE
 487              	.LVL32:
 157:Core/Src/Lcd.c **** 	setE(0);
 488              		.loc 1 157 2 view .LVU128
 489 0016 0020     		movs	r0, #0
 490 0018 FFF7FEFF 		bl	setE
 491              	.LVL33:
 158:Core/Src/Lcd.c **** 
 159:Core/Src/Lcd.c **** 	DWT_Delay_us(300);
 492              		.loc 1 159 2 view .LVU129
 493 001c 4FF49670 		mov	r0, #300
 494 0020 FFF7FEFF 		bl	DWT_Delay_us
 495              	.LVL34:
 160:Core/Src/Lcd.c **** 
 161:Core/Src/Lcd.c **** 	sendNibble(data);
 496              		.loc 1 161 2 view .LVU130
 497 0024 2046     		mov	r0, r4
 498 0026 FFF7FEFF 		bl	sendNibble
 499              	.LVL35:
 162:Core/Src/Lcd.c **** 
 163:Core/Src/Lcd.c **** 	setE(0);
 500              		.loc 1 163 2 view .LVU131
 501 002a 0020     		movs	r0, #0
 502 002c FFF7FEFF 		bl	setE
 503              	.LVL36:
 164:Core/Src/Lcd.c **** 	setE(1);
 504              		.loc 1 164 2 view .LVU132
 505 0030 0120     		movs	r0, #1
 506 0032 FFF7FEFF 		bl	setE
 507              	.LVL37:
 165:Core/Src/Lcd.c **** 	setE(0);
 508              		.loc 1 165 2 view .LVU133
 509 0036 0020     		movs	r0, #0
 510 0038 FFF7FEFF 		bl	setE
 511              	.LVL38:
 166:Core/Src/Lcd.c **** 
 167:Core/Src/Lcd.c **** 	DWT_Delay_us(300);
 512              		.loc 1 167 2 view .LVU134
 513 003c 4FF49670 		mov	r0, #300
 514 0040 FFF7FEFF 		bl	DWT_Delay_us
 515              	.LVL39:
 168:Core/Src/Lcd.c **** 
 169:Core/Src/Lcd.c **** }
 516              		.loc 1 169 1 is_stmt 0 view .LVU135
 517 0044 10BD     		pop	{r4, pc}
 518              		.cfi_endproc
 519              	.LFE142:
ARM GAS  C:\Users\jack2\AppData\Local\Temp\ccQDisGo.s 			page 13


 521              		.section	.text.isBusy,"ax",%progbits
 522              		.align	1
 523              		.global	isBusy
 524              		.syntax unified
 525              		.thumb
 526              		.thumb_func
 527              		.fpu fpv4-sp-d16
 529              	isBusy:
 530              	.LFB143:
 170:Core/Src/Lcd.c **** 
 171:Core/Src/Lcd.c **** #endif
 172:Core/Src/Lcd.c **** 
 173:Core/Src/Lcd.c **** int isBusy()
 174:Core/Src/Lcd.c **** {
 531              		.loc 1 174 1 is_stmt 1 view -0
 532              		.cfi_startproc
 533              		@ args = 0, pretend = 0, frame = 0
 534              		@ frame_needed = 0, uses_anonymous_args = 0
 535 0000 10B5     		push	{r4, lr}
 536              		.cfi_def_cfa_offset 8
 537              		.cfi_offset 4, -8
 538              		.cfi_offset 14, -4
 175:Core/Src/Lcd.c **** 	DATA_PORT->MODER &= ~(0b11 << ((DB7 << 1)));
 539              		.loc 1 175 2 view .LVU137
 540              		.loc 1 175 19 is_stmt 0 view .LVU138
 541 0002 0F4C     		ldr	r4, .L40
 542 0004 2368     		ldr	r3, [r4]
 543 0006 23F44053 		bic	r3, r3, #12288
 544 000a 2360     		str	r3, [r4]
 176:Core/Src/Lcd.c **** 
 177:Core/Src/Lcd.c **** 	setRW(1);
 545              		.loc 1 177 2 is_stmt 1 view .LVU139
 546 000c 0120     		movs	r0, #1
 547 000e FFF7FEFF 		bl	setRW
 548              	.LVL40:
 178:Core/Src/Lcd.c **** 	setRS(0);
 549              		.loc 1 178 2 view .LVU140
 550 0012 0020     		movs	r0, #0
 551 0014 FFF7FEFF 		bl	setRS
 552              	.LVL41:
 179:Core/Src/Lcd.c **** 	setE(1);
 553              		.loc 1 179 2 view .LVU141
 554 0018 0120     		movs	r0, #1
 555 001a FFF7FEFF 		bl	setE
 556              	.LVL42:
 180:Core/Src/Lcd.c **** 
 181:Core/Src/Lcd.c **** 	int isBusy = 0;
 557              		.loc 1 181 2 view .LVU142
 182:Core/Src/Lcd.c **** 
 183:Core/Src/Lcd.c **** 	if (DATA_PORT->IDR & (1<<DB7))
 558              		.loc 1 183 2 view .LVU143
 559              		.loc 1 183 15 is_stmt 0 view .LVU144
 560 001e 2369     		ldr	r3, [r4, #16]
 561              		.loc 1 183 5 view .LVU145
 562 0020 13F0400F 		tst	r3, #64
 563 0024 0AD1     		bne	.L38
 181:Core/Src/Lcd.c **** 
ARM GAS  C:\Users\jack2\AppData\Local\Temp\ccQDisGo.s 			page 14


 564              		.loc 1 181 6 view .LVU146
 565 0026 0024     		movs	r4, #0
 566              	.L37:
 567              	.LVL43:
 184:Core/Src/Lcd.c **** 		isBusy = 1;
 185:Core/Src/Lcd.c **** 
 186:Core/Src/Lcd.c **** 	setE(0);
 568              		.loc 1 186 2 is_stmt 1 view .LVU147
 569 0028 0020     		movs	r0, #0
 570 002a FFF7FEFF 		bl	setE
 571              	.LVL44:
 187:Core/Src/Lcd.c **** 	DATA_PORT->MODER |= (0b01 << ((DB7 << 1)));
 572              		.loc 1 187 2 view .LVU148
 573              		.loc 1 187 19 is_stmt 0 view .LVU149
 574 002e 044A     		ldr	r2, .L40
 575 0030 1368     		ldr	r3, [r2]
 576 0032 43F48053 		orr	r3, r3, #4096
 577 0036 1360     		str	r3, [r2]
 188:Core/Src/Lcd.c **** 	
 189:Core/Src/Lcd.c **** 	return isBusy;
 578              		.loc 1 189 2 is_stmt 1 view .LVU150
 190:Core/Src/Lcd.c **** }
 579              		.loc 1 190 1 is_stmt 0 view .LVU151
 580 0038 2046     		mov	r0, r4
 581 003a 10BD     		pop	{r4, pc}
 582              	.LVL45:
 583              	.L38:
 184:Core/Src/Lcd.c **** 
 584              		.loc 1 184 10 view .LVU152
 585 003c 0124     		movs	r4, #1
 586 003e F3E7     		b	.L37
 587              	.L41:
 588              		.align	2
 589              	.L40:
 590 0040 00040048 		.word	1207960576
 591              		.cfi_endproc
 592              	.LFE143:
 594              		.section	.text.waitWhileBusy,"ax",%progbits
 595              		.align	1
 596              		.global	waitWhileBusy
 597              		.syntax unified
 598              		.thumb
 599              		.thumb_func
 600              		.fpu fpv4-sp-d16
 602              	waitWhileBusy:
 603              	.LFB144:
 191:Core/Src/Lcd.c **** 
 192:Core/Src/Lcd.c **** void waitWhileBusy()
 193:Core/Src/Lcd.c **** {
 604              		.loc 1 193 1 is_stmt 1 view -0
 605              		.cfi_startproc
 606              		@ args = 0, pretend = 0, frame = 0
 607              		@ frame_needed = 0, uses_anonymous_args = 0
 608 0000 08B5     		push	{r3, lr}
 609              		.cfi_def_cfa_offset 8
 610              		.cfi_offset 3, -8
 611              		.cfi_offset 14, -4
ARM GAS  C:\Users\jack2\AppData\Local\Temp\ccQDisGo.s 			page 15


 194:Core/Src/Lcd.c **** 	DATA_PORT->MODER &= ~(0b11 << ((DB7 << 1)));
 612              		.loc 1 194 2 view .LVU154
 613              		.loc 1 194 19 is_stmt 0 view .LVU155
 614 0002 144A     		ldr	r2, .L46
 615 0004 1368     		ldr	r3, [r2]
 616 0006 23F44053 		bic	r3, r3, #12288
 617 000a 1360     		str	r3, [r2]
 195:Core/Src/Lcd.c **** 
 196:Core/Src/Lcd.c **** 	setRW(1);
 618              		.loc 1 196 2 is_stmt 1 view .LVU156
 619 000c 0120     		movs	r0, #1
 620 000e FFF7FEFF 		bl	setRW
 621              	.LVL46:
 197:Core/Src/Lcd.c **** 	setRS(0);
 622              		.loc 1 197 2 view .LVU157
 623 0012 0020     		movs	r0, #0
 624 0014 FFF7FEFF 		bl	setRS
 625              	.LVL47:
 198:Core/Src/Lcd.c **** 	setE(1);
 626              		.loc 1 198 2 view .LVU158
 627 0018 0120     		movs	r0, #1
 628 001a FFF7FEFF 		bl	setE
 629              	.LVL48:
 199:Core/Src/Lcd.c **** 	while(DATA_PORT->IDR & (1<<DB7))
 630              		.loc 1 199 2 view .LVU159
 631              		.loc 1 199 7 is_stmt 0 view .LVU160
 632 001e 0BE0     		b	.L43
 633              	.L44:
 200:Core/Src/Lcd.c **** 	{
 201:Core/Src/Lcd.c **** 		setE(0);
 634              		.loc 1 201 3 is_stmt 1 view .LVU161
 635 0020 0020     		movs	r0, #0
 636 0022 FFF7FEFF 		bl	setE
 637              	.LVL49:
 202:Core/Src/Lcd.c **** 		setE(1);
 638              		.loc 1 202 3 view .LVU162
 639 0026 0120     		movs	r0, #1
 640 0028 FFF7FEFF 		bl	setE
 641              	.LVL50:
 203:Core/Src/Lcd.c **** 		setE(0);
 642              		.loc 1 203 3 view .LVU163
 643 002c 0020     		movs	r0, #0
 644 002e FFF7FEFF 		bl	setE
 645              	.LVL51:
 204:Core/Src/Lcd.c **** 		setE(1);
 646              		.loc 1 204 3 view .LVU164
 647 0032 0120     		movs	r0, #1
 648 0034 FFF7FEFF 		bl	setE
 649              	.LVL52:
 650              	.L43:
 199:Core/Src/Lcd.c **** 	{
 651              		.loc 1 199 7 view .LVU165
 199:Core/Src/Lcd.c **** 	{
 652              		.loc 1 199 17 is_stmt 0 view .LVU166
 653 0038 064B     		ldr	r3, .L46
 654 003a 1B69     		ldr	r3, [r3, #16]
 199:Core/Src/Lcd.c **** 	{
ARM GAS  C:\Users\jack2\AppData\Local\Temp\ccQDisGo.s 			page 16


 655              		.loc 1 199 7 view .LVU167
 656 003c 13F0400F 		tst	r3, #64
 657 0040 EED1     		bne	.L44
 205:Core/Src/Lcd.c **** 	}
 206:Core/Src/Lcd.c **** 
 207:Core/Src/Lcd.c **** 	setE(0);
 658              		.loc 1 207 2 is_stmt 1 view .LVU168
 659 0042 0020     		movs	r0, #0
 660 0044 FFF7FEFF 		bl	setE
 661              	.LVL53:
 208:Core/Src/Lcd.c **** 	DATA_PORT->MODER |= (0b01 << ((DB7 << 1)));
 662              		.loc 1 208 2 view .LVU169
 663              		.loc 1 208 19 is_stmt 0 view .LVU170
 664 0048 024A     		ldr	r2, .L46
 665 004a 1368     		ldr	r3, [r2]
 666 004c 43F48053 		orr	r3, r3, #4096
 667 0050 1360     		str	r3, [r2]
 209:Core/Src/Lcd.c **** }
 668              		.loc 1 209 1 view .LVU171
 669 0052 08BD     		pop	{r3, pc}
 670              	.L47:
 671              		.align	2
 672              	.L46:
 673 0054 00040048 		.word	1207960576
 674              		.cfi_endproc
 675              	.LFE144:
 677              		.section	.text.sendInstruction,"ax",%progbits
 678              		.align	1
 679              		.global	sendInstruction
 680              		.syntax unified
 681              		.thumb
 682              		.thumb_func
 683              		.fpu fpv4-sp-d16
 685              	sendInstruction:
 686              	.LVL54:
 687              	.LFB145:
 210:Core/Src/Lcd.c **** 
 211:Core/Src/Lcd.c **** void sendInstruction(uint8_t data)
 212:Core/Src/Lcd.c **** {
 688              		.loc 1 212 1 is_stmt 1 view -0
 689              		.cfi_startproc
 690              		@ args = 0, pretend = 0, frame = 0
 691              		@ frame_needed = 0, uses_anonymous_args = 0
 692              		.loc 1 212 1 is_stmt 0 view .LVU173
 693 0000 10B5     		push	{r4, lr}
 694              		.cfi_def_cfa_offset 8
 695              		.cfi_offset 4, -8
 696              		.cfi_offset 14, -4
 697 0002 0446     		mov	r4, r0
 213:Core/Src/Lcd.c **** 	// Make sure the display isn't busy
 214:Core/Src/Lcd.c **** 	waitWhileBusy();
 698              		.loc 1 214 2 is_stmt 1 view .LVU174
 699 0004 FFF7FEFF 		bl	waitWhileBusy
 700              	.LVL55:
 215:Core/Src/Lcd.c **** 	
 216:Core/Src/Lcd.c **** 	setRW(0);
 701              		.loc 1 216 2 view .LVU175
ARM GAS  C:\Users\jack2\AppData\Local\Temp\ccQDisGo.s 			page 17


 702 0008 0020     		movs	r0, #0
 703 000a FFF7FEFF 		bl	setRW
 704              	.LVL56:
 217:Core/Src/Lcd.c **** 	setRS(0);
 705              		.loc 1 217 2 view .LVU176
 706 000e 0020     		movs	r0, #0
 707 0010 FFF7FEFF 		bl	setRS
 708              	.LVL57:
 218:Core/Src/Lcd.c **** 
 219:Core/Src/Lcd.c **** 	sendByte(data);
 709              		.loc 1 219 2 view .LVU177
 710 0014 2046     		mov	r0, r4
 711 0016 FFF7FEFF 		bl	sendByte
 712              	.LVL58:
 220:Core/Src/Lcd.c **** 
 221:Core/Src/Lcd.c **** }
 713              		.loc 1 221 1 is_stmt 0 view .LVU178
 714 001a 10BD     		pop	{r4, pc}
 715              		.cfi_endproc
 716              	.LFE145:
 718              		.section	.text.writeDisplay,"ax",%progbits
 719              		.align	1
 720              		.global	writeDisplay
 721              		.syntax unified
 722              		.thumb
 723              		.thumb_func
 724              		.fpu fpv4-sp-d16
 726              	writeDisplay:
 727              	.LVL59:
 728              	.LFB146:
 222:Core/Src/Lcd.c **** 
 223:Core/Src/Lcd.c **** 
 224:Core/Src/Lcd.c **** void writeDisplay(uint8_t data)
 225:Core/Src/Lcd.c **** {
 729              		.loc 1 225 1 is_stmt 1 view -0
 730              		.cfi_startproc
 731              		@ args = 0, pretend = 0, frame = 0
 732              		@ frame_needed = 0, uses_anonymous_args = 0
 733              		.loc 1 225 1 is_stmt 0 view .LVU180
 734 0000 10B5     		push	{r4, lr}
 735              		.cfi_def_cfa_offset 8
 736              		.cfi_offset 4, -8
 737              		.cfi_offset 14, -4
 738 0002 0446     		mov	r4, r0
 226:Core/Src/Lcd.c **** 	// Make sure the display isn't busy
 227:Core/Src/Lcd.c **** 	waitWhileBusy();
 739              		.loc 1 227 2 is_stmt 1 view .LVU181
 740 0004 FFF7FEFF 		bl	waitWhileBusy
 741              	.LVL60:
 228:Core/Src/Lcd.c **** 
 229:Core/Src/Lcd.c **** 	setRW(0);
 742              		.loc 1 229 2 view .LVU182
 743 0008 0020     		movs	r0, #0
 744 000a FFF7FEFF 		bl	setRW
 745              	.LVL61:
 230:Core/Src/Lcd.c **** 	setRS(1);
 746              		.loc 1 230 2 view .LVU183
ARM GAS  C:\Users\jack2\AppData\Local\Temp\ccQDisGo.s 			page 18


 747 000e 0120     		movs	r0, #1
 748 0010 FFF7FEFF 		bl	setRS
 749              	.LVL62:
 231:Core/Src/Lcd.c **** 
 232:Core/Src/Lcd.c **** 	sendByte(data);
 750              		.loc 1 232 2 view .LVU184
 751 0014 2046     		mov	r0, r4
 752 0016 FFF7FEFF 		bl	sendByte
 753              	.LVL63:
 233:Core/Src/Lcd.c **** 
 234:Core/Src/Lcd.c **** }
 754              		.loc 1 234 1 is_stmt 0 view .LVU185
 755 001a 10BD     		pop	{r4, pc}
 756              		.cfi_endproc
 757              	.LFE146:
 759              		.section	.text.initDisplay,"ax",%progbits
 760              		.align	1
 761              		.global	initDisplay
 762              		.syntax unified
 763              		.thumb
 764              		.thumb_func
 765              		.fpu fpv4-sp-d16
 767              	initDisplay:
 768              	.LFB147:
 235:Core/Src/Lcd.c **** 
 236:Core/Src/Lcd.c **** #ifndef FOUR_BIT_OPERATION
 237:Core/Src/Lcd.c **** 
 238:Core/Src/Lcd.c **** void initDisplay(void)
 239:Core/Src/Lcd.c **** {
 240:Core/Src/Lcd.c **** 	// Enable the GPIO for the data port
 241:Core/Src/Lcd.c **** 	RCC->AHB1ENR |= (1<<RCC_DATA_ENR);
 242:Core/Src/Lcd.c **** 
 243:Core/Src/Lcd.c **** 	// Set each of the data lines to outputs
 244:Core/Src/Lcd.c **** 	DATA_PORT->MODER &= ~(0b11 << (DB4 << 1)) & ~(0b11 << (DB5 << 1)) & ~(0b11 << (DB6 << 1)) & ~(0b11
 245:Core/Src/Lcd.c **** 					 &  ~(0b11 << (DB0 << 1)) & ~(0b11 << (DB1 << 1)) & ~(0b11 << (DB2 << 1)) & ~(0b11 << (DB3 << 
 246:Core/Src/Lcd.c **** 	DATA_PORT->MODER |= (0b01 << (DB4 << 1)) | (0b01 << (DB5 << 1)) | (0b01 << (DB6 << 1)) | (0b01 << 
 247:Core/Src/Lcd.c **** 					 |  (0b01 << (DB0 << 1)) | (0b01 << (DB1 << 1)) | (0b01 << (DB2 << 1)) | (0b01 << (DB3 << 1));
 248:Core/Src/Lcd.c **** 	
 249:Core/Src/Lcd.c **** 	// Enable the GPIO for the RW port
 250:Core/Src/Lcd.c **** 	RCC->AHB1ENR |= (1<<RCC_RW_ENR);
 251:Core/Src/Lcd.c **** 
 252:Core/Src/Lcd.c **** 	// Set the rw line to output
 253:Core/Src/Lcd.c **** 	RW_PORT->MODER &= ~(0b11 << (RW_PIN << 1));
 254:Core/Src/Lcd.c **** 	RW_PORT->MODER |= (0b01 << (RW_PIN << 1));
 255:Core/Src/Lcd.c **** 
 256:Core/Src/Lcd.c **** 	// Enable the GPIO for the RS port
 257:Core/Src/Lcd.c **** 	RCC->AHB1ENR |= (1<<RCC_RS_ENR);
 258:Core/Src/Lcd.c **** 
 259:Core/Src/Lcd.c **** 	// Set the rs line to output
 260:Core/Src/Lcd.c **** 	RS_PORT->MODER &= ~(0b11 << (RS_PIN << 1));
 261:Core/Src/Lcd.c **** 	RS_PORT->MODER |= (0b01 << (RS_PIN << 1));
 262:Core/Src/Lcd.c **** 
 263:Core/Src/Lcd.c **** 	// Enable the GPIO for the E port
 264:Core/Src/Lcd.c **** 	RCC->AHB1ENR |= (1<<RCC_E_ENR);
 265:Core/Src/Lcd.c **** 
 266:Core/Src/Lcd.c **** 	// Set the e line to output
 267:Core/Src/Lcd.c **** 	E_PORT->MODER &= ~(0b11 << (E_PIN << 1));
ARM GAS  C:\Users\jack2\AppData\Local\Temp\ccQDisGo.s 			page 19


 268:Core/Src/Lcd.c **** 	E_PORT->MODER |= (0b01 << (E_PIN << 1));
 269:Core/Src/Lcd.c **** 
 270:Core/Src/Lcd.c **** 
 271:Core/Src/Lcd.c **** 	// When initializing they recommend 15 ms delay until after vcc rises above 4.5V
 272:Core/Src/Lcd.c **** 	DWT_Delay_ms(15);
 273:Core/Src/Lcd.c **** 
 274:Core/Src/Lcd.c **** 	// Set RS and RW for Writing (RW) Instructions (RS)
 275:Core/Src/Lcd.c **** 	setRW(0);
 276:Core/Src/Lcd.c **** 	setRS(0);
 277:Core/Src/Lcd.c **** 
 278:Core/Src/Lcd.c **** 	// Function set see datasheet
 279:Core/Src/Lcd.c **** 	sendByte(0b00110000);
 280:Core/Src/Lcd.c **** 
 281:Core/Src/Lcd.c **** 	// Datasheet recommends 4.1ms delay here
 282:Core/Src/Lcd.c **** 	DWT_Delay_us(4100);
 283:Core/Src/Lcd.c **** 
 284:Core/Src/Lcd.c **** 	// Function set see datasheet
 285:Core/Src/Lcd.c **** 	sendByte(0b00110000);
 286:Core/Src/Lcd.c **** 
 287:Core/Src/Lcd.c **** 	// Datasheet recommends 100us delay here
 288:Core/Src/Lcd.c **** 	DWT_Delay_us(100);
 289:Core/Src/Lcd.c **** 
 290:Core/Src/Lcd.c **** 	// Function set see datasheet
 291:Core/Src/Lcd.c **** 	sendByte(0b00110000);
 292:Core/Src/Lcd.c **** 
 293:Core/Src/Lcd.c **** 	// Function set, 4 bit mode, 2 lines, 8x5 dots
 294:Core/Src/Lcd.c **** 	sendInstruction(0b00111000);
 295:Core/Src/Lcd.c **** 	
 296:Core/Src/Lcd.c **** 	// Display off
 297:Core/Src/Lcd.c **** 	sendInstruction(0b00001000);
 298:Core/Src/Lcd.c **** 
 299:Core/Src/Lcd.c **** 	// Display clear
 300:Core/Src/Lcd.c **** 	sendInstruction(0b00000001);
 301:Core/Src/Lcd.c **** 
 302:Core/Src/Lcd.c **** 	// Entry set
 303:Core/Src/Lcd.c **** 	sendInstruction(0b00000110);
 304:Core/Src/Lcd.c **** 
 305:Core/Src/Lcd.c **** }
 306:Core/Src/Lcd.c **** 
 307:Core/Src/Lcd.c **** #else
 308:Core/Src/Lcd.c **** 
 309:Core/Src/Lcd.c **** /*
 310:Core/Src/Lcd.c **** *	Initialize the display by instruction as explained in the datasheet
 311:Core/Src/Lcd.c **** */
 312:Core/Src/Lcd.c **** void initDisplay(void)
 313:Core/Src/Lcd.c **** {
 769              		.loc 1 313 1 is_stmt 1 view -0
 770              		.cfi_startproc
 771              		@ args = 0, pretend = 0, frame = 0
 772              		@ frame_needed = 0, uses_anonymous_args = 0
 773 0000 08B5     		push	{r3, lr}
 774              		.cfi_def_cfa_offset 8
 775              		.cfi_offset 3, -8
 776              		.cfi_offset 14, -4
 314:Core/Src/Lcd.c **** 
 315:Core/Src/Lcd.c **** 	DWT_Delay_Init();
 777              		.loc 1 315 2 view .LVU187
ARM GAS  C:\Users\jack2\AppData\Local\Temp\ccQDisGo.s 			page 20


 778 0002 FFF7FEFF 		bl	DWT_Delay_Init
 779              	.LVL64:
 316:Core/Src/Lcd.c **** 
 317:Core/Src/Lcd.c **** 	
 318:Core/Src/Lcd.c **** 
 319:Core/Src/Lcd.c **** 	// Enable the GPIO for the data port
 320:Core/Src/Lcd.c **** 	RCC->AHB1ENR |= (1<<RCC_DATA_ENR);
 780              		.loc 1 320 2 view .LVU188
 781              		.loc 1 320 15 is_stmt 0 view .LVU189
 782 0006 364A     		ldr	r2, .L54
 783 0008 936C     		ldr	r3, [r2, #72]
 784 000a 43F00203 		orr	r3, r3, #2
 785 000e 9364     		str	r3, [r2, #72]
 321:Core/Src/Lcd.c **** 
 322:Core/Src/Lcd.c **** 	// Set each of the data lines to outputs
 323:Core/Src/Lcd.c **** 	DATA_PORT->MODER &= ~(0b11 << (DB4 << 1)) & ~(0b11 << (DB5 << 1)) & ~(0b11 << (DB6 << 1)) & ~(0b11
 786              		.loc 1 323 2 is_stmt 1 view .LVU190
 787              		.loc 1 323 19 is_stmt 0 view .LVU191
 788 0010 344B     		ldr	r3, .L54+4
 789 0012 1968     		ldr	r1, [r3]
 790 0014 21F47F51 		bic	r1, r1, #16320
 791 0018 1960     		str	r1, [r3]
 324:Core/Src/Lcd.c **** 	DATA_PORT->MODER |= (0b01 << (DB4 << 1)) | (0b01 << (DB5 << 1)) | (0b01 << (DB6 << 1)) | (0b01 << 
 792              		.loc 1 324 2 is_stmt 1 view .LVU192
 793              		.loc 1 324 19 is_stmt 0 view .LVU193
 794 001a 1968     		ldr	r1, [r3]
 795 001c 41F4AA51 		orr	r1, r1, #5440
 796 0020 1960     		str	r1, [r3]
 325:Core/Src/Lcd.c **** 	
 326:Core/Src/Lcd.c **** 	// Enable the GPIO for the RW port
 327:Core/Src/Lcd.c **** 	RCC->AHB1ENR |= (1<<RCC_RW_ENR);
 797              		.loc 1 327 2 is_stmt 1 view .LVU194
 798              		.loc 1 327 15 is_stmt 0 view .LVU195
 799 0022 916C     		ldr	r1, [r2, #72]
 800 0024 41F00201 		orr	r1, r1, #2
 801 0028 9164     		str	r1, [r2, #72]
 328:Core/Src/Lcd.c **** 
 329:Core/Src/Lcd.c **** 	// Set the rw line to output
 330:Core/Src/Lcd.c **** 	RW_PORT->MODER &= ~(0b11 << (RW_PIN << 1));
 802              		.loc 1 330 2 is_stmt 1 view .LVU196
 803              		.loc 1 330 17 is_stmt 0 view .LVU197
 804 002a 1968     		ldr	r1, [r3]
 805 002c 21F00301 		bic	r1, r1, #3
 806 0030 1960     		str	r1, [r3]
 331:Core/Src/Lcd.c **** 	RW_PORT->MODER |= (0b01 << (RW_PIN << 1));
 807              		.loc 1 331 2 is_stmt 1 view .LVU198
 808              		.loc 1 331 17 is_stmt 0 view .LVU199
 809 0032 1968     		ldr	r1, [r3]
 810 0034 41F00101 		orr	r1, r1, #1
 811 0038 1960     		str	r1, [r3]
 332:Core/Src/Lcd.c **** 
 333:Core/Src/Lcd.c **** 	// Enable the GPIO for the RS port
 334:Core/Src/Lcd.c **** 	RCC->AHB1ENR |= (1<<RCC_RS_ENR);
 812              		.loc 1 334 2 is_stmt 1 view .LVU200
 813              		.loc 1 334 15 is_stmt 0 view .LVU201
 814 003a 916C     		ldr	r1, [r2, #72]
 815 003c 41F00201 		orr	r1, r1, #2
ARM GAS  C:\Users\jack2\AppData\Local\Temp\ccQDisGo.s 			page 21


 816 0040 9164     		str	r1, [r2, #72]
 335:Core/Src/Lcd.c **** 
 336:Core/Src/Lcd.c **** 	// Set the rs line to output
 337:Core/Src/Lcd.c **** 	RS_PORT->MODER &= ~(0b11 << (RS_PIN << 1));
 817              		.loc 1 337 2 is_stmt 1 view .LVU202
 818              		.loc 1 337 17 is_stmt 0 view .LVU203
 819 0042 1968     		ldr	r1, [r3]
 820 0044 21F00C01 		bic	r1, r1, #12
 821 0048 1960     		str	r1, [r3]
 338:Core/Src/Lcd.c **** 	RS_PORT->MODER |= (0b01 << (RS_PIN << 1));
 822              		.loc 1 338 2 is_stmt 1 view .LVU204
 823              		.loc 1 338 17 is_stmt 0 view .LVU205
 824 004a 1968     		ldr	r1, [r3]
 825 004c 41F00401 		orr	r1, r1, #4
 826 0050 1960     		str	r1, [r3]
 339:Core/Src/Lcd.c **** 
 340:Core/Src/Lcd.c **** 	// Enable the GPIO for the E port
 341:Core/Src/Lcd.c **** 	RCC->AHB1ENR |= (1<<RCC_E_ENR);
 827              		.loc 1 341 2 is_stmt 1 view .LVU206
 828              		.loc 1 341 15 is_stmt 0 view .LVU207
 829 0052 916C     		ldr	r1, [r2, #72]
 830 0054 41F00201 		orr	r1, r1, #2
 831 0058 9164     		str	r1, [r2, #72]
 342:Core/Src/Lcd.c **** 
 343:Core/Src/Lcd.c **** 	// Set the e line to output
 344:Core/Src/Lcd.c **** 	E_PORT->MODER &= ~(0b11 << (E_PIN << 1));
 832              		.loc 1 344 2 is_stmt 1 view .LVU208
 833              		.loc 1 344 16 is_stmt 0 view .LVU209
 834 005a 1A68     		ldr	r2, [r3]
 835 005c 22F03002 		bic	r2, r2, #48
 836 0060 1A60     		str	r2, [r3]
 345:Core/Src/Lcd.c **** 	E_PORT->MODER |= (0b01 << (E_PIN << 1));
 837              		.loc 1 345 2 is_stmt 1 view .LVU210
 838              		.loc 1 345 16 is_stmt 0 view .LVU211
 839 0062 1A68     		ldr	r2, [r3]
 840 0064 42F01002 		orr	r2, r2, #16
 841 0068 1A60     		str	r2, [r3]
 346:Core/Src/Lcd.c **** 
 347:Core/Src/Lcd.c **** 
 348:Core/Src/Lcd.c **** 
 349:Core/Src/Lcd.c **** 	// When initializing they recommend 15 ms delay until after vcc rises above 4.5V
 350:Core/Src/Lcd.c **** 	DWT_Delay_ms(15);
 842              		.loc 1 350 2 is_stmt 1 view .LVU212
 843 006a 0F20     		movs	r0, #15
 844 006c FFF7FEFF 		bl	DWT_Delay_ms
 845              	.LVL65:
 351:Core/Src/Lcd.c **** 
 352:Core/Src/Lcd.c **** 	// Set RS and RW for Writing (RW) Instructions (RS)
 353:Core/Src/Lcd.c **** 	setRW(0);
 846              		.loc 1 353 2 view .LVU213
 847 0070 0020     		movs	r0, #0
 848 0072 FFF7FEFF 		bl	setRW
 849              	.LVL66:
 354:Core/Src/Lcd.c **** 	setRS(0);
 850              		.loc 1 354 2 view .LVU214
 851 0076 0020     		movs	r0, #0
 852 0078 FFF7FEFF 		bl	setRS
ARM GAS  C:\Users\jack2\AppData\Local\Temp\ccQDisGo.s 			page 22


 853              	.LVL67:
 355:Core/Src/Lcd.c **** 
 356:Core/Src/Lcd.c **** 	// Function set see data sheet
 357:Core/Src/Lcd.c **** 	sendNibble(0b0011);
 854              		.loc 1 357 2 view .LVU215
 855 007c 0320     		movs	r0, #3
 856 007e FFF7FEFF 		bl	sendNibble
 857              	.LVL68:
 358:Core/Src/Lcd.c **** 	setE(0);
 858              		.loc 1 358 2 view .LVU216
 859 0082 0020     		movs	r0, #0
 860 0084 FFF7FEFF 		bl	setE
 861              	.LVL69:
 359:Core/Src/Lcd.c **** 	setE(1);
 862              		.loc 1 359 2 view .LVU217
 863 0088 0120     		movs	r0, #1
 864 008a FFF7FEFF 		bl	setE
 865              	.LVL70:
 360:Core/Src/Lcd.c **** 	setE(0);
 866              		.loc 1 360 2 view .LVU218
 867 008e 0020     		movs	r0, #0
 868 0090 FFF7FEFF 		bl	setE
 869              	.LVL71:
 361:Core/Src/Lcd.c **** 
 362:Core/Src/Lcd.c **** 	// Datasheet recommends 4.1ms delay here
 363:Core/Src/Lcd.c **** 	DWT_Delay_us(4100);
 870              		.loc 1 363 2 view .LVU219
 871 0094 41F20400 		movw	r0, #4100
 872 0098 FFF7FEFF 		bl	DWT_Delay_us
 873              	.LVL72:
 364:Core/Src/Lcd.c **** 
 365:Core/Src/Lcd.c **** 	// Function set see data sheet
 366:Core/Src/Lcd.c **** 	sendNibble(0b0011);
 874              		.loc 1 366 2 view .LVU220
 875 009c 0320     		movs	r0, #3
 876 009e FFF7FEFF 		bl	sendNibble
 877              	.LVL73:
 367:Core/Src/Lcd.c **** 	setE(0);
 878              		.loc 1 367 2 view .LVU221
 879 00a2 0020     		movs	r0, #0
 880 00a4 FFF7FEFF 		bl	setE
 881              	.LVL74:
 368:Core/Src/Lcd.c **** 	setE(1);
 882              		.loc 1 368 2 view .LVU222
 883 00a8 0120     		movs	r0, #1
 884 00aa FFF7FEFF 		bl	setE
 885              	.LVL75:
 369:Core/Src/Lcd.c **** 	setE(0);
 886              		.loc 1 369 2 view .LVU223
 887 00ae 0020     		movs	r0, #0
 888 00b0 FFF7FEFF 		bl	setE
 889              	.LVL76:
 370:Core/Src/Lcd.c **** 
 371:Core/Src/Lcd.c **** 	// Datasheet recommends 100us delay here
 372:Core/Src/Lcd.c **** 	DWT_Delay_us(100);
 890              		.loc 1 372 2 view .LVU224
 891 00b4 6420     		movs	r0, #100
ARM GAS  C:\Users\jack2\AppData\Local\Temp\ccQDisGo.s 			page 23


 892 00b6 FFF7FEFF 		bl	DWT_Delay_us
 893              	.LVL77:
 373:Core/Src/Lcd.c **** 
 374:Core/Src/Lcd.c **** 	// This takes the form of two function sets
 375:Core/Src/Lcd.c **** 	// The first is another 0011 as the datasheet requires
 376:Core/Src/Lcd.c **** 	// The second is 0010 to set 4 bit mode
 377:Core/Src/Lcd.c **** 	sendInstruction(0b00110010);
 894              		.loc 1 377 2 view .LVU225
 895 00ba 3220     		movs	r0, #50
 896 00bc FFF7FEFF 		bl	sendInstruction
 897              	.LVL78:
 378:Core/Src/Lcd.c **** 
 379:Core/Src/Lcd.c **** 	//Function set, 4 bit mode, 2 lines, 8x5 dots
 380:Core/Src/Lcd.c **** 	sendInstruction(0b00101000);
 898              		.loc 1 380 2 view .LVU226
 899 00c0 2820     		movs	r0, #40
 900 00c2 FFF7FEFF 		bl	sendInstruction
 901              	.LVL79:
 381:Core/Src/Lcd.c **** 	
 382:Core/Src/Lcd.c **** 	// Display off
 383:Core/Src/Lcd.c **** 	sendInstruction(0b00001000);
 902              		.loc 1 383 2 view .LVU227
 903 00c6 0820     		movs	r0, #8
 904 00c8 FFF7FEFF 		bl	sendInstruction
 905              	.LVL80:
 384:Core/Src/Lcd.c **** 
 385:Core/Src/Lcd.c **** 	// Display clear
 386:Core/Src/Lcd.c **** 	sendInstruction(0b00000001);
 906              		.loc 1 386 2 view .LVU228
 907 00cc 0120     		movs	r0, #1
 908 00ce FFF7FEFF 		bl	sendInstruction
 909              	.LVL81:
 387:Core/Src/Lcd.c **** 
 388:Core/Src/Lcd.c **** 	// Entry set
 389:Core/Src/Lcd.c **** 	sendInstruction(0b00000110);
 910              		.loc 1 389 2 view .LVU229
 911 00d2 0620     		movs	r0, #6
 912 00d4 FFF7FEFF 		bl	sendInstruction
 913              	.LVL82:
 390:Core/Src/Lcd.c **** 
 391:Core/Src/Lcd.c **** 	// Display mode starts with display off, cursor off, blinking off.
 392:Core/Src/Lcd.c **** 	displayMode = 0;
 914              		.loc 1 392 2 view .LVU230
 915              		.loc 1 392 14 is_stmt 0 view .LVU231
 916 00d8 034B     		ldr	r3, .L54+8
 917 00da 0022     		movs	r2, #0
 918 00dc 1A70     		strb	r2, [r3]
 393:Core/Src/Lcd.c **** 
 394:Core/Src/Lcd.c **** 
 395:Core/Src/Lcd.c **** 
 396:Core/Src/Lcd.c **** }
 919              		.loc 1 396 1 view .LVU232
 920 00de 08BD     		pop	{r3, pc}
 921              	.L55:
 922              		.align	2
 923              	.L54:
 924 00e0 00100240 		.word	1073876992
ARM GAS  C:\Users\jack2\AppData\Local\Temp\ccQDisGo.s 			page 24


 925 00e4 00040048 		.word	1207960576
 926 00e8 00000000 		.word	.LANCHOR0
 927              		.cfi_endproc
 928              	.LFE147:
 930              		.section	.text.clearDisplay,"ax",%progbits
 931              		.align	1
 932              		.global	clearDisplay
 933              		.syntax unified
 934              		.thumb
 935              		.thumb_func
 936              		.fpu fpv4-sp-d16
 938              	clearDisplay:
 939              	.LFB148:
 397:Core/Src/Lcd.c **** 
 398:Core/Src/Lcd.c **** #endif
 399:Core/Src/Lcd.c **** 
 400:Core/Src/Lcd.c **** void clearDisplay(void)
 401:Core/Src/Lcd.c **** {
 940              		.loc 1 401 1 is_stmt 1 view -0
 941              		.cfi_startproc
 942              		@ args = 0, pretend = 0, frame = 0
 943              		@ frame_needed = 0, uses_anonymous_args = 0
 944 0000 08B5     		push	{r3, lr}
 945              		.cfi_def_cfa_offset 8
 946              		.cfi_offset 3, -8
 947              		.cfi_offset 14, -4
 402:Core/Src/Lcd.c **** 	sendInstruction(0b00000001);
 948              		.loc 1 402 2 view .LVU234
 949 0002 0120     		movs	r0, #1
 950 0004 FFF7FEFF 		bl	sendInstruction
 951              	.LVL83:
 403:Core/Src/Lcd.c **** }
 952              		.loc 1 403 1 is_stmt 0 view .LVU235
 953 0008 08BD     		pop	{r3, pc}
 954              		.cfi_endproc
 955              	.LFE148:
 957              		.section	.text.returnHome,"ax",%progbits
 958              		.align	1
 959              		.global	returnHome
 960              		.syntax unified
 961              		.thumb
 962              		.thumb_func
 963              		.fpu fpv4-sp-d16
 965              	returnHome:
 966              	.LFB149:
 404:Core/Src/Lcd.c **** 
 405:Core/Src/Lcd.c **** void returnHome(void)
 406:Core/Src/Lcd.c **** {
 967              		.loc 1 406 1 is_stmt 1 view -0
 968              		.cfi_startproc
 969              		@ args = 0, pretend = 0, frame = 0
 970              		@ frame_needed = 0, uses_anonymous_args = 0
 971 0000 08B5     		push	{r3, lr}
 972              		.cfi_def_cfa_offset 8
 973              		.cfi_offset 3, -8
 974              		.cfi_offset 14, -4
 407:Core/Src/Lcd.c **** 	sendInstruction(0b00000010);
ARM GAS  C:\Users\jack2\AppData\Local\Temp\ccQDisGo.s 			page 25


 975              		.loc 1 407 2 view .LVU237
 976 0002 0220     		movs	r0, #2
 977 0004 FFF7FEFF 		bl	sendInstruction
 978              	.LVL84:
 408:Core/Src/Lcd.c **** }
 979              		.loc 1 408 1 is_stmt 0 view .LVU238
 980 0008 08BD     		pop	{r3, pc}
 981              		.cfi_endproc
 982              	.LFE149:
 984              		.section	.text.entryModeSet,"ax",%progbits
 985              		.align	1
 986              		.global	entryModeSet
 987              		.syntax unified
 988              		.thumb
 989              		.thumb_func
 990              		.fpu fpv4-sp-d16
 992              	entryModeSet:
 993              	.LVL85:
 994              	.LFB150:
 409:Core/Src/Lcd.c **** 
 410:Core/Src/Lcd.c **** void entryModeSet(int incOrDec, int S)
 411:Core/Src/Lcd.c **** {
 995              		.loc 1 411 1 is_stmt 1 view -0
 996              		.cfi_startproc
 997              		@ args = 0, pretend = 0, frame = 0
 998              		@ frame_needed = 0, uses_anonymous_args = 0
 999              		.loc 1 411 1 is_stmt 0 view .LVU240
 1000 0000 08B5     		push	{r3, lr}
 1001              		.cfi_def_cfa_offset 8
 1002              		.cfi_offset 3, -8
 1003              		.cfi_offset 14, -4
 412:Core/Src/Lcd.c **** 	uint8_t instruction = (0b00000100 | (incOrDec << 1) | (S << 0));
 1004              		.loc 1 412 2 is_stmt 1 view .LVU241
 1005              		.loc 1 412 48 is_stmt 0 view .LVU242
 1006 0002 4000     		lsls	r0, r0, #1
 1007              	.LVL86:
 1008              		.loc 1 412 36 view .LVU243
 1009 0004 40F00400 		orr	r0, r0, #4
 1010 0008 40B2     		sxtb	r0, r0
 1011              		.loc 1 412 54 view .LVU244
 1012 000a 0843     		orrs	r0, r0, r1
 1013              	.LVL87:
 413:Core/Src/Lcd.c **** 	sendInstruction(instruction);
 1014              		.loc 1 413 2 is_stmt 1 view .LVU245
 1015 000c C0B2     		uxtb	r0, r0
 1016              		.loc 1 413 2 is_stmt 0 view .LVU246
 1017 000e FFF7FEFF 		bl	sendInstruction
 1018              	.LVL88:
 414:Core/Src/Lcd.c **** }
 1019              		.loc 1 414 1 view .LVU247
 1020 0012 08BD     		pop	{r3, pc}
 1021              		.cfi_endproc
 1022              	.LFE150:
 1024              		.section	.text.displayControl,"ax",%progbits
 1025              		.align	1
 1026              		.global	displayControl
 1027              		.syntax unified
ARM GAS  C:\Users\jack2\AppData\Local\Temp\ccQDisGo.s 			page 26


 1028              		.thumb
 1029              		.thumb_func
 1030              		.fpu fpv4-sp-d16
 1032              	displayControl:
 1033              	.LVL89:
 1034              	.LFB151:
 415:Core/Src/Lcd.c **** 
 416:Core/Src/Lcd.c **** void displayControl(uint8_t displayOn, uint8_t cursorOn, uint8_t blinkingOn)
 417:Core/Src/Lcd.c **** {
 1035              		.loc 1 417 1 is_stmt 1 view -0
 1036              		.cfi_startproc
 1037              		@ args = 0, pretend = 0, frame = 0
 1038              		@ frame_needed = 0, uses_anonymous_args = 0
 1039              		.loc 1 417 1 is_stmt 0 view .LVU249
 1040 0000 08B5     		push	{r3, lr}
 1041              		.cfi_def_cfa_offset 8
 1042              		.cfi_offset 3, -8
 1043              		.cfi_offset 14, -4
 418:Core/Src/Lcd.c **** 	displayMode = 0b1000;
 1044              		.loc 1 418 2 is_stmt 1 view .LVU250
 1045              		.loc 1 418 14 is_stmt 0 view .LVU251
 1046 0002 094B     		ldr	r3, .L64
 1047 0004 4FF0080C 		mov	ip, #8
 1048 0008 83F800C0 		strb	ip, [r3]
 419:Core/Src/Lcd.c **** 	displayMode |= (displayOn << 2) | (cursorOn << 1) | (blinkingOn << 0);
 1049              		.loc 1 419 2 is_stmt 1 view .LVU252
 1050              		.loc 1 419 46 is_stmt 0 view .LVU253
 1051 000c 4900     		lsls	r1, r1, #1
 1052              	.LVL90:
 1053              		.loc 1 419 34 view .LVU254
 1054 000e 41EA8001 		orr	r1, r1, r0, lsl #2
 1055 0012 49B2     		sxtb	r1, r1
 1056              		.loc 1 419 52 view .LVU255
 1057 0014 41EA0200 		orr	r0, r1, r2
 1058              	.LVL91:
 1059              		.loc 1 419 52 view .LVU256
 1060 0018 40B2     		sxtb	r0, r0
 1061              		.loc 1 419 14 view .LVU257
 1062 001a 40EA0C00 		orr	r0, r0, ip
 1063 001e C0B2     		uxtb	r0, r0
 1064 0020 1870     		strb	r0, [r3]
 420:Core/Src/Lcd.c **** 	sendInstruction(displayMode);
 1065              		.loc 1 420 2 is_stmt 1 view .LVU258
 1066 0022 FFF7FEFF 		bl	sendInstruction
 1067              	.LVL92:
 421:Core/Src/Lcd.c **** }
 1068              		.loc 1 421 1 is_stmt 0 view .LVU259
 1069 0026 08BD     		pop	{r3, pc}
 1070              	.L65:
 1071              		.align	2
 1072              	.L64:
 1073 0028 00000000 		.word	.LANCHOR0
 1074              		.cfi_endproc
 1075              	.LFE151:
 1077              		.section	.text.displayControlHelper,"ax",%progbits
 1078              		.align	1
 1079              		.global	displayControlHelper
ARM GAS  C:\Users\jack2\AppData\Local\Temp\ccQDisGo.s 			page 27


 1080              		.syntax unified
 1081              		.thumb
 1082              		.thumb_func
 1083              		.fpu fpv4-sp-d16
 1085              	displayControlHelper:
 1086              	.LFB152:
 422:Core/Src/Lcd.c **** 
 423:Core/Src/Lcd.c **** void displayControlHelper()
 424:Core/Src/Lcd.c **** {
 1087              		.loc 1 424 1 is_stmt 1 view -0
 1088              		.cfi_startproc
 1089              		@ args = 0, pretend = 0, frame = 0
 1090              		@ frame_needed = 0, uses_anonymous_args = 0
 1091 0000 08B5     		push	{r3, lr}
 1092              		.cfi_def_cfa_offset 8
 1093              		.cfi_offset 3, -8
 1094              		.cfi_offset 14, -4
 425:Core/Src/Lcd.c **** 	uint8_t instruction = (0b00001000 | displayMode);
 1095              		.loc 1 425 2 view .LVU261
 1096              		.loc 1 425 10 is_stmt 0 view .LVU262
 1097 0002 034B     		ldr	r3, .L68
 1098 0004 1878     		ldrb	r0, [r3]	@ zero_extendqisi2
 1099              	.LVL93:
 426:Core/Src/Lcd.c **** 	sendInstruction(instruction);
 1100              		.loc 1 426 2 is_stmt 1 view .LVU263
 1101 0006 40F00800 		orr	r0, r0, #8
 1102              	.LVL94:
 1103              		.loc 1 426 2 is_stmt 0 view .LVU264
 1104 000a FFF7FEFF 		bl	sendInstruction
 1105              	.LVL95:
 427:Core/Src/Lcd.c **** }
 1106              		.loc 1 427 1 view .LVU265
 1107 000e 08BD     		pop	{r3, pc}
 1108              	.L69:
 1109              		.align	2
 1110              	.L68:
 1111 0010 00000000 		.word	.LANCHOR0
 1112              		.cfi_endproc
 1113              	.LFE152:
 1115              		.section	.text.displayOn,"ax",%progbits
 1116              		.align	1
 1117              		.global	displayOn
 1118              		.syntax unified
 1119              		.thumb
 1120              		.thumb_func
 1121              		.fpu fpv4-sp-d16
 1123              	displayOn:
 1124              	.LFB153:
 428:Core/Src/Lcd.c **** 
 429:Core/Src/Lcd.c **** void displayOn()
 430:Core/Src/Lcd.c **** {
 1125              		.loc 1 430 1 is_stmt 1 view -0
 1126              		.cfi_startproc
 1127              		@ args = 0, pretend = 0, frame = 0
 1128              		@ frame_needed = 0, uses_anonymous_args = 0
 1129 0000 08B5     		push	{r3, lr}
 1130              		.cfi_def_cfa_offset 8
ARM GAS  C:\Users\jack2\AppData\Local\Temp\ccQDisGo.s 			page 28


 1131              		.cfi_offset 3, -8
 1132              		.cfi_offset 14, -4
 431:Core/Src/Lcd.c **** 	displayMode |= (1<<2);
 1133              		.loc 1 431 2 view .LVU267
 1134              		.loc 1 431 14 is_stmt 0 view .LVU268
 1135 0002 044A     		ldr	r2, .L72
 1136 0004 1378     		ldrb	r3, [r2]	@ zero_extendqisi2
 1137 0006 43F00403 		orr	r3, r3, #4
 1138 000a 1370     		strb	r3, [r2]
 432:Core/Src/Lcd.c **** 	displayControlHelper();
 1139              		.loc 1 432 2 is_stmt 1 view .LVU269
 1140 000c FFF7FEFF 		bl	displayControlHelper
 1141              	.LVL96:
 433:Core/Src/Lcd.c **** }
 1142              		.loc 1 433 1 is_stmt 0 view .LVU270
 1143 0010 08BD     		pop	{r3, pc}
 1144              	.L73:
 1145 0012 00BF     		.align	2
 1146              	.L72:
 1147 0014 00000000 		.word	.LANCHOR0
 1148              		.cfi_endproc
 1149              	.LFE153:
 1151              		.section	.text.displayOff,"ax",%progbits
 1152              		.align	1
 1153              		.global	displayOff
 1154              		.syntax unified
 1155              		.thumb
 1156              		.thumb_func
 1157              		.fpu fpv4-sp-d16
 1159              	displayOff:
 1160              	.LFB154:
 434:Core/Src/Lcd.c **** 
 435:Core/Src/Lcd.c **** void displayOff()
 436:Core/Src/Lcd.c **** {
 1161              		.loc 1 436 1 is_stmt 1 view -0
 1162              		.cfi_startproc
 1163              		@ args = 0, pretend = 0, frame = 0
 1164              		@ frame_needed = 0, uses_anonymous_args = 0
 1165 0000 08B5     		push	{r3, lr}
 1166              		.cfi_def_cfa_offset 8
 1167              		.cfi_offset 3, -8
 1168              		.cfi_offset 14, -4
 437:Core/Src/Lcd.c **** 	displayMode &= ~(1<<2);
 1169              		.loc 1 437 2 view .LVU272
 1170              		.loc 1 437 14 is_stmt 0 view .LVU273
 1171 0002 044A     		ldr	r2, .L76
 1172 0004 1378     		ldrb	r3, [r2]	@ zero_extendqisi2
 1173 0006 23F00403 		bic	r3, r3, #4
 1174 000a 1370     		strb	r3, [r2]
 438:Core/Src/Lcd.c **** 	displayControlHelper();
 1175              		.loc 1 438 2 is_stmt 1 view .LVU274
 1176 000c FFF7FEFF 		bl	displayControlHelper
 1177              	.LVL97:
 439:Core/Src/Lcd.c **** }
 1178              		.loc 1 439 1 is_stmt 0 view .LVU275
 1179 0010 08BD     		pop	{r3, pc}
 1180              	.L77:
ARM GAS  C:\Users\jack2\AppData\Local\Temp\ccQDisGo.s 			page 29


 1181 0012 00BF     		.align	2
 1182              	.L76:
 1183 0014 00000000 		.word	.LANCHOR0
 1184              		.cfi_endproc
 1185              	.LFE154:
 1187              		.section	.text.cursorOn,"ax",%progbits
 1188              		.align	1
 1189              		.global	cursorOn
 1190              		.syntax unified
 1191              		.thumb
 1192              		.thumb_func
 1193              		.fpu fpv4-sp-d16
 1195              	cursorOn:
 1196              	.LFB155:
 440:Core/Src/Lcd.c **** 
 441:Core/Src/Lcd.c **** void cursorOn()
 442:Core/Src/Lcd.c **** {
 1197              		.loc 1 442 1 is_stmt 1 view -0
 1198              		.cfi_startproc
 1199              		@ args = 0, pretend = 0, frame = 0
 1200              		@ frame_needed = 0, uses_anonymous_args = 0
 1201 0000 08B5     		push	{r3, lr}
 1202              		.cfi_def_cfa_offset 8
 1203              		.cfi_offset 3, -8
 1204              		.cfi_offset 14, -4
 443:Core/Src/Lcd.c **** 	displayMode |= (1<<1);
 1205              		.loc 1 443 2 view .LVU277
 1206              		.loc 1 443 14 is_stmt 0 view .LVU278
 1207 0002 044A     		ldr	r2, .L80
 1208 0004 1378     		ldrb	r3, [r2]	@ zero_extendqisi2
 1209 0006 43F00203 		orr	r3, r3, #2
 1210 000a 1370     		strb	r3, [r2]
 444:Core/Src/Lcd.c **** 	displayControlHelper();
 1211              		.loc 1 444 2 is_stmt 1 view .LVU279
 1212 000c FFF7FEFF 		bl	displayControlHelper
 1213              	.LVL98:
 445:Core/Src/Lcd.c **** }
 1214              		.loc 1 445 1 is_stmt 0 view .LVU280
 1215 0010 08BD     		pop	{r3, pc}
 1216              	.L81:
 1217 0012 00BF     		.align	2
 1218              	.L80:
 1219 0014 00000000 		.word	.LANCHOR0
 1220              		.cfi_endproc
 1221              	.LFE155:
 1223              		.section	.text.cursorOff,"ax",%progbits
 1224              		.align	1
 1225              		.global	cursorOff
 1226              		.syntax unified
 1227              		.thumb
 1228              		.thumb_func
 1229              		.fpu fpv4-sp-d16
 1231              	cursorOff:
 1232              	.LFB156:
 446:Core/Src/Lcd.c **** 
 447:Core/Src/Lcd.c **** void cursorOff()
 448:Core/Src/Lcd.c **** {
ARM GAS  C:\Users\jack2\AppData\Local\Temp\ccQDisGo.s 			page 30


 1233              		.loc 1 448 1 is_stmt 1 view -0
 1234              		.cfi_startproc
 1235              		@ args = 0, pretend = 0, frame = 0
 1236              		@ frame_needed = 0, uses_anonymous_args = 0
 1237 0000 08B5     		push	{r3, lr}
 1238              		.cfi_def_cfa_offset 8
 1239              		.cfi_offset 3, -8
 1240              		.cfi_offset 14, -4
 449:Core/Src/Lcd.c **** 	displayMode &= ~(1<<1);
 1241              		.loc 1 449 2 view .LVU282
 1242              		.loc 1 449 14 is_stmt 0 view .LVU283
 1243 0002 044A     		ldr	r2, .L84
 1244 0004 1378     		ldrb	r3, [r2]	@ zero_extendqisi2
 1245 0006 23F00203 		bic	r3, r3, #2
 1246 000a 1370     		strb	r3, [r2]
 450:Core/Src/Lcd.c **** 	displayControlHelper();
 1247              		.loc 1 450 2 is_stmt 1 view .LVU284
 1248 000c FFF7FEFF 		bl	displayControlHelper
 1249              	.LVL99:
 451:Core/Src/Lcd.c **** }
 1250              		.loc 1 451 1 is_stmt 0 view .LVU285
 1251 0010 08BD     		pop	{r3, pc}
 1252              	.L85:
 1253 0012 00BF     		.align	2
 1254              	.L84:
 1255 0014 00000000 		.word	.LANCHOR0
 1256              		.cfi_endproc
 1257              	.LFE156:
 1259              		.section	.text.blinkingOn,"ax",%progbits
 1260              		.align	1
 1261              		.global	blinkingOn
 1262              		.syntax unified
 1263              		.thumb
 1264              		.thumb_func
 1265              		.fpu fpv4-sp-d16
 1267              	blinkingOn:
 1268              	.LFB157:
 452:Core/Src/Lcd.c **** 
 453:Core/Src/Lcd.c **** void blinkingOn()
 454:Core/Src/Lcd.c **** {
 1269              		.loc 1 454 1 is_stmt 1 view -0
 1270              		.cfi_startproc
 1271              		@ args = 0, pretend = 0, frame = 0
 1272              		@ frame_needed = 0, uses_anonymous_args = 0
 1273 0000 08B5     		push	{r3, lr}
 1274              		.cfi_def_cfa_offset 8
 1275              		.cfi_offset 3, -8
 1276              		.cfi_offset 14, -4
 455:Core/Src/Lcd.c **** 	displayMode |= (1<<0);
 1277              		.loc 1 455 2 view .LVU287
 1278              		.loc 1 455 14 is_stmt 0 view .LVU288
 1279 0002 044A     		ldr	r2, .L88
 1280 0004 1378     		ldrb	r3, [r2]	@ zero_extendqisi2
 1281 0006 43F00103 		orr	r3, r3, #1
 1282 000a 1370     		strb	r3, [r2]
 456:Core/Src/Lcd.c **** 	displayControlHelper();
 1283              		.loc 1 456 2 is_stmt 1 view .LVU289
ARM GAS  C:\Users\jack2\AppData\Local\Temp\ccQDisGo.s 			page 31


 1284 000c FFF7FEFF 		bl	displayControlHelper
 1285              	.LVL100:
 457:Core/Src/Lcd.c **** }
 1286              		.loc 1 457 1 is_stmt 0 view .LVU290
 1287 0010 08BD     		pop	{r3, pc}
 1288              	.L89:
 1289 0012 00BF     		.align	2
 1290              	.L88:
 1291 0014 00000000 		.word	.LANCHOR0
 1292              		.cfi_endproc
 1293              	.LFE157:
 1295              		.section	.text.blinkingOff,"ax",%progbits
 1296              		.align	1
 1297              		.global	blinkingOff
 1298              		.syntax unified
 1299              		.thumb
 1300              		.thumb_func
 1301              		.fpu fpv4-sp-d16
 1303              	blinkingOff:
 1304              	.LFB158:
 458:Core/Src/Lcd.c **** 
 459:Core/Src/Lcd.c **** void blinkingOff()
 460:Core/Src/Lcd.c **** {
 1305              		.loc 1 460 1 is_stmt 1 view -0
 1306              		.cfi_startproc
 1307              		@ args = 0, pretend = 0, frame = 0
 1308              		@ frame_needed = 0, uses_anonymous_args = 0
 1309 0000 08B5     		push	{r3, lr}
 1310              		.cfi_def_cfa_offset 8
 1311              		.cfi_offset 3, -8
 1312              		.cfi_offset 14, -4
 461:Core/Src/Lcd.c **** 	displayMode &= ~(1<<0);
 1313              		.loc 1 461 2 view .LVU292
 1314              		.loc 1 461 14 is_stmt 0 view .LVU293
 1315 0002 044A     		ldr	r2, .L92
 1316 0004 1378     		ldrb	r3, [r2]	@ zero_extendqisi2
 1317 0006 23F00103 		bic	r3, r3, #1
 1318 000a 1370     		strb	r3, [r2]
 462:Core/Src/Lcd.c **** 	displayControlHelper();
 1319              		.loc 1 462 2 is_stmt 1 view .LVU294
 1320 000c FFF7FEFF 		bl	displayControlHelper
 1321              	.LVL101:
 463:Core/Src/Lcd.c **** }
 1322              		.loc 1 463 1 is_stmt 0 view .LVU295
 1323 0010 08BD     		pop	{r3, pc}
 1324              	.L93:
 1325 0012 00BF     		.align	2
 1326              	.L92:
 1327 0014 00000000 		.word	.LANCHOR0
 1328              		.cfi_endproc
 1329              	.LFE158:
 1331              		.section	.text.cursorOrDisplayShift,"ax",%progbits
 1332              		.align	1
 1333              		.global	cursorOrDisplayShift
 1334              		.syntax unified
 1335              		.thumb
 1336              		.thumb_func
ARM GAS  C:\Users\jack2\AppData\Local\Temp\ccQDisGo.s 			page 32


 1337              		.fpu fpv4-sp-d16
 1339              	cursorOrDisplayShift:
 1340              	.LVL102:
 1341              	.LFB159:
 464:Core/Src/Lcd.c **** 
 465:Core/Src/Lcd.c **** void cursorOrDisplayShift(int cOrD, int rOrL)
 466:Core/Src/Lcd.c **** {
 1342              		.loc 1 466 1 is_stmt 1 view -0
 1343              		.cfi_startproc
 1344              		@ args = 0, pretend = 0, frame = 0
 1345              		@ frame_needed = 0, uses_anonymous_args = 0
 1346              		.loc 1 466 1 is_stmt 0 view .LVU297
 1347 0000 08B5     		push	{r3, lr}
 1348              		.cfi_def_cfa_offset 8
 1349              		.cfi_offset 3, -8
 1350              		.cfi_offset 14, -4
 467:Core/Src/Lcd.c **** 	uint8_t instruction = (0b00010000 | (cOrD << 3) | (rOrL << 2));
 1351              		.loc 1 467 2 is_stmt 1 view .LVU298
 1352              		.loc 1 467 44 is_stmt 0 view .LVU299
 1353 0002 C000     		lsls	r0, r0, #3
 1354              	.LVL103:
 1355              		.loc 1 467 36 view .LVU300
 1356 0004 40F01000 		orr	r0, r0, #16
 1357 0008 40B2     		sxtb	r0, r0
 1358              		.loc 1 467 50 view .LVU301
 1359 000a 40EA8100 		orr	r0, r0, r1, lsl #2
 1360              	.LVL104:
 468:Core/Src/Lcd.c **** 	sendInstruction(instruction);
 1361              		.loc 1 468 2 is_stmt 1 view .LVU302
 1362 000e 00F0FC00 		and	r0, r0, #252
 1363              	.LVL105:
 1364              		.loc 1 468 2 is_stmt 0 view .LVU303
 1365 0012 FFF7FEFF 		bl	sendInstruction
 1366              	.LVL106:
 469:Core/Src/Lcd.c **** }
 1367              		.loc 1 469 1 view .LVU304
 1368 0016 08BD     		pop	{r3, pc}
 1369              		.cfi_endproc
 1370              	.LFE159:
 1372              		.section	.text.cursorShift,"ax",%progbits
 1373              		.align	1
 1374              		.global	cursorShift
 1375              		.syntax unified
 1376              		.thumb
 1377              		.thumb_func
 1378              		.fpu fpv4-sp-d16
 1380              	cursorShift:
 1381              	.LVL107:
 1382              	.LFB160:
 470:Core/Src/Lcd.c **** 
 471:Core/Src/Lcd.c **** void cursorShift(int rOrL)
 472:Core/Src/Lcd.c **** {
 1383              		.loc 1 472 1 is_stmt 1 view -0
 1384              		.cfi_startproc
 1385              		@ args = 0, pretend = 0, frame = 0
 1386              		@ frame_needed = 0, uses_anonymous_args = 0
 1387              		.loc 1 472 1 is_stmt 0 view .LVU306
ARM GAS  C:\Users\jack2\AppData\Local\Temp\ccQDisGo.s 			page 33


 1388 0000 08B5     		push	{r3, lr}
 1389              		.cfi_def_cfa_offset 8
 1390              		.cfi_offset 3, -8
 1391              		.cfi_offset 14, -4
 1392 0002 0146     		mov	r1, r0
 473:Core/Src/Lcd.c **** 	cursorOrDisplayShift(0, rOrL);
 1393              		.loc 1 473 2 is_stmt 1 view .LVU307
 1394 0004 0020     		movs	r0, #0
 1395              	.LVL108:
 1396              		.loc 1 473 2 is_stmt 0 view .LVU308
 1397 0006 FFF7FEFF 		bl	cursorOrDisplayShift
 1398              	.LVL109:
 474:Core/Src/Lcd.c **** }
 1399              		.loc 1 474 1 view .LVU309
 1400 000a 08BD     		pop	{r3, pc}
 1401              		.cfi_endproc
 1402              	.LFE160:
 1404              		.section	.text.displayShift,"ax",%progbits
 1405              		.align	1
 1406              		.global	displayShift
 1407              		.syntax unified
 1408              		.thumb
 1409              		.thumb_func
 1410              		.fpu fpv4-sp-d16
 1412              	displayShift:
 1413              	.LVL110:
 1414              	.LFB161:
 475:Core/Src/Lcd.c **** 
 476:Core/Src/Lcd.c **** void displayShift(int rOrL)
 477:Core/Src/Lcd.c **** {
 1415              		.loc 1 477 1 is_stmt 1 view -0
 1416              		.cfi_startproc
 1417              		@ args = 0, pretend = 0, frame = 0
 1418              		@ frame_needed = 0, uses_anonymous_args = 0
 1419              		.loc 1 477 1 is_stmt 0 view .LVU311
 1420 0000 08B5     		push	{r3, lr}
 1421              		.cfi_def_cfa_offset 8
 1422              		.cfi_offset 3, -8
 1423              		.cfi_offset 14, -4
 1424 0002 0146     		mov	r1, r0
 478:Core/Src/Lcd.c **** 	cursorOrDisplayShift(1, rOrL);
 1425              		.loc 1 478 2 is_stmt 1 view .LVU312
 1426 0004 0120     		movs	r0, #1
 1427              	.LVL111:
 1428              		.loc 1 478 2 is_stmt 0 view .LVU313
 1429 0006 FFF7FEFF 		bl	cursorOrDisplayShift
 1430              	.LVL112:
 479:Core/Src/Lcd.c **** }
 1431              		.loc 1 479 1 view .LVU314
 1432 000a 08BD     		pop	{r3, pc}
 1433              		.cfi_endproc
 1434              	.LFE161:
 1436              		.section	.text.cursorShiftRight,"ax",%progbits
 1437              		.align	1
 1438              		.global	cursorShiftRight
 1439              		.syntax unified
 1440              		.thumb
ARM GAS  C:\Users\jack2\AppData\Local\Temp\ccQDisGo.s 			page 34


 1441              		.thumb_func
 1442              		.fpu fpv4-sp-d16
 1444              	cursorShiftRight:
 1445              	.LFB162:
 480:Core/Src/Lcd.c **** 
 481:Core/Src/Lcd.c **** void cursorShiftRight()
 482:Core/Src/Lcd.c **** {
 1446              		.loc 1 482 1 is_stmt 1 view -0
 1447              		.cfi_startproc
 1448              		@ args = 0, pretend = 0, frame = 0
 1449              		@ frame_needed = 0, uses_anonymous_args = 0
 1450 0000 08B5     		push	{r3, lr}
 1451              		.cfi_def_cfa_offset 8
 1452              		.cfi_offset 3, -8
 1453              		.cfi_offset 14, -4
 483:Core/Src/Lcd.c **** 	cursorOrDisplayShift(0, 1);
 1454              		.loc 1 483 2 view .LVU316
 1455 0002 0121     		movs	r1, #1
 1456 0004 0020     		movs	r0, #0
 1457 0006 FFF7FEFF 		bl	cursorOrDisplayShift
 1458              	.LVL113:
 484:Core/Src/Lcd.c **** }
 1459              		.loc 1 484 1 is_stmt 0 view .LVU317
 1460 000a 08BD     		pop	{r3, pc}
 1461              		.cfi_endproc
 1462              	.LFE162:
 1464              		.section	.text.cursorShiftLeft,"ax",%progbits
 1465              		.align	1
 1466              		.global	cursorShiftLeft
 1467              		.syntax unified
 1468              		.thumb
 1469              		.thumb_func
 1470              		.fpu fpv4-sp-d16
 1472              	cursorShiftLeft:
 1473              	.LFB163:
 485:Core/Src/Lcd.c **** 
 486:Core/Src/Lcd.c **** void cursorShiftLeft()
 487:Core/Src/Lcd.c **** {
 1474              		.loc 1 487 1 is_stmt 1 view -0
 1475              		.cfi_startproc
 1476              		@ args = 0, pretend = 0, frame = 0
 1477              		@ frame_needed = 0, uses_anonymous_args = 0
 1478 0000 08B5     		push	{r3, lr}
 1479              		.cfi_def_cfa_offset 8
 1480              		.cfi_offset 3, -8
 1481              		.cfi_offset 14, -4
 488:Core/Src/Lcd.c **** 	cursorOrDisplayShift(0, 0);
 1482              		.loc 1 488 2 view .LVU319
 1483 0002 0021     		movs	r1, #0
 1484 0004 0846     		mov	r0, r1
 1485 0006 FFF7FEFF 		bl	cursorOrDisplayShift
 1486              	.LVL114:
 489:Core/Src/Lcd.c **** }
 1487              		.loc 1 489 1 is_stmt 0 view .LVU320
 1488 000a 08BD     		pop	{r3, pc}
 1489              		.cfi_endproc
 1490              	.LFE163:
ARM GAS  C:\Users\jack2\AppData\Local\Temp\ccQDisGo.s 			page 35


 1492              		.section	.text.displayShiftRight,"ax",%progbits
 1493              		.align	1
 1494              		.global	displayShiftRight
 1495              		.syntax unified
 1496              		.thumb
 1497              		.thumb_func
 1498              		.fpu fpv4-sp-d16
 1500              	displayShiftRight:
 1501              	.LFB164:
 490:Core/Src/Lcd.c **** 
 491:Core/Src/Lcd.c **** void displayShiftRight()
 492:Core/Src/Lcd.c **** {
 1502              		.loc 1 492 1 is_stmt 1 view -0
 1503              		.cfi_startproc
 1504              		@ args = 0, pretend = 0, frame = 0
 1505              		@ frame_needed = 0, uses_anonymous_args = 0
 1506 0000 08B5     		push	{r3, lr}
 1507              		.cfi_def_cfa_offset 8
 1508              		.cfi_offset 3, -8
 1509              		.cfi_offset 14, -4
 493:Core/Src/Lcd.c **** 	cursorOrDisplayShift(1, 1);
 1510              		.loc 1 493 2 view .LVU322
 1511 0002 0121     		movs	r1, #1
 1512 0004 0846     		mov	r0, r1
 1513 0006 FFF7FEFF 		bl	cursorOrDisplayShift
 1514              	.LVL115:
 494:Core/Src/Lcd.c **** }
 1515              		.loc 1 494 1 is_stmt 0 view .LVU323
 1516 000a 08BD     		pop	{r3, pc}
 1517              		.cfi_endproc
 1518              	.LFE164:
 1520              		.section	.text.displayShiftLeft,"ax",%progbits
 1521              		.align	1
 1522              		.global	displayShiftLeft
 1523              		.syntax unified
 1524              		.thumb
 1525              		.thumb_func
 1526              		.fpu fpv4-sp-d16
 1528              	displayShiftLeft:
 1529              	.LFB165:
 495:Core/Src/Lcd.c **** 
 496:Core/Src/Lcd.c **** void displayShiftLeft()
 497:Core/Src/Lcd.c **** {
 1530              		.loc 1 497 1 is_stmt 1 view -0
 1531              		.cfi_startproc
 1532              		@ args = 0, pretend = 0, frame = 0
 1533              		@ frame_needed = 0, uses_anonymous_args = 0
 1534 0000 08B5     		push	{r3, lr}
 1535              		.cfi_def_cfa_offset 8
 1536              		.cfi_offset 3, -8
 1537              		.cfi_offset 14, -4
 498:Core/Src/Lcd.c **** 	cursorOrDisplayShift(1, 0);
 1538              		.loc 1 498 2 view .LVU325
 1539 0002 0021     		movs	r1, #0
 1540 0004 0120     		movs	r0, #1
 1541 0006 FFF7FEFF 		bl	cursorOrDisplayShift
 1542              	.LVL116:
ARM GAS  C:\Users\jack2\AppData\Local\Temp\ccQDisGo.s 			page 36


 499:Core/Src/Lcd.c **** }
 1543              		.loc 1 499 1 is_stmt 0 view .LVU326
 1544 000a 08BD     		pop	{r3, pc}
 1545              		.cfi_endproc
 1546              	.LFE165:
 1548              		.section	.text.functionSet,"ax",%progbits
 1549              		.align	1
 1550              		.global	functionSet
 1551              		.syntax unified
 1552              		.thumb
 1553              		.thumb_func
 1554              		.fpu fpv4-sp-d16
 1556              	functionSet:
 1557              	.LVL117:
 1558              	.LFB166:
 500:Core/Src/Lcd.c **** 
 501:Core/Src/Lcd.c **** #ifndef FOUR_BIT_OPERATION
 502:Core/Src/Lcd.c **** 
 503:Core/Src/Lcd.c **** void functionSet(int lines, int font)
 504:Core/Src/Lcd.c **** {
 505:Core/Src/Lcd.c **** 	int instruction = 0b00100000 | (1 << 4) | (lines << 3) | (font << 2);
 506:Core/Src/Lcd.c **** 	sendInstruction(instruction);	
 507:Core/Src/Lcd.c **** }
 508:Core/Src/Lcd.c **** 
 509:Core/Src/Lcd.c **** void functionSet2Lines5By8()
 510:Core/Src/Lcd.c **** {
 511:Core/Src/Lcd.c **** 	int instruction = 0b00100000 | (0 << 4) | (1 << 3) | (0 << 2);
 512:Core/Src/Lcd.c **** 	sendInstruction(instruction);
 513:Core/Src/Lcd.c **** }
 514:Core/Src/Lcd.c **** 
 515:Core/Src/Lcd.c **** void functionSet1Line5By8()
 516:Core/Src/Lcd.c **** {
 517:Core/Src/Lcd.c **** 	int instruction = 0b00100000 | (0 << 4) | (0 << 3) | (0 << 2);
 518:Core/Src/Lcd.c **** 	sendInstruction(instruction);
 519:Core/Src/Lcd.c **** }
 520:Core/Src/Lcd.c **** 
 521:Core/Src/Lcd.c **** void functionSet2Lines5By10()
 522:Core/Src/Lcd.c **** {
 523:Core/Src/Lcd.c **** 	int instruction = 0b00100000 | (0 << 4) | (1 << 3) | (1 << 2);
 524:Core/Src/Lcd.c **** 	sendInstruction(instruction);
 525:Core/Src/Lcd.c **** }
 526:Core/Src/Lcd.c **** 
 527:Core/Src/Lcd.c **** void functionSet1Line5By10()
 528:Core/Src/Lcd.c **** {
 529:Core/Src/Lcd.c **** 	int instruction = 0b00100000 | (0 << 4) | (0 << 3) | (1 << 2);
 530:Core/Src/Lcd.c **** 	sendInstruction(instruction);
 531:Core/Src/Lcd.c **** }
 532:Core/Src/Lcd.c **** 
 533:Core/Src/Lcd.c **** #else
 534:Core/Src/Lcd.c **** 
 535:Core/Src/Lcd.c **** void functionSet(int lines, int font)
 536:Core/Src/Lcd.c **** {
 1559              		.loc 1 536 1 is_stmt 1 view -0
 1560              		.cfi_startproc
 1561              		@ args = 0, pretend = 0, frame = 0
 1562              		@ frame_needed = 0, uses_anonymous_args = 0
 1563              		.loc 1 536 1 is_stmt 0 view .LVU328
ARM GAS  C:\Users\jack2\AppData\Local\Temp\ccQDisGo.s 			page 37


 1564 0000 08B5     		push	{r3, lr}
 1565              		.cfi_def_cfa_offset 8
 1566              		.cfi_offset 3, -8
 1567              		.cfi_offset 14, -4
 537:Core/Src/Lcd.c **** 	int instruction = 0b00100000 | (0 << 4) | (lines << 3) | (font << 2);
 1568              		.loc 1 537 2 is_stmt 1 view .LVU329
 1569              		.loc 1 537 51 is_stmt 0 view .LVU330
 1570 0002 C000     		lsls	r0, r0, #3
 1571              	.LVL118:
 1572              		.loc 1 537 42 view .LVU331
 1573 0004 40F02000 		orr	r0, r0, #32
 1574              		.loc 1 537 6 view .LVU332
 1575 0008 40EA8100 		orr	r0, r0, r1, lsl #2
 1576              	.LVL119:
 538:Core/Src/Lcd.c **** 	sendInstruction(instruction);
 1577              		.loc 1 538 2 is_stmt 1 view .LVU333
 1578 000c 00F0FC00 		and	r0, r0, #252
 1579              	.LVL120:
 1580              		.loc 1 538 2 is_stmt 0 view .LVU334
 1581 0010 FFF7FEFF 		bl	sendInstruction
 1582              	.LVL121:
 539:Core/Src/Lcd.c **** }
 1583              		.loc 1 539 1 view .LVU335
 1584 0014 08BD     		pop	{r3, pc}
 1585              		.cfi_endproc
 1586              	.LFE166:
 1588              		.section	.text.functionSet2Lines5By8,"ax",%progbits
 1589              		.align	1
 1590              		.global	functionSet2Lines5By8
 1591              		.syntax unified
 1592              		.thumb
 1593              		.thumb_func
 1594              		.fpu fpv4-sp-d16
 1596              	functionSet2Lines5By8:
 1597              	.LFB167:
 540:Core/Src/Lcd.c **** 
 541:Core/Src/Lcd.c **** void functionSet2Lines5By8()
 542:Core/Src/Lcd.c **** {
 1598              		.loc 1 542 1 is_stmt 1 view -0
 1599              		.cfi_startproc
 1600              		@ args = 0, pretend = 0, frame = 0
 1601              		@ frame_needed = 0, uses_anonymous_args = 0
 1602 0000 08B5     		push	{r3, lr}
 1603              		.cfi_def_cfa_offset 8
 1604              		.cfi_offset 3, -8
 1605              		.cfi_offset 14, -4
 543:Core/Src/Lcd.c **** 	int instruction = 0b00100000 | (0 << 4) | (1 << 3) | (0 << 2);
 1606              		.loc 1 543 2 view .LVU337
 1607              	.LVL122:
 544:Core/Src/Lcd.c **** 	sendInstruction(instruction);
 1608              		.loc 1 544 2 view .LVU338
 1609 0002 2820     		movs	r0, #40
 1610 0004 FFF7FEFF 		bl	sendInstruction
 1611              	.LVL123:
 545:Core/Src/Lcd.c **** }
 1612              		.loc 1 545 1 is_stmt 0 view .LVU339
 1613 0008 08BD     		pop	{r3, pc}
ARM GAS  C:\Users\jack2\AppData\Local\Temp\ccQDisGo.s 			page 38


 1614              		.cfi_endproc
 1615              	.LFE167:
 1617              		.section	.text.functionSet1Line5By8,"ax",%progbits
 1618              		.align	1
 1619              		.global	functionSet1Line5By8
 1620              		.syntax unified
 1621              		.thumb
 1622              		.thumb_func
 1623              		.fpu fpv4-sp-d16
 1625              	functionSet1Line5By8:
 1626              	.LFB168:
 546:Core/Src/Lcd.c **** 
 547:Core/Src/Lcd.c **** void functionSet1Line5By8()
 548:Core/Src/Lcd.c **** {
 1627              		.loc 1 548 1 is_stmt 1 view -0
 1628              		.cfi_startproc
 1629              		@ args = 0, pretend = 0, frame = 0
 1630              		@ frame_needed = 0, uses_anonymous_args = 0
 1631 0000 08B5     		push	{r3, lr}
 1632              		.cfi_def_cfa_offset 8
 1633              		.cfi_offset 3, -8
 1634              		.cfi_offset 14, -4
 549:Core/Src/Lcd.c **** 	int instruction = 0b00100000 | (0 << 4) | (0 << 3) | (0 << 2);
 1635              		.loc 1 549 2 view .LVU341
 1636              	.LVL124:
 550:Core/Src/Lcd.c **** 	sendInstruction(instruction);
 1637              		.loc 1 550 2 view .LVU342
 1638 0002 2020     		movs	r0, #32
 1639 0004 FFF7FEFF 		bl	sendInstruction
 1640              	.LVL125:
 551:Core/Src/Lcd.c **** }
 1641              		.loc 1 551 1 is_stmt 0 view .LVU343
 1642 0008 08BD     		pop	{r3, pc}
 1643              		.cfi_endproc
 1644              	.LFE168:
 1646              		.section	.text.functionSet2Lines5By10,"ax",%progbits
 1647              		.align	1
 1648              		.global	functionSet2Lines5By10
 1649              		.syntax unified
 1650              		.thumb
 1651              		.thumb_func
 1652              		.fpu fpv4-sp-d16
 1654              	functionSet2Lines5By10:
 1655              	.LFB169:
 552:Core/Src/Lcd.c **** 
 553:Core/Src/Lcd.c **** void functionSet2Lines5By10()
 554:Core/Src/Lcd.c **** {
 1656              		.loc 1 554 1 is_stmt 1 view -0
 1657              		.cfi_startproc
 1658              		@ args = 0, pretend = 0, frame = 0
 1659              		@ frame_needed = 0, uses_anonymous_args = 0
 1660 0000 08B5     		push	{r3, lr}
 1661              		.cfi_def_cfa_offset 8
 1662              		.cfi_offset 3, -8
 1663              		.cfi_offset 14, -4
 555:Core/Src/Lcd.c **** 	int instruction = 0b00100000 | (0 << 4) | (1 << 3) | (1 << 2);
 1664              		.loc 1 555 2 view .LVU345
ARM GAS  C:\Users\jack2\AppData\Local\Temp\ccQDisGo.s 			page 39


 1665              	.LVL126:
 556:Core/Src/Lcd.c **** 	sendInstruction(instruction);
 1666              		.loc 1 556 2 view .LVU346
 1667 0002 2C20     		movs	r0, #44
 1668 0004 FFF7FEFF 		bl	sendInstruction
 1669              	.LVL127:
 557:Core/Src/Lcd.c **** }
 1670              		.loc 1 557 1 is_stmt 0 view .LVU347
 1671 0008 08BD     		pop	{r3, pc}
 1672              		.cfi_endproc
 1673              	.LFE169:
 1675              		.section	.text.functionSet1Line5By10,"ax",%progbits
 1676              		.align	1
 1677              		.global	functionSet1Line5By10
 1678              		.syntax unified
 1679              		.thumb
 1680              		.thumb_func
 1681              		.fpu fpv4-sp-d16
 1683              	functionSet1Line5By10:
 1684              	.LFB170:
 558:Core/Src/Lcd.c **** 
 559:Core/Src/Lcd.c **** void functionSet1Line5By10()
 560:Core/Src/Lcd.c **** {
 1685              		.loc 1 560 1 is_stmt 1 view -0
 1686              		.cfi_startproc
 1687              		@ args = 0, pretend = 0, frame = 0
 1688              		@ frame_needed = 0, uses_anonymous_args = 0
 1689 0000 08B5     		push	{r3, lr}
 1690              		.cfi_def_cfa_offset 8
 1691              		.cfi_offset 3, -8
 1692              		.cfi_offset 14, -4
 561:Core/Src/Lcd.c **** 	int instruction = 0b00100000 | (0 << 4) | (0 << 3) | (1 << 2);
 1693              		.loc 1 561 2 view .LVU349
 1694              	.LVL128:
 562:Core/Src/Lcd.c **** 	sendInstruction(instruction);
 1695              		.loc 1 562 2 view .LVU350
 1696 0002 2420     		movs	r0, #36
 1697 0004 FFF7FEFF 		bl	sendInstruction
 1698              	.LVL129:
 563:Core/Src/Lcd.c **** }
 1699              		.loc 1 563 1 is_stmt 0 view .LVU351
 1700 0008 08BD     		pop	{r3, pc}
 1701              		.cfi_endproc
 1702              	.LFE170:
 1704              		.section	.text.lcdPrintString,"ax",%progbits
 1705              		.align	1
 1706              		.global	lcdPrintString
 1707              		.syntax unified
 1708              		.thumb
 1709              		.thumb_func
 1710              		.fpu fpv4-sp-d16
 1712              	lcdPrintString:
 1713              	.LVL130:
 1714              	.LFB171:
 564:Core/Src/Lcd.c **** 
 565:Core/Src/Lcd.c **** #endif
 566:Core/Src/Lcd.c **** 
ARM GAS  C:\Users\jack2\AppData\Local\Temp\ccQDisGo.s 			page 40


 567:Core/Src/Lcd.c **** void lcdPrintString(char* string)
 568:Core/Src/Lcd.c **** {
 1715              		.loc 1 568 1 is_stmt 1 view -0
 1716              		.cfi_startproc
 1717              		@ args = 0, pretend = 0, frame = 0
 1718              		@ frame_needed = 0, uses_anonymous_args = 0
 1719              		.loc 1 568 1 is_stmt 0 view .LVU353
 1720 0000 38B5     		push	{r3, r4, r5, lr}
 1721              		.cfi_def_cfa_offset 16
 1722              		.cfi_offset 3, -16
 1723              		.cfi_offset 4, -12
 1724              		.cfi_offset 5, -8
 1725              		.cfi_offset 14, -4
 1726 0002 0546     		mov	r5, r0
 569:Core/Src/Lcd.c **** 	for (int i = 0; string[i] != '\0'; i++)
 1727              		.loc 1 569 2 is_stmt 1 view .LVU354
 1728              	.LBB2:
 1729              		.loc 1 569 7 view .LVU355
 1730              	.LVL131:
 1731              		.loc 1 569 11 is_stmt 0 view .LVU356
 1732 0004 0024     		movs	r4, #0
 1733              		.loc 1 569 2 view .LVU357
 1734 0006 02E0     		b	.L119
 1735              	.LVL132:
 1736              	.L120:
 570:Core/Src/Lcd.c **** 	{
 571:Core/Src/Lcd.c **** 		writeDisplay(string[i]);
 1737              		.loc 1 571 3 is_stmt 1 discriminator 3 view .LVU358
 1738 0008 FFF7FEFF 		bl	writeDisplay
 1739              	.LVL133:
 569:Core/Src/Lcd.c **** 	for (int i = 0; string[i] != '\0'; i++)
 1740              		.loc 1 569 37 discriminator 3 view .LVU359
 569:Core/Src/Lcd.c **** 	for (int i = 0; string[i] != '\0'; i++)
 1741              		.loc 1 569 38 is_stmt 0 discriminator 3 view .LVU360
 1742 000c 0134     		adds	r4, r4, #1
 1743              	.LVL134:
 1744              	.L119:
 569:Core/Src/Lcd.c **** 	for (int i = 0; string[i] != '\0'; i++)
 1745              		.loc 1 569 18 is_stmt 1 discriminator 1 view .LVU361
 569:Core/Src/Lcd.c **** 	for (int i = 0; string[i] != '\0'; i++)
 1746              		.loc 1 569 24 is_stmt 0 discriminator 1 view .LVU362
 1747 000e 285D     		ldrb	r0, [r5, r4]	@ zero_extendqisi2
 569:Core/Src/Lcd.c **** 	for (int i = 0; string[i] != '\0'; i++)
 1748              		.loc 1 569 2 discriminator 1 view .LVU363
 1749 0010 0028     		cmp	r0, #0
 1750 0012 F9D1     		bne	.L120
 1751              	.LBE2:
 572:Core/Src/Lcd.c **** 	}
 573:Core/Src/Lcd.c **** }
 1752              		.loc 1 573 1 view .LVU364
 1753 0014 38BD     		pop	{r3, r4, r5, pc}
 1754              		.loc 1 573 1 view .LVU365
 1755              		.cfi_endproc
 1756              	.LFE171:
 1758              		.section	.text.lcdPrintf,"ax",%progbits
 1759              		.align	1
 1760              		.global	lcdPrintf
ARM GAS  C:\Users\jack2\AppData\Local\Temp\ccQDisGo.s 			page 41


 1761              		.syntax unified
 1762              		.thumb
 1763              		.thumb_func
 1764              		.fpu fpv4-sp-d16
 1766              	lcdPrintf:
 1767              	.LVL135:
 1768              	.LFB172:
 574:Core/Src/Lcd.c **** 
 575:Core/Src/Lcd.c **** void lcdPrintf(char *format, ...)
 576:Core/Src/Lcd.c **** {
 1769              		.loc 1 576 1 is_stmt 1 view -0
 1770              		.cfi_startproc
 1771              		@ args = 4, pretend = 16, frame = 24
 1772              		@ frame_needed = 0, uses_anonymous_args = 1
 1773              		.loc 1 576 1 is_stmt 0 view .LVU367
 1774 0000 0FB4     		push	{r0, r1, r2, r3}
 1775              		.cfi_def_cfa_offset 16
 1776              		.cfi_offset 0, -16
 1777              		.cfi_offset 1, -12
 1778              		.cfi_offset 2, -8
 1779              		.cfi_offset 3, -4
 1780 0002 00B5     		push	{lr}
 1781              		.cfi_def_cfa_offset 20
 1782              		.cfi_offset 14, -20
 1783 0004 87B0     		sub	sp, sp, #28
 1784              		.cfi_def_cfa_offset 48
 1785 0006 08AB     		add	r3, sp, #32
 1786 0008 53F8042B 		ldr	r2, [r3], #4
 577:Core/Src/Lcd.c **** 	va_list args;
 1787              		.loc 1 577 2 is_stmt 1 view .LVU368
 578:Core/Src/Lcd.c **** 	va_start(args, format);
 1788              		.loc 1 578 2 view .LVU369
 1789 000c 0593     		str	r3, [sp, #20]
 579:Core/Src/Lcd.c **** 	char string[LCD_COL_COUNT];
 1790              		.loc 1 579 2 view .LVU370
 580:Core/Src/Lcd.c **** 	vsnprintf(string, LCD_COL_COUNT, format, args);
 1791              		.loc 1 580 2 view .LVU371
 1792 000e 1021     		movs	r1, #16
 1793 0010 01A8     		add	r0, sp, #4
 1794 0012 FFF7FEFF 		bl	vsnprintf
 1795              	.LVL136:
 581:Core/Src/Lcd.c **** 
 582:Core/Src/Lcd.c **** 	lcdPrintString(string);
 1796              		.loc 1 582 2 view .LVU372
 1797 0016 01A8     		add	r0, sp, #4
 1798 0018 FFF7FEFF 		bl	lcdPrintString
 1799              	.LVL137:
 583:Core/Src/Lcd.c **** }...
 1800              		.loc 1 583 1 is_stmt 0 view .LVU373
 1801 001c 07B0     		add	sp, sp, #28
 1802              		.cfi_def_cfa_offset 20
 1803              		@ sp needed
 1804 001e 5DF804EB 		ldr	lr, [sp], #4
 1805              		.cfi_restore 14
 1806              		.cfi_def_cfa_offset 16
 1807 0022 04B0     		add	sp, sp, #16
 1808              		.cfi_restore 3
ARM GAS  C:\Users\jack2\AppData\Local\Temp\ccQDisGo.s 			page 42


 1809              		.cfi_restore 2
 1810              		.cfi_restore 1
 1811              		.cfi_restore 0
 1812              		.cfi_def_cfa_offset 0
 1813 0024 7047     		bx	lr
 1814              		.cfi_endproc
 1815              	.LFE172:
 1817              		.global	displayMode
 1818              		.section	.data.displayMode,"aw"
 1819              		.set	.LANCHOR0,. + 0
 1822              	displayMode:
 1823 0000 08       		.byte	8
 1824              		.text
 1825              	.Letext0:
 1826              		.file 2 "c:\\programdata\\chocolatey\\lib\\gcc-arm-embedded\\tools\\gcc-arm-none-eabi-10-2020-q4-m
 1827              		.file 3 "c:\\programdata\\chocolatey\\lib\\gcc-arm-embedded\\tools\\gcc-arm-none-eabi-10-2020-q4-m
 1828              		.file 4 "Drivers/CMSIS/Include/core_cm4.h"
 1829              		.file 5 "Drivers/CMSIS/Device/ST/STM32G4xx/Include/stm32g441xx.h"
 1830              		.file 6 "c:\\programdata\\chocolatey\\lib\\gcc-arm-embedded\\tools\\gcc-arm-none-eabi-10-2020-q4-m
 1831              		.file 7 "<built-in>"
 1832              		.file 8 "c:\\programdata\\chocolatey\\lib\\gcc-arm-embedded\\tools\\gcc-arm-none-eabi-10-2020-q4-m
ARM GAS  C:\Users\jack2\AppData\Local\Temp\ccQDisGo.s 			page 43

