ARM GAS  C:\Users\Jack2bs\AppData\Local\Temp\ccgh2QEb.s 			page 1


   1              		.cpu cortex-m4
   2              		.eabi_attribute 27, 1
   3              		.eabi_attribute 28, 1
   4              		.eabi_attribute 20, 1
   5              		.eabi_attribute 21, 1
   6              		.eabi_attribute 23, 3
   7              		.eabi_attribute 24, 1
   8              		.eabi_attribute 25, 1
   9              		.eabi_attribute 26, 1
  10              		.eabi_attribute 30, 1
  11              		.eabi_attribute 34, 1
  12              		.eabi_attribute 18, 4
  13              		.file	"main.c"
  14              		.text
  15              	.Ltext0:
  16              		.cfi_sections	.debug_frame
  17              		.section	.text.gpioB_Init,"ax",%progbits
  18              		.align	1
  19              		.global	gpioB_Init
  20              		.arch armv7e-m
  21              		.syntax unified
  22              		.thumb
  23              		.thumb_func
  24              		.fpu fpv4-sp-d16
  26              	gpioB_Init:
  27              	.LFB136:
  28              		.file 1 "Core/Src/main.c"
   1:Core/Src/main.c **** #include <stm32g441xx.h>
   2:Core/Src/main.c **** #include "main.h"
   3:Core/Src/main.c **** #include "Lcd.h"
   4:Core/Src/main.c **** #include "usb_device.h"
   5:Core/Src/main.c **** #include "usbd_cdc_if.h"
   6:Core/Src/main.c **** #include "7Seg.h"
   7:Core/Src/main.c **** 
   8:Core/Src/main.c **** USBD_HandleTypeDef* usbHandler;
   9:Core/Src/main.c **** uint8_t rxBuf[32];
  10:Core/Src/main.c **** uint8_t txBuf[32] = "HELLO THERE FRIEND\n";
  11:Core/Src/main.c **** 
  12:Core/Src/main.c **** void gpioB_Init(void)
  13:Core/Src/main.c **** {
  29              		.loc 1 13 1 view -0
  30              		.cfi_startproc
  31              		@ args = 0, pretend = 0, frame = 0
  32              		@ frame_needed = 0, uses_anonymous_args = 0
  33              		@ link register save eliminated.
  14:Core/Src/main.c **** 	// Enable the GPIO B Clock
  15:Core/Src/main.c **** 	RCC->AHB2ENR |= (1<<RCC_AHB2ENR_GPIOBEN_Pos);
  34              		.loc 1 15 2 view .LVU1
  35              		.loc 1 15 15 is_stmt 0 view .LVU2
  36 0000 084A     		ldr	r2, .L2
  37 0002 D36C     		ldr	r3, [r2, #76]
  38 0004 43F00203 		orr	r3, r3, #2
  39 0008 D364     		str	r3, [r2, #76]
  16:Core/Src/main.c **** 
  17:Core/Src/main.c **** 	// Set of PB9 to output
  18:Core/Src/main.c **** 	GPIOB->MODER &= ~(0b10<<GPIO_MODER_MODE9_Pos) & ~(0b10<<GPIO_MODER_MODE4_Pos) & ~(0b10<<GPIO_MODER
  40              		.loc 1 18 2 is_stmt 1 view .LVU3
ARM GAS  C:\Users\Jack2bs\AppData\Local\Temp\ccgh2QEb.s 			page 2


  41              		.loc 1 18 15 is_stmt 0 view .LVU4
  42 000a 074A     		ldr	r2, .L2+4
  43 000c 1368     		ldr	r3, [r2]
  44 000e 23F00223 		bic	r3, r3, #33554944
  45 0012 23F40803 		bic	r3, r3, #8912896
  46 0016 1360     		str	r3, [r2]
  19:Core/Src/main.c **** 
  20:Core/Src/main.c **** 	// Set PB9 High
  21:Core/Src/main.c **** 	GPIOB->BSRR |= (1<<GPIO_BSRR_BS9_Pos);
  47              		.loc 1 21 2 is_stmt 1 view .LVU5
  48              		.loc 1 21 14 is_stmt 0 view .LVU6
  49 0018 9369     		ldr	r3, [r2, #24]
  50 001a 43F40073 		orr	r3, r3, #512
  51 001e 9361     		str	r3, [r2, #24]
  22:Core/Src/main.c **** 
  23:Core/Src/main.c **** }
  52              		.loc 1 23 1 view .LVU7
  53 0020 7047     		bx	lr
  54              	.L3:
  55 0022 00BF     		.align	2
  56              	.L2:
  57 0024 00100240 		.word	1073876992
  58 0028 00040048 		.word	1207960576
  59              		.cfi_endproc
  60              	.LFE136:
  62              		.section	.text.gpioA_Init,"ax",%progbits
  63              		.align	1
  64              		.global	gpioA_Init
  65              		.syntax unified
  66              		.thumb
  67              		.thumb_func
  68              		.fpu fpv4-sp-d16
  70              	gpioA_Init:
  71              	.LFB137:
  24:Core/Src/main.c **** 
  25:Core/Src/main.c **** void gpioA_Init(void)
  26:Core/Src/main.c **** {
  72              		.loc 1 26 1 is_stmt 1 view -0
  73              		.cfi_startproc
  74              		@ args = 0, pretend = 0, frame = 0
  75              		@ frame_needed = 0, uses_anonymous_args = 0
  76              		@ link register save eliminated.
  27:Core/Src/main.c ****   	RCC->AHB2ENR |= (1<<RCC_AHB2ENR_GPIOAEN_Pos);
  77              		.loc 1 27 4 view .LVU9
  78              		.loc 1 27 17 is_stmt 0 view .LVU10
  79 0000 064A     		ldr	r2, .L5
  80 0002 D36C     		ldr	r3, [r2, #76]
  81 0004 43F00103 		orr	r3, r3, #1
  82 0008 D364     		str	r3, [r2, #76]
  28:Core/Src/main.c **** 	GPIOA->MODER = 0;
  83              		.loc 1 28 2 is_stmt 1 view .LVU11
  84              		.loc 1 28 15 is_stmt 0 view .LVU12
  85 000a 4FF09043 		mov	r3, #1207959552
  86 000e 0022     		movs	r2, #0
  87 0010 1A60     		str	r2, [r3]
  29:Core/Src/main.c **** 	GPIOA->MODER = 0x55555555;
  88              		.loc 1 29 2 is_stmt 1 view .LVU13
ARM GAS  C:\Users\Jack2bs\AppData\Local\Temp\ccgh2QEb.s 			page 3


  89              		.loc 1 29 15 is_stmt 0 view .LVU14
  90 0012 4FF05532 		mov	r2, #1431655765
  91 0016 1A60     		str	r2, [r3]
  30:Core/Src/main.c **** }
  92              		.loc 1 30 1 view .LVU15
  93 0018 7047     		bx	lr
  94              	.L6:
  95 001a 00BF     		.align	2
  96              	.L5:
  97 001c 00100240 		.word	1073876992
  98              		.cfi_endproc
  99              	.LFE137:
 101              		.section	.text.mainRCCInit,"ax",%progbits
 102              		.align	1
 103              		.global	mainRCCInit
 104              		.syntax unified
 105              		.thumb
 106              		.thumb_func
 107              		.fpu fpv4-sp-d16
 109              	mainRCCInit:
 110              	.LFB138:
  31:Core/Src/main.c **** 
  32:Core/Src/main.c **** void mainRCCInit(void)
  33:Core/Src/main.c **** {
 111              		.loc 1 33 1 is_stmt 1 view -0
 112              		.cfi_startproc
 113              		@ args = 0, pretend = 0, frame = 0
 114              		@ frame_needed = 0, uses_anonymous_args = 0
 115              		@ link register save eliminated.
  34:Core/Src/main.c **** 	// Turn on the HSE clock
  35:Core/Src/main.c **** 	RCC->CR |= (1<<RCC_CR_HSEON_Pos);
 116              		.loc 1 35 2 view .LVU17
 117              		.loc 1 35 10 is_stmt 0 view .LVU18
 118 0000 144A     		ldr	r2, .L10
 119 0002 1368     		ldr	r3, [r2]
 120 0004 43F48033 		orr	r3, r3, #65536
 121 0008 1360     		str	r3, [r2]
  36:Core/Src/main.c **** 
  37:Core/Src/main.c **** 	// While the HSE is getting ready, set the correct number of wait states
  38:Core/Src/main.c **** 	FLASH->ACR |= (0b11 << FLASH_ACR_LATENCY_Pos);
 122              		.loc 1 38 2 is_stmt 1 view .LVU19
 123              		.loc 1 38 13 is_stmt 0 view .LVU20
 124 000a 02F58052 		add	r2, r2, #4096
 125 000e 1368     		ldr	r3, [r2]
 126 0010 43F00303 		orr	r3, r3, #3
 127 0014 1360     		str	r3, [r2]
  39:Core/Src/main.c **** 
  40:Core/Src/main.c **** 	// Wait for the HSE clock to be ready
  41:Core/Src/main.c **** 	while (!(RCC->CR & (1<<RCC_CR_HSERDY_Pos)));
 128              		.loc 1 41 2 is_stmt 1 view .LVU21
 129              	.L8:
 130              		.loc 1 41 45 discriminator 1 view .LVU22
 131              		.loc 1 41 8 discriminator 1 view .LVU23
 132              		.loc 1 41 14 is_stmt 0 discriminator 1 view .LVU24
 133 0016 0F4B     		ldr	r3, .L10
 134 0018 1B68     		ldr	r3, [r3]
 135              		.loc 1 41 8 discriminator 1 view .LVU25
ARM GAS  C:\Users\Jack2bs\AppData\Local\Temp\ccgh2QEb.s 			page 4


 136 001a 13F4003F 		tst	r3, #131072
 137 001e FAD0     		beq	.L8
  42:Core/Src/main.c **** 
  43:Core/Src/main.c ****   	RCC->CCIPR |= (0b10<<RCC_CCIPR_CLK48SEL_Pos);
 138              		.loc 1 43 4 is_stmt 1 view .LVU26
 139              		.loc 1 43 15 is_stmt 0 view .LVU27
 140 0020 0C4B     		ldr	r3, .L10
 141 0022 D3F88820 		ldr	r2, [r3, #136]
 142 0026 42F00062 		orr	r2, r2, #134217728
 143 002a C3F88820 		str	r2, [r3, #136]
  44:Core/Src/main.c **** 
  45:Core/Src/main.c **** 	// Configure the PLL to 100mhz
  46:Core/Src/main.c **** 	RCC->PLLCFGR |= (0b11 << RCC_PLLCFGR_PLLSRC_Pos) 
 144              		.loc 1 46 2 is_stmt 1 view .LVU28
 145              		.loc 1 46 15 is_stmt 0 view .LVU29
 146 002e D968     		ldr	r1, [r3, #12]
 147 0030 094A     		ldr	r2, .L10+4
 148 0032 0A43     		orrs	r2, r2, r1
 149 0034 DA60     		str	r2, [r3, #12]
  47:Core/Src/main.c **** 		| (0b11 << RCC_PLLCFGR_PLLM_Pos) 
  48:Core/Src/main.c **** 		| (0b110000 << RCC_PLLCFGR_PLLN_Pos)
  49:Core/Src/main.c ****     	| (0b01 << RCC_PLLCFGR_PLLQ_Pos)
  50:Core/Src/main.c ****     	| (0b1 << RCC_PLLCFGR_PLLQEN_Pos);
  51:Core/Src/main.c **** 
  52:Core/Src/main.c **** 	// Turn on the PLL and wait for it to be ready
  53:Core/Src/main.c **** 	RCC->CR |= (1 << RCC_CR_PLLON_Pos);
 150              		.loc 1 53 2 is_stmt 1 view .LVU30
 151              		.loc 1 53 10 is_stmt 0 view .LVU31
 152 0036 1A68     		ldr	r2, [r3]
 153 0038 42F08072 		orr	r2, r2, #16777216
 154 003c 1A60     		str	r2, [r3]
  54:Core/Src/main.c **** 	while (!(RCC->CR & (1<<RCC_CR_PLLRDY_Pos)));
 155              		.loc 1 54 2 is_stmt 1 view .LVU32
 156              	.L9:
 157              		.loc 1 54 45 discriminator 1 view .LVU33
 158              		.loc 1 54 8 discriminator 1 view .LVU34
 159              		.loc 1 54 14 is_stmt 0 discriminator 1 view .LVU35
 160 003e 054B     		ldr	r3, .L10
 161 0040 1B68     		ldr	r3, [r3]
 162              		.loc 1 54 8 discriminator 1 view .LVU36
 163 0042 13F0007F 		tst	r3, #33554432
 164 0046 FAD0     		beq	.L9
  55:Core/Src/main.c **** 
  56:Core/Src/main.c **** 	// Set the system clock as the output of the PLL
  57:Core/Src/main.c **** 	RCC->CFGR |= (0b11 << RCC_CFGR_SW_Pos);
 165              		.loc 1 57 2 is_stmt 1 view .LVU37
 166              		.loc 1 57 12 is_stmt 0 view .LVU38
 167 0048 024A     		ldr	r2, .L10
 168 004a 9368     		ldr	r3, [r2, #8]
 169 004c 43F00303 		orr	r3, r3, #3
 170 0050 9360     		str	r3, [r2, #8]
  58:Core/Src/main.c **** }
 171              		.loc 1 58 1 view .LVU39
 172 0052 7047     		bx	lr
 173              	.L11:
 174              		.align	2
 175              	.L10:
ARM GAS  C:\Users\Jack2bs\AppData\Local\Temp\ccgh2QEb.s 			page 5


 176 0054 00100240 		.word	1073876992
 177 0058 33303000 		.word	3158067
 178              		.cfi_endproc
 179              	.LFE138:
 181              		.section	.text.contrastInit,"ax",%progbits
 182              		.align	1
 183              		.global	contrastInit
 184              		.syntax unified
 185              		.thumb
 186              		.thumb_func
 187              		.fpu fpv4-sp-d16
 189              	contrastInit:
 190              	.LFB139:
  59:Core/Src/main.c **** 
  60:Core/Src/main.c **** void contrastInit(void)
  61:Core/Src/main.c **** {
 191              		.loc 1 61 1 is_stmt 1 view -0
 192              		.cfi_startproc
 193              		@ args = 0, pretend = 0, frame = 0
 194              		@ frame_needed = 0, uses_anonymous_args = 0
 195              		@ link register save eliminated.
  62:Core/Src/main.c **** 	// Enable the clock for DAC 1 and for GPIOA (so that A4 can be put in AF mode)
  63:Core/Src/main.c **** 	RCC->AHB2ENR |= (1<<RCC_AHB2ENR_DAC1EN_Pos);
 196              		.loc 1 63 2 view .LVU41
 197              		.loc 1 63 15 is_stmt 0 view .LVU42
 198 0000 094A     		ldr	r2, .L13
 199 0002 D36C     		ldr	r3, [r2, #76]
 200 0004 43F48033 		orr	r3, r3, #65536
 201 0008 D364     		str	r3, [r2, #76]
  64:Core/Src/main.c **** 
  65:Core/Src/main.c **** 	// Enable Dac1 channel 1
  66:Core/Src/main.c **** 	DAC1->CR |= (1<<DAC_CR_EN1_Pos);
 202              		.loc 1 66 2 is_stmt 1 view .LVU43
 203              		.loc 1 66 11 is_stmt 0 view .LVU44
 204 000a 084B     		ldr	r3, .L13+4
 205 000c 1A68     		ldr	r2, [r3]
 206 000e 42F00102 		orr	r2, r2, #1
 207 0012 1A60     		str	r2, [r3]
  67:Core/Src/main.c **** 
  68:Core/Src/main.c **** 	// Fill in the value for the dac to convert (Currently 64/255 which is equivalent to 3.3/4 V)
  69:Core/Src/main.c **** 	DAC1->DHR8R1 |= (0b1000000<<DAC_DHR8R1_DACC1DHR_Pos);
 208              		.loc 1 69 2 is_stmt 1 view .LVU45
 209              		.loc 1 69 15 is_stmt 0 view .LVU46
 210 0014 1A69     		ldr	r2, [r3, #16]
 211 0016 42F04002 		orr	r2, r2, #64
 212 001a 1A61     		str	r2, [r3, #16]
  70:Core/Src/main.c **** 
  71:Core/Src/main.c **** 	// Trigger the dac to make a conversion
  72:Core/Src/main.c **** 	DAC1->SWTRIGR |= (1<<DAC_SWTRIGR_SWTRIG1_Pos);
 213              		.loc 1 72 2 is_stmt 1 view .LVU47
 214              		.loc 1 72 16 is_stmt 0 view .LVU48
 215 001c 5A68     		ldr	r2, [r3, #4]
 216 001e 42F00102 		orr	r2, r2, #1
 217 0022 5A60     		str	r2, [r3, #4]
  73:Core/Src/main.c **** 
  74:Core/Src/main.c **** }
 218              		.loc 1 74 1 view .LVU49
ARM GAS  C:\Users\Jack2bs\AppData\Local\Temp\ccgh2QEb.s 			page 6


 219 0024 7047     		bx	lr
 220              	.L14:
 221 0026 00BF     		.align	2
 222              	.L13:
 223 0028 00100240 		.word	1073876992
 224 002c 00080050 		.word	1342179328
 225              		.cfi_endproc
 226              	.LFE139:
 228              		.section	.text.rtcInit,"ax",%progbits
 229              		.align	1
 230              		.global	rtcInit
 231              		.syntax unified
 232              		.thumb
 233              		.thumb_func
 234              		.fpu fpv4-sp-d16
 236              	rtcInit:
 237              	.LFB140:
  75:Core/Src/main.c **** 
  76:Core/Src/main.c **** void rtcInit(void)
  77:Core/Src/main.c **** {
 238              		.loc 1 77 1 is_stmt 1 view -0
 239              		.cfi_startproc
 240              		@ args = 0, pretend = 0, frame = 0
 241              		@ frame_needed = 0, uses_anonymous_args = 0
 242              		@ link register save eliminated.
  78:Core/Src/main.c **** 	
  79:Core/Src/main.c **** 
  80:Core/Src/main.c **** 	// Enable the peripheral bus clk to the RTC
  81:Core/Src/main.c **** 	RCC->APB1ENR1 |= (1<<RCC_APB1ENR1_PWREN_Pos);
 243              		.loc 1 81 2 view .LVU51
 244              		.loc 1 81 16 is_stmt 0 view .LVU52
 245 0000 274B     		ldr	r3, .L19
 246 0002 9A6D     		ldr	r2, [r3, #88]
 247 0004 42F08052 		orr	r2, r2, #268435456
 248 0008 9A65     		str	r2, [r3, #88]
  82:Core/Src/main.c **** 
  83:Core/Src/main.c **** 	PWR->CR1 |= (1<<PWR_CR1_DBP_Pos);
 249              		.loc 1 83 2 is_stmt 1 view .LVU53
 250              		.loc 1 83 11 is_stmt 0 view .LVU54
 251 000a 2649     		ldr	r1, .L19+4
 252 000c 0A68     		ldr	r2, [r1]
 253 000e 42F48072 		orr	r2, r2, #256
 254 0012 0A60     		str	r2, [r1]
  84:Core/Src/main.c **** 
  85:Core/Src/main.c **** 	RCC->APB1ENR1 |= (1<<RCC_APB1ENR1_RTCAPBEN_Pos);
 255              		.loc 1 85 2 is_stmt 1 view .LVU55
 256              		.loc 1 85 16 is_stmt 0 view .LVU56
 257 0014 9A6D     		ldr	r2, [r3, #88]
 258 0016 42F48062 		orr	r2, r2, #1024
 259 001a 9A65     		str	r2, [r3, #88]
  86:Core/Src/main.c **** 
  87:Core/Src/main.c **** 	// Enable the LSE and wait for it to work
  88:Core/Src/main.c **** 	RCC->BDCR |= (1<<RCC_BDCR_LSEON_Pos);
 260              		.loc 1 88 2 is_stmt 1 view .LVU57
 261              		.loc 1 88 12 is_stmt 0 view .LVU58
 262 001c D3F89020 		ldr	r2, [r3, #144]
 263 0020 42F00102 		orr	r2, r2, #1
ARM GAS  C:\Users\Jack2bs\AppData\Local\Temp\ccgh2QEb.s 			page 7


 264 0024 C3F89020 		str	r2, [r3, #144]
  89:Core/Src/main.c **** 	while (!(RCC->BDCR & (1<<RCC_BDCR_LSERDY_Pos))); 
 265              		.loc 1 89 2 is_stmt 1 view .LVU59
 266              	.L16:
 267              		.loc 1 89 49 discriminator 1 view .LVU60
 268              		.loc 1 89 8 discriminator 1 view .LVU61
 269              		.loc 1 89 14 is_stmt 0 discriminator 1 view .LVU62
 270 0028 1D4B     		ldr	r3, .L19
 271 002a D3F89030 		ldr	r3, [r3, #144]
 272              		.loc 1 89 8 discriminator 1 view .LVU63
 273 002e 13F0020F 		tst	r3, #2
 274 0032 F9D0     		beq	.L16
  90:Core/Src/main.c **** 
  91:Core/Src/main.c **** 
  92:Core/Src/main.c **** 
  93:Core/Src/main.c **** 	// Select LSE for the RTC and Enable the RTC
  94:Core/Src/main.c **** 	RCC->BDCR &= ~(0b11<<RCC_BDCR_RTCSEL_Pos);
 275              		.loc 1 94 2 is_stmt 1 view .LVU64
 276              		.loc 1 94 12 is_stmt 0 view .LVU65
 277 0034 1A4B     		ldr	r3, .L19
 278 0036 D3F89020 		ldr	r2, [r3, #144]
 279 003a 22F44072 		bic	r2, r2, #768
 280 003e C3F89020 		str	r2, [r3, #144]
  95:Core/Src/main.c **** 	RCC->BDCR |= (1<<RCC_BDCR_RTCSEL_Pos);
 281              		.loc 1 95 2 is_stmt 1 view .LVU66
 282              		.loc 1 95 12 is_stmt 0 view .LVU67
 283 0042 D3F89020 		ldr	r2, [r3, #144]
 284 0046 42F48072 		orr	r2, r2, #256
 285 004a C3F89020 		str	r2, [r3, #144]
  96:Core/Src/main.c **** 	RCC->BDCR |= (1<<RCC_BDCR_RTCEN_Pos);
 286              		.loc 1 96 2 is_stmt 1 view .LVU68
 287              		.loc 1 96 12 is_stmt 0 view .LVU69
 288 004e D3F89020 		ldr	r2, [r3, #144]
 289 0052 42F40042 		orr	r2, r2, #32768
 290 0056 C3F89020 		str	r2, [r3, #144]
  97:Core/Src/main.c **** 
  98:Core/Src/main.c **** 	// Get rid of the write protection
  99:Core/Src/main.c **** 	RTC->WPR = 0xCA;
 291              		.loc 1 99 2 is_stmt 1 view .LVU70
 292              		.loc 1 99 11 is_stmt 0 view .LVU71
 293 005a A3F5F433 		sub	r3, r3, #124928
 294 005e CA22     		movs	r2, #202
 295 0060 5A62     		str	r2, [r3, #36]
 100:Core/Src/main.c **** 	RTC->WPR = 0x53;
 296              		.loc 1 100 2 is_stmt 1 view .LVU72
 297              		.loc 1 100 11 is_stmt 0 view .LVU73
 298 0062 5322     		movs	r2, #83
 299 0064 5A62     		str	r2, [r3, #36]
 101:Core/Src/main.c **** 	// Put the RTC into initialization mode
 102:Core/Src/main.c **** 	RTC->ICSR |= (1<<RTC_ICSR_INIT_Pos);
 300              		.loc 1 102 2 is_stmt 1 view .LVU74
 301              		.loc 1 102 12 is_stmt 0 view .LVU75
 302 0066 DA68     		ldr	r2, [r3, #12]
 303 0068 42F08002 		orr	r2, r2, #128
 304 006c DA60     		str	r2, [r3, #12]
 103:Core/Src/main.c **** 	while (!(RTC->ICSR & (1<<RTC_ICSR_INITF_Pos)));
 305              		.loc 1 103 2 is_stmt 1 view .LVU76
ARM GAS  C:\Users\Jack2bs\AppData\Local\Temp\ccgh2QEb.s 			page 8


 306              	.L17:
 307              		.loc 1 103 48 discriminator 1 view .LVU77
 308              		.loc 1 103 8 discriminator 1 view .LVU78
 309              		.loc 1 103 14 is_stmt 0 discriminator 1 view .LVU79
 310 006e 0E4B     		ldr	r3, .L19+8
 311 0070 DB68     		ldr	r3, [r3, #12]
 312              		.loc 1 103 8 discriminator 1 view .LVU80
 313 0072 13F0400F 		tst	r3, #64
 314 0076 FAD0     		beq	.L17
 104:Core/Src/main.c **** 
 105:Core/Src/main.c **** 	// Set the current time and date
 106:Core/Src/main.c **** 	RTC->CR |= (1<<RTC_CR_FMT_Pos);
 315              		.loc 1 106 2 is_stmt 1 view .LVU81
 316              		.loc 1 106 10 is_stmt 0 view .LVU82
 317 0078 0B4B     		ldr	r3, .L19+8
 318 007a 9A69     		ldr	r2, [r3, #24]
 319 007c 42F04002 		orr	r2, r2, #64
 320 0080 9A61     		str	r2, [r3, #24]
 107:Core/Src/main.c **** 
 108:Core/Src/main.c **** 	RTC->TR = 0x0;
 321              		.loc 1 108 2 is_stmt 1 view .LVU83
 322              		.loc 1 108 10 is_stmt 0 view .LVU84
 323 0082 0022     		movs	r2, #0
 324 0084 1A60     		str	r2, [r3]
 109:Core/Src/main.c **** 	RTC->TR = (0b1<<RTC_TR_PM_Pos) | (0<<RTC_TR_HT_Pos) | (1<<RTC_TR_HU_Pos) | (4<<RTC_TR_MNT_Pos) | (
 325              		.loc 1 109 2 is_stmt 1 view .LVU85
 326              		.loc 1 109 10 is_stmt 0 view .LVU86
 327 0086 094A     		ldr	r2, .L19+12
 328 0088 1A60     		str	r2, [r3]
 110:Core/Src/main.c **** 
 111:Core/Src/main.c **** 	//RTC->DR |= ();
 112:Core/Src/main.c **** 
 113:Core/Src/main.c **** 	// Exit initialization mode
 114:Core/Src/main.c **** 	RTC->ICSR &= ~(1<<RTC_ICSR_INIT_Pos);
 329              		.loc 1 114 2 is_stmt 1 view .LVU87
 330              		.loc 1 114 12 is_stmt 0 view .LVU88
 331 008a DA68     		ldr	r2, [r3, #12]
 332 008c 22F08002 		bic	r2, r2, #128
 333 0090 DA60     		str	r2, [r3, #12]
 115:Core/Src/main.c **** 
 116:Core/Src/main.c **** 	// Cannot read until RSF is set
 117:Core/Src/main.c **** 	while (!(RTC->ICSR & (1<<RTC_ICSR_RSF_Pos)));
 334              		.loc 1 117 2 is_stmt 1 view .LVU89
 335              	.L18:
 336              		.loc 1 117 46 discriminator 1 view .LVU90
 337              		.loc 1 117 8 discriminator 1 view .LVU91
 338              		.loc 1 117 14 is_stmt 0 discriminator 1 view .LVU92
 339 0092 054B     		ldr	r3, .L19+8
 340 0094 DB68     		ldr	r3, [r3, #12]
 341              		.loc 1 117 8 discriminator 1 view .LVU93
 342 0096 13F0200F 		tst	r3, #32
 343 009a FAD0     		beq	.L18
 118:Core/Src/main.c **** 
 119:Core/Src/main.c **** }
 344              		.loc 1 119 1 view .LVU94
 345 009c 7047     		bx	lr
 346              	.L20:
ARM GAS  C:\Users\Jack2bs\AppData\Local\Temp\ccgh2QEb.s 			page 9


 347 009e 00BF     		.align	2
 348              	.L19:
 349 00a0 00100240 		.word	1073876992
 350 00a4 00700040 		.word	1073770496
 351 00a8 00280040 		.word	1073752064
 352 00ac 00444100 		.word	4277248
 353              		.cfi_endproc
 354              	.LFE140:
 356              		.section	.rodata.main.str1.4,"aMS",%progbits,1
 357              		.align	2
 358              	.LC0:
 359 0000 25302E32 		.ascii	"%0.2d:%0.2d:%0.2d     \000"
 359      643A2530 
 359      2E32643A 
 359      25302E32 
 359      64202020 
 360              		.section	.text.main,"ax",%progbits
 361              		.align	1
 362              		.global	main
 363              		.syntax unified
 364              		.thumb
 365              		.thumb_func
 366              		.fpu fpv4-sp-d16
 368              	main:
 369              	.LFB141:
 120:Core/Src/main.c **** 
 121:Core/Src/main.c **** int main(void)
 122:Core/Src/main.c **** {
 370              		.loc 1 122 1 is_stmt 1 view -0
 371              		.cfi_startproc
 372              		@ args = 0, pretend = 0, frame = 0
 373              		@ frame_needed = 0, uses_anonymous_args = 0
 374 0000 70B5     		push	{r4, r5, r6, lr}
 375              	.LCFI0:
 376              		.cfi_def_cfa_offset 16
 377              		.cfi_offset 4, -16
 378              		.cfi_offset 5, -12
 379              		.cfi_offset 6, -8
 380              		.cfi_offset 14, -4
 123:Core/Src/main.c **** 
 124:Core/Src/main.c **** 	HAL_Init();
 381              		.loc 1 124 2 view .LVU96
 382 0002 FFF7FEFF 		bl	HAL_Init
 383              	.LVL0:
 125:Core/Src/main.c **** 
 126:Core/Src/main.c **** 	// Initialize the clock
 127:Core/Src/main.c **** 	mainRCCInit();
 384              		.loc 1 127 2 view .LVU97
 385 0006 FFF7FEFF 		bl	mainRCCInit
 386              	.LVL1:
 128:Core/Src/main.c **** 
 129:Core/Src/main.c **** 	// Initialize GPIO Pin B
 130:Core/Src/main.c **** 	gpioB_Init();
 387              		.loc 1 130 2 view .LVU98
 388 000a FFF7FEFF 		bl	gpioB_Init
 389              	.LVL2:
 131:Core/Src/main.c **** 	gpioA_Init();
ARM GAS  C:\Users\Jack2bs\AppData\Local\Temp\ccgh2QEb.s 			page 10


 390              		.loc 1 131 2 view .LVU99
 391 000e FFF7FEFF 		bl	gpioA_Init
 392              	.LVL3:
 132:Core/Src/main.c **** 
 133:Core/Src/main.c **** 	RCC->APB1ENR1 |= (1<<RCC_APB1ENR1_USBEN_Pos);
 393              		.loc 1 133 2 view .LVU100
 394              		.loc 1 133 16 is_stmt 0 view .LVU101
 395 0012 394A     		ldr	r2, .L24
 396 0014 936D     		ldr	r3, [r2, #88]
 397 0016 43F40003 		orr	r3, r3, #8388608
 398 001a 9365     		str	r3, [r2, #88]
 134:Core/Src/main.c **** 	usbHandler = MX_USB_Device_Init(rxBuf, txBuf);
 399              		.loc 1 134 2 is_stmt 1 view .LVU102
 400              		.loc 1 134 15 is_stmt 0 view .LVU103
 401 001c 3749     		ldr	r1, .L24+4
 402 001e 3848     		ldr	r0, .L24+8
 403 0020 FFF7FEFF 		bl	MX_USB_Device_Init
 404              	.LVL4:
 405              		.loc 1 134 13 view .LVU104
 406 0024 374B     		ldr	r3, .L24+12
 407 0026 1860     		str	r0, [r3]
 135:Core/Src/main.c **** 
 136:Core/Src/main.c **** 
 137:Core/Src/main.c **** 	// Initialize the display
 138:Core/Src/main.c **** 	initDisplay();
 408              		.loc 1 138 2 is_stmt 1 view .LVU105
 409 0028 FFF7FEFF 		bl	initDisplay
 410              	.LVL5:
 139:Core/Src/main.c **** 	functionSet2Lines5By8();
 411              		.loc 1 139 2 view .LVU106
 412 002c FFF7FEFF 		bl	functionSet2Lines5By8
 413              	.LVL6:
 140:Core/Src/main.c **** 	displayControl(1,1,0);
 414              		.loc 1 140 2 view .LVU107
 415 0030 0022     		movs	r2, #0
 416 0032 0121     		movs	r1, #1
 417 0034 0846     		mov	r0, r1
 418 0036 FFF7FEFF 		bl	displayControl
 419              	.LVL7:
 141:Core/Src/main.c **** 	entryModeSet(1,0);
 420              		.loc 1 141 2 view .LVU108
 421 003a 0021     		movs	r1, #0
 422 003c 0120     		movs	r0, #1
 423 003e FFF7FEFF 		bl	entryModeSet
 424              	.LVL8:
 142:Core/Src/main.c **** 	contrastInit();
 425              		.loc 1 142 2 view .LVU109
 426 0042 FFF7FEFF 		bl	contrastInit
 427              	.LVL9:
 143:Core/Src/main.c **** 
 144:Core/Src/main.c **** 	rtcInit();
 428              		.loc 1 144 2 view .LVU110
 429 0046 FFF7FEFF 		bl	rtcInit
 430              	.LVL10:
 145:Core/Src/main.c **** 
 146:Core/Src/main.c **** 	//lcdPrintf("Test %d", 100);
 147:Core/Src/main.c **** 
ARM GAS  C:\Users\Jack2bs\AppData\Local\Temp\ccgh2QEb.s 			page 11


 148:Core/Src/main.c ****   	GPIOB->BSRR |= (1<<GPIO_BSRR_BR9_Pos);
 431              		.loc 1 148 4 view .LVU111
 432              		.loc 1 148 16 is_stmt 0 view .LVU112
 433 004a 2F4A     		ldr	r2, .L24+16
 434 004c 9369     		ldr	r3, [r2, #24]
 435 004e 43F00073 		orr	r3, r3, #33554432
 436 0052 9361     		str	r3, [r2, #24]
 149:Core/Src/main.c **** 
 150:Core/Src/main.c ****   	int sec = ((RTC->TR & (0b1111<<RTC_TR_SU_Pos)) >> RTC_TR_SU_Pos) + ((RTC->TR & (0b111<<RTC_TR_ST
 437              		.loc 1 150 4 is_stmt 1 view .LVU113
 438              		.loc 1 150 19 is_stmt 0 view .LVU114
 439 0054 2D48     		ldr	r0, .L24+20
 440 0056 0368     		ldr	r3, [r0]
 441              		.loc 1 150 51 view .LVU115
 442 0058 03F00F03 		and	r3, r3, #15
 443              		.loc 1 150 76 view .LVU116
 444 005c 0268     		ldr	r2, [r0]
 445              		.loc 1 150 107 view .LVU117
 446 005e C2F30212 		ubfx	r2, r2, #4, #3
 447              		.loc 1 150 125 view .LVU118
 448 0062 02EB8202 		add	r2, r2, r2, lsl #2
 449              	.LVL11:
 151:Core/Src/main.c **** 	int min = ((RTC->TR & (0b1111<<RTC_TR_MNU_Pos)) >> RTC_TR_MNU_Pos) + ((RTC->TR & (0b111<<RTC_TR_MN
 450              		.loc 1 151 2 is_stmt 1 view .LVU119
 451              		.loc 1 151 17 is_stmt 0 view .LVU120
 452 0066 0568     		ldr	r5, [r0]
 453              		.loc 1 151 50 view .LVU121
 454 0068 C5F30325 		ubfx	r5, r5, #8, #4
 455              		.loc 1 151 76 view .LVU122
 456 006c 0168     		ldr	r1, [r0]
 457              		.loc 1 151 108 view .LVU123
 458 006e C1F30231 		ubfx	r1, r1, #12, #3
 459              		.loc 1 151 127 view .LVU124
 460 0072 01EB8101 		add	r1, r1, r1, lsl #2
 461              	.LVL12:
 152:Core/Src/main.c **** 	int hour = ((RTC->TR & (0b1111<<RTC_TR_HU_Pos)) >> RTC_TR_HU_Pos) + ((RTC->TR & (0b11<<RTC_TR_HT_P
 462              		.loc 1 152 2 is_stmt 1 view .LVU125
 463              		.loc 1 152 18 is_stmt 0 view .LVU126
 464 0076 0468     		ldr	r4, [r0]
 465              		.loc 1 152 50 view .LVU127
 466 0078 C4F30344 		ubfx	r4, r4, #16, #4
 467              		.loc 1 152 75 view .LVU128
 468 007c 0068     		ldr	r0, [r0]
 469              		.loc 1 152 105 view .LVU129
 470 007e C0F30150 		ubfx	r0, r0, #20, #2
 471              		.loc 1 152 123 view .LVU130
 472 0082 00EB8000 		add	r0, r0, r0, lsl #2
 473              	.LVL13:
 153:Core/Src/main.c **** 	lcdPrintf("%0.2d:%0.2d:%0.2d     ", hour, min, sec);
 474              		.loc 1 153 2 is_stmt 1 view .LVU131
 475 0086 03EB4203 		add	r3, r3, r2, lsl #1
 476              	.LVL14:
 477              		.loc 1 153 2 is_stmt 0 view .LVU132
 478 008a 05EB4102 		add	r2, r5, r1, lsl #1
 479              	.LVL15:
 480              		.loc 1 153 2 view .LVU133
 481 008e 04EB4001 		add	r1, r4, r0, lsl #1
ARM GAS  C:\Users\Jack2bs\AppData\Local\Temp\ccgh2QEb.s 			page 12


 482              	.LVL16:
 483              		.loc 1 153 2 view .LVU134
 484 0092 1F48     		ldr	r0, .L24+24
 485 0094 FFF7FEFF 		bl	lcdPrintf
 486              	.LVL17:
 154:Core/Src/main.c **** 	returnHome();
 487              		.loc 1 154 2 is_stmt 1 view .LVU135
 488 0098 FFF7FEFF 		bl	returnHome
 489              	.LVL18:
 490              	.L22:
 155:Core/Src/main.c **** 
 156:Core/Src/main.c **** 	while (1)
 491              		.loc 1 156 2 discriminator 1 view .LVU136
 492              	.LBB4:
 157:Core/Src/main.c **** 	{
 158:Core/Src/main.c **** 		// for (int i = 0; i < 32; i++)
 159:Core/Src/main.c **** 		// {
 160:Core/Src/main.c **** 		// 	txBuf[i] = rxBuf[i];
 161:Core/Src/main.c **** 		// }
 162:Core/Src/main.c **** 		// txBuf[31] = '\n';
 163:Core/Src/main.c **** 		// while (CDC_Transmit_FS(txBuf, 32) != USBD_OK);
 164:Core/Src/main.c **** 
 165:Core/Src/main.c **** 
 166:Core/Src/main.c **** 
 167:Core/Src/main.c **** 
 168:Core/Src/main.c **** 
 169:Core/Src/main.c **** 		//HAL_Delay(250);
 170:Core/Src/main.c **** 		int sec = ((RTC->TR & (0b1111<<RTC_TR_SU_Pos)) >> RTC_TR_SU_Pos) + ((RTC->TR & (0b111<<RTC_TR_ST_
 493              		.loc 1 170 3 discriminator 1 view .LVU137
 494              		.loc 1 170 18 is_stmt 0 discriminator 1 view .LVU138
 495 009c 1B4B     		ldr	r3, .L24+20
 496 009e 1E68     		ldr	r6, [r3]
 497              		.loc 1 170 50 discriminator 1 view .LVU139
 498 00a0 06F00F06 		and	r6, r6, #15
 499              		.loc 1 170 75 discriminator 1 view .LVU140
 500 00a4 1A68     		ldr	r2, [r3]
 501              		.loc 1 170 106 discriminator 1 view .LVU141
 502 00a6 C2F30212 		ubfx	r2, r2, #4, #3
 503              		.loc 1 170 124 discriminator 1 view .LVU142
 504 00aa 02EB8202 		add	r2, r2, r2, lsl #2
 505              		.loc 1 170 68 discriminator 1 view .LVU143
 506 00ae 06EB4206 		add	r6, r6, r2, lsl #1
 507              	.LVL19:
 171:Core/Src/main.c **** 		int min = ((RTC->TR & (0b1111<<RTC_TR_MNU_Pos)) >> RTC_TR_MNU_Pos) + ((RTC->TR & (0b111<<RTC_TR_M
 508              		.loc 1 171 3 is_stmt 1 discriminator 1 view .LVU144
 509              		.loc 1 171 18 is_stmt 0 discriminator 1 view .LVU145
 510 00b2 1D68     		ldr	r5, [r3]
 511              		.loc 1 171 51 discriminator 1 view .LVU146
 512 00b4 C5F30325 		ubfx	r5, r5, #8, #4
 513              		.loc 1 171 77 discriminator 1 view .LVU147
 514 00b8 1A68     		ldr	r2, [r3]
 515              		.loc 1 171 109 discriminator 1 view .LVU148
 516 00ba C2F30232 		ubfx	r2, r2, #12, #3
 517              		.loc 1 171 128 discriminator 1 view .LVU149
 518 00be 02EB8202 		add	r2, r2, r2, lsl #2
 519              		.loc 1 171 70 discriminator 1 view .LVU150
 520 00c2 05EB4205 		add	r5, r5, r2, lsl #1
ARM GAS  C:\Users\Jack2bs\AppData\Local\Temp\ccgh2QEb.s 			page 13


 521              	.LVL20:
 172:Core/Src/main.c **** 		int hour = ((RTC->TR & (0b1111<<RTC_TR_HU_Pos)) >> RTC_TR_HU_Pos) + ((RTC->TR & (0b11<<RTC_TR_HT_
 522              		.loc 1 172 3 is_stmt 1 discriminator 1 view .LVU151
 523              		.loc 1 172 19 is_stmt 0 discriminator 1 view .LVU152
 524 00c6 1C68     		ldr	r4, [r3]
 525              		.loc 1 172 51 discriminator 1 view .LVU153
 526 00c8 C4F30344 		ubfx	r4, r4, #16, #4
 527              		.loc 1 172 76 discriminator 1 view .LVU154
 528 00cc 1A68     		ldr	r2, [r3]
 529              		.loc 1 172 106 discriminator 1 view .LVU155
 530 00ce C2F30152 		ubfx	r2, r2, #20, #2
 531              		.loc 1 172 124 discriminator 1 view .LVU156
 532 00d2 02EB8202 		add	r2, r2, r2, lsl #2
 533              		.loc 1 172 69 discriminator 1 view .LVU157
 534 00d6 04EB4204 		add	r4, r4, r2, lsl #1
 535              	.LVL21:
 173:Core/Src/main.c **** 
 174:Core/Src/main.c **** 		updateDisplayWithTime(hour, min);
 536              		.loc 1 174 3 is_stmt 1 discriminator 1 view .LVU158
 537 00da 2946     		mov	r1, r5
 538 00dc 2046     		mov	r0, r4
 539 00de FFF7FEFF 		bl	updateDisplayWithTime
 540              	.LVL22:
 175:Core/Src/main.c **** 		setDisplay();
 541              		.loc 1 175 3 discriminator 1 view .LVU159
 542 00e2 FFF7FEFF 		bl	setDisplay
 543              	.LVL23:
 176:Core/Src/main.c **** 
 177:Core/Src/main.c **** 		lcdPrintf("%0.2d:%0.2d:%0.2d     ", hour, min, sec);
 544              		.loc 1 177 3 discriminator 1 view .LVU160
 545 00e6 3346     		mov	r3, r6
 546 00e8 2A46     		mov	r2, r5
 547 00ea 2146     		mov	r1, r4
 548 00ec 0848     		ldr	r0, .L24+24
 549 00ee FFF7FEFF 		bl	lcdPrintf
 550              	.LVL24:
 178:Core/Src/main.c **** 		returnHome();
 551              		.loc 1 178 3 discriminator 1 view .LVU161
 552 00f2 FFF7FEFF 		bl	returnHome
 553              	.LVL25:
 554              	.LBE4:
 156:Core/Src/main.c **** 	{
 555              		.loc 1 156 8 discriminator 1 view .LVU162
 556 00f6 D1E7     		b	.L22
 557              	.L25:
 558              		.align	2
 559              	.L24:
 560 00f8 00100240 		.word	1073876992
 561 00fc 00000000 		.word	.LANCHOR0
 562 0100 00000000 		.word	.LANCHOR1
 563 0104 00000000 		.word	.LANCHOR2
 564 0108 00040048 		.word	1207960576
 565 010c 00280040 		.word	1073752064
 566 0110 00000000 		.word	.LC0
 567              		.cfi_endproc
 568              	.LFE141:
 570              		.section	.text.Error_Handler,"ax",%progbits
ARM GAS  C:\Users\Jack2bs\AppData\Local\Temp\ccgh2QEb.s 			page 14


 571              		.align	1
 572              		.global	Error_Handler
 573              		.syntax unified
 574              		.thumb
 575              		.thumb_func
 576              		.fpu fpv4-sp-d16
 578              	Error_Handler:
 579              	.LFB142:
 179:Core/Src/main.c **** 	}
 180:Core/Src/main.c **** 	
 181:Core/Src/main.c **** }
 182:Core/Src/main.c **** 
 183:Core/Src/main.c **** void Error_Handler(void)
 184:Core/Src/main.c **** {
 580              		.loc 1 184 1 view -0
 581              		.cfi_startproc
 582              		@ Volatile: function does not return.
 583              		@ args = 0, pretend = 0, frame = 0
 584              		@ frame_needed = 0, uses_anonymous_args = 0
 585              		@ link register save eliminated.
 185:Core/Src/main.c ****   /* USER CODE BEGIN Error_Handler_Debug */
 186:Core/Src/main.c ****   /* User can add his own implementation to report the HAL error return state */
 187:Core/Src/main.c ****   __disable_irq();
 586              		.loc 1 187 3 view .LVU164
 587              	.LBB5:
 588              	.LBI5:
 589              		.file 2 "Drivers/CMSIS/Include/cmsis_gcc.h"
   1:Drivers/CMSIS/Include/cmsis_gcc.h **** /**************************************************************************//**
   2:Drivers/CMSIS/Include/cmsis_gcc.h ****  * @file     cmsis_gcc.h
   3:Drivers/CMSIS/Include/cmsis_gcc.h ****  * @brief    CMSIS compiler GCC header file
   4:Drivers/CMSIS/Include/cmsis_gcc.h ****  * @version  V5.2.0
   5:Drivers/CMSIS/Include/cmsis_gcc.h ****  * @date     08. May 2019
   6:Drivers/CMSIS/Include/cmsis_gcc.h ****  ******************************************************************************/
   7:Drivers/CMSIS/Include/cmsis_gcc.h **** /*
   8:Drivers/CMSIS/Include/cmsis_gcc.h ****  * Copyright (c) 2009-2019 Arm Limited. All rights reserved.
   9:Drivers/CMSIS/Include/cmsis_gcc.h ****  *
  10:Drivers/CMSIS/Include/cmsis_gcc.h ****  * SPDX-License-Identifier: Apache-2.0
  11:Drivers/CMSIS/Include/cmsis_gcc.h ****  *
  12:Drivers/CMSIS/Include/cmsis_gcc.h ****  * Licensed under the Apache License, Version 2.0 (the License); you may
  13:Drivers/CMSIS/Include/cmsis_gcc.h ****  * not use this file except in compliance with the License.
  14:Drivers/CMSIS/Include/cmsis_gcc.h ****  * You may obtain a copy of the License at
  15:Drivers/CMSIS/Include/cmsis_gcc.h ****  *
  16:Drivers/CMSIS/Include/cmsis_gcc.h ****  * www.apache.org/licenses/LICENSE-2.0
  17:Drivers/CMSIS/Include/cmsis_gcc.h ****  *
  18:Drivers/CMSIS/Include/cmsis_gcc.h ****  * Unless required by applicable law or agreed to in writing, software
  19:Drivers/CMSIS/Include/cmsis_gcc.h ****  * distributed under the License is distributed on an AS IS BASIS, WITHOUT
  20:Drivers/CMSIS/Include/cmsis_gcc.h ****  * WARRANTIES OR CONDITIONS OF ANY KIND, either express or implied.
  21:Drivers/CMSIS/Include/cmsis_gcc.h ****  * See the License for the specific language governing permissions and
  22:Drivers/CMSIS/Include/cmsis_gcc.h ****  * limitations under the License.
  23:Drivers/CMSIS/Include/cmsis_gcc.h ****  */
  24:Drivers/CMSIS/Include/cmsis_gcc.h **** 
  25:Drivers/CMSIS/Include/cmsis_gcc.h **** #ifndef __CMSIS_GCC_H
  26:Drivers/CMSIS/Include/cmsis_gcc.h **** #define __CMSIS_GCC_H
  27:Drivers/CMSIS/Include/cmsis_gcc.h **** 
  28:Drivers/CMSIS/Include/cmsis_gcc.h **** /* ignore some GCC warnings */
  29:Drivers/CMSIS/Include/cmsis_gcc.h **** #pragma GCC diagnostic push
  30:Drivers/CMSIS/Include/cmsis_gcc.h **** #pragma GCC diagnostic ignored "-Wsign-conversion"
ARM GAS  C:\Users\Jack2bs\AppData\Local\Temp\ccgh2QEb.s 			page 15


  31:Drivers/CMSIS/Include/cmsis_gcc.h **** #pragma GCC diagnostic ignored "-Wconversion"
  32:Drivers/CMSIS/Include/cmsis_gcc.h **** #pragma GCC diagnostic ignored "-Wunused-parameter"
  33:Drivers/CMSIS/Include/cmsis_gcc.h **** 
  34:Drivers/CMSIS/Include/cmsis_gcc.h **** /* Fallback for __has_builtin */
  35:Drivers/CMSIS/Include/cmsis_gcc.h **** #ifndef __has_builtin
  36:Drivers/CMSIS/Include/cmsis_gcc.h ****   #define __has_builtin(x) (0)
  37:Drivers/CMSIS/Include/cmsis_gcc.h **** #endif
  38:Drivers/CMSIS/Include/cmsis_gcc.h **** 
  39:Drivers/CMSIS/Include/cmsis_gcc.h **** /* CMSIS compiler specific defines */
  40:Drivers/CMSIS/Include/cmsis_gcc.h **** #ifndef   __ASM
  41:Drivers/CMSIS/Include/cmsis_gcc.h ****   #define __ASM                                  __asm
  42:Drivers/CMSIS/Include/cmsis_gcc.h **** #endif
  43:Drivers/CMSIS/Include/cmsis_gcc.h **** #ifndef   __INLINE
  44:Drivers/CMSIS/Include/cmsis_gcc.h ****   #define __INLINE                               inline
  45:Drivers/CMSIS/Include/cmsis_gcc.h **** #endif
  46:Drivers/CMSIS/Include/cmsis_gcc.h **** #ifndef   __STATIC_INLINE
  47:Drivers/CMSIS/Include/cmsis_gcc.h ****   #define __STATIC_INLINE                        static inline
  48:Drivers/CMSIS/Include/cmsis_gcc.h **** #endif
  49:Drivers/CMSIS/Include/cmsis_gcc.h **** #ifndef   __STATIC_FORCEINLINE                 
  50:Drivers/CMSIS/Include/cmsis_gcc.h ****   #define __STATIC_FORCEINLINE                   __attribute__((always_inline)) static inline
  51:Drivers/CMSIS/Include/cmsis_gcc.h **** #endif                                           
  52:Drivers/CMSIS/Include/cmsis_gcc.h **** #ifndef   __NO_RETURN
  53:Drivers/CMSIS/Include/cmsis_gcc.h ****   #define __NO_RETURN                            __attribute__((__noreturn__))
  54:Drivers/CMSIS/Include/cmsis_gcc.h **** #endif
  55:Drivers/CMSIS/Include/cmsis_gcc.h **** #ifndef   __USED
  56:Drivers/CMSIS/Include/cmsis_gcc.h ****   #define __USED                                 __attribute__((used))
  57:Drivers/CMSIS/Include/cmsis_gcc.h **** #endif
  58:Drivers/CMSIS/Include/cmsis_gcc.h **** #ifndef   __WEAK
  59:Drivers/CMSIS/Include/cmsis_gcc.h ****   #define __WEAK                                 __attribute__((weak))
  60:Drivers/CMSIS/Include/cmsis_gcc.h **** #endif
  61:Drivers/CMSIS/Include/cmsis_gcc.h **** #ifndef   __PACKED
  62:Drivers/CMSIS/Include/cmsis_gcc.h ****   #define __PACKED                               __attribute__((packed, aligned(1)))
  63:Drivers/CMSIS/Include/cmsis_gcc.h **** #endif
  64:Drivers/CMSIS/Include/cmsis_gcc.h **** #ifndef   __PACKED_STRUCT
  65:Drivers/CMSIS/Include/cmsis_gcc.h ****   #define __PACKED_STRUCT                        struct __attribute__((packed, aligned(1)))
  66:Drivers/CMSIS/Include/cmsis_gcc.h **** #endif
  67:Drivers/CMSIS/Include/cmsis_gcc.h **** #ifndef   __PACKED_UNION
  68:Drivers/CMSIS/Include/cmsis_gcc.h ****   #define __PACKED_UNION                         union __attribute__((packed, aligned(1)))
  69:Drivers/CMSIS/Include/cmsis_gcc.h **** #endif
  70:Drivers/CMSIS/Include/cmsis_gcc.h **** #ifndef   __UNALIGNED_UINT32        /* deprecated */
  71:Drivers/CMSIS/Include/cmsis_gcc.h ****   #pragma GCC diagnostic push
  72:Drivers/CMSIS/Include/cmsis_gcc.h ****   #pragma GCC diagnostic ignored "-Wpacked"
  73:Drivers/CMSIS/Include/cmsis_gcc.h ****   #pragma GCC diagnostic ignored "-Wattributes"
  74:Drivers/CMSIS/Include/cmsis_gcc.h ****   struct __attribute__((packed)) T_UINT32 { uint32_t v; };
  75:Drivers/CMSIS/Include/cmsis_gcc.h ****   #pragma GCC diagnostic pop
  76:Drivers/CMSIS/Include/cmsis_gcc.h ****   #define __UNALIGNED_UINT32(x)                  (((struct T_UINT32 *)(x))->v)
  77:Drivers/CMSIS/Include/cmsis_gcc.h **** #endif
  78:Drivers/CMSIS/Include/cmsis_gcc.h **** #ifndef   __UNALIGNED_UINT16_WRITE
  79:Drivers/CMSIS/Include/cmsis_gcc.h ****   #pragma GCC diagnostic push
  80:Drivers/CMSIS/Include/cmsis_gcc.h ****   #pragma GCC diagnostic ignored "-Wpacked"
  81:Drivers/CMSIS/Include/cmsis_gcc.h ****   #pragma GCC diagnostic ignored "-Wattributes"
  82:Drivers/CMSIS/Include/cmsis_gcc.h ****   __PACKED_STRUCT T_UINT16_WRITE { uint16_t v; };
  83:Drivers/CMSIS/Include/cmsis_gcc.h ****   #pragma GCC diagnostic pop
  84:Drivers/CMSIS/Include/cmsis_gcc.h ****   #define __UNALIGNED_UINT16_WRITE(addr, val)    (void)((((struct T_UINT16_WRITE *)(void *)(addr))-
  85:Drivers/CMSIS/Include/cmsis_gcc.h **** #endif
  86:Drivers/CMSIS/Include/cmsis_gcc.h **** #ifndef   __UNALIGNED_UINT16_READ
  87:Drivers/CMSIS/Include/cmsis_gcc.h ****   #pragma GCC diagnostic push
ARM GAS  C:\Users\Jack2bs\AppData\Local\Temp\ccgh2QEb.s 			page 16


  88:Drivers/CMSIS/Include/cmsis_gcc.h ****   #pragma GCC diagnostic ignored "-Wpacked"
  89:Drivers/CMSIS/Include/cmsis_gcc.h ****   #pragma GCC diagnostic ignored "-Wattributes"
  90:Drivers/CMSIS/Include/cmsis_gcc.h ****   __PACKED_STRUCT T_UINT16_READ { uint16_t v; };
  91:Drivers/CMSIS/Include/cmsis_gcc.h ****   #pragma GCC diagnostic pop
  92:Drivers/CMSIS/Include/cmsis_gcc.h ****   #define __UNALIGNED_UINT16_READ(addr)          (((const struct T_UINT16_READ *)(const void *)(add
  93:Drivers/CMSIS/Include/cmsis_gcc.h **** #endif
  94:Drivers/CMSIS/Include/cmsis_gcc.h **** #ifndef   __UNALIGNED_UINT32_WRITE
  95:Drivers/CMSIS/Include/cmsis_gcc.h ****   #pragma GCC diagnostic push
  96:Drivers/CMSIS/Include/cmsis_gcc.h ****   #pragma GCC diagnostic ignored "-Wpacked"
  97:Drivers/CMSIS/Include/cmsis_gcc.h ****   #pragma GCC diagnostic ignored "-Wattributes"
  98:Drivers/CMSIS/Include/cmsis_gcc.h ****   __PACKED_STRUCT T_UINT32_WRITE { uint32_t v; };
  99:Drivers/CMSIS/Include/cmsis_gcc.h ****   #pragma GCC diagnostic pop
 100:Drivers/CMSIS/Include/cmsis_gcc.h ****   #define __UNALIGNED_UINT32_WRITE(addr, val)    (void)((((struct T_UINT32_WRITE *)(void *)(addr))-
 101:Drivers/CMSIS/Include/cmsis_gcc.h **** #endif
 102:Drivers/CMSIS/Include/cmsis_gcc.h **** #ifndef   __UNALIGNED_UINT32_READ
 103:Drivers/CMSIS/Include/cmsis_gcc.h ****   #pragma GCC diagnostic push
 104:Drivers/CMSIS/Include/cmsis_gcc.h ****   #pragma GCC diagnostic ignored "-Wpacked"
 105:Drivers/CMSIS/Include/cmsis_gcc.h ****   #pragma GCC diagnostic ignored "-Wattributes"
 106:Drivers/CMSIS/Include/cmsis_gcc.h ****   __PACKED_STRUCT T_UINT32_READ { uint32_t v; };
 107:Drivers/CMSIS/Include/cmsis_gcc.h ****   #pragma GCC diagnostic pop
 108:Drivers/CMSIS/Include/cmsis_gcc.h ****   #define __UNALIGNED_UINT32_READ(addr)          (((const struct T_UINT32_READ *)(const void *)(add
 109:Drivers/CMSIS/Include/cmsis_gcc.h **** #endif
 110:Drivers/CMSIS/Include/cmsis_gcc.h **** #ifndef   __ALIGNED
 111:Drivers/CMSIS/Include/cmsis_gcc.h ****   #define __ALIGNED(x)                           __attribute__((aligned(x)))
 112:Drivers/CMSIS/Include/cmsis_gcc.h **** #endif
 113:Drivers/CMSIS/Include/cmsis_gcc.h **** #ifndef   __RESTRICT
 114:Drivers/CMSIS/Include/cmsis_gcc.h ****   #define __RESTRICT                             __restrict
 115:Drivers/CMSIS/Include/cmsis_gcc.h **** #endif
 116:Drivers/CMSIS/Include/cmsis_gcc.h **** #ifndef   __COMPILER_BARRIER
 117:Drivers/CMSIS/Include/cmsis_gcc.h ****   #define __COMPILER_BARRIER()                   __ASM volatile("":::"memory")
 118:Drivers/CMSIS/Include/cmsis_gcc.h **** #endif
 119:Drivers/CMSIS/Include/cmsis_gcc.h **** 
 120:Drivers/CMSIS/Include/cmsis_gcc.h **** /* #########################  Startup and Lowlevel Init  ######################## */
 121:Drivers/CMSIS/Include/cmsis_gcc.h **** 
 122:Drivers/CMSIS/Include/cmsis_gcc.h **** #ifndef __PROGRAM_START
 123:Drivers/CMSIS/Include/cmsis_gcc.h **** 
 124:Drivers/CMSIS/Include/cmsis_gcc.h **** /**
 125:Drivers/CMSIS/Include/cmsis_gcc.h ****   \brief   Initializes data and bss sections
 126:Drivers/CMSIS/Include/cmsis_gcc.h ****   \details This default implementations initialized all data and additional bss
 127:Drivers/CMSIS/Include/cmsis_gcc.h ****            sections relying on .copy.table and .zero.table specified properly
 128:Drivers/CMSIS/Include/cmsis_gcc.h ****            in the used linker script.
 129:Drivers/CMSIS/Include/cmsis_gcc.h ****   
 130:Drivers/CMSIS/Include/cmsis_gcc.h ****  */
 131:Drivers/CMSIS/Include/cmsis_gcc.h **** __STATIC_FORCEINLINE __NO_RETURN void __cmsis_start(void)
 132:Drivers/CMSIS/Include/cmsis_gcc.h **** {
 133:Drivers/CMSIS/Include/cmsis_gcc.h ****   extern void _start(void) __NO_RETURN;
 134:Drivers/CMSIS/Include/cmsis_gcc.h ****   
 135:Drivers/CMSIS/Include/cmsis_gcc.h ****   typedef struct {
 136:Drivers/CMSIS/Include/cmsis_gcc.h ****     uint32_t const* src;
 137:Drivers/CMSIS/Include/cmsis_gcc.h ****     uint32_t* dest;
 138:Drivers/CMSIS/Include/cmsis_gcc.h ****     uint32_t  wlen;
 139:Drivers/CMSIS/Include/cmsis_gcc.h ****   } __copy_table_t;
 140:Drivers/CMSIS/Include/cmsis_gcc.h ****   
 141:Drivers/CMSIS/Include/cmsis_gcc.h ****   typedef struct {
 142:Drivers/CMSIS/Include/cmsis_gcc.h ****     uint32_t* dest;
 143:Drivers/CMSIS/Include/cmsis_gcc.h ****     uint32_t  wlen;
 144:Drivers/CMSIS/Include/cmsis_gcc.h ****   } __zero_table_t;
ARM GAS  C:\Users\Jack2bs\AppData\Local\Temp\ccgh2QEb.s 			page 17


 145:Drivers/CMSIS/Include/cmsis_gcc.h ****   
 146:Drivers/CMSIS/Include/cmsis_gcc.h ****   extern const __copy_table_t __copy_table_start__;
 147:Drivers/CMSIS/Include/cmsis_gcc.h ****   extern const __copy_table_t __copy_table_end__;
 148:Drivers/CMSIS/Include/cmsis_gcc.h ****   extern const __zero_table_t __zero_table_start__;
 149:Drivers/CMSIS/Include/cmsis_gcc.h ****   extern const __zero_table_t __zero_table_end__;
 150:Drivers/CMSIS/Include/cmsis_gcc.h **** 
 151:Drivers/CMSIS/Include/cmsis_gcc.h ****   for (__copy_table_t const* pTable = &__copy_table_start__; pTable < &__copy_table_end__; ++pTable
 152:Drivers/CMSIS/Include/cmsis_gcc.h ****     for(uint32_t i=0u; i<pTable->wlen; ++i) {
 153:Drivers/CMSIS/Include/cmsis_gcc.h ****       pTable->dest[i] = pTable->src[i];
 154:Drivers/CMSIS/Include/cmsis_gcc.h ****     }
 155:Drivers/CMSIS/Include/cmsis_gcc.h ****   }
 156:Drivers/CMSIS/Include/cmsis_gcc.h ****  
 157:Drivers/CMSIS/Include/cmsis_gcc.h ****   for (__zero_table_t const* pTable = &__zero_table_start__; pTable < &__zero_table_end__; ++pTable
 158:Drivers/CMSIS/Include/cmsis_gcc.h ****     for(uint32_t i=0u; i<pTable->wlen; ++i) {
 159:Drivers/CMSIS/Include/cmsis_gcc.h ****       pTable->dest[i] = 0u;
 160:Drivers/CMSIS/Include/cmsis_gcc.h ****     }
 161:Drivers/CMSIS/Include/cmsis_gcc.h ****   }
 162:Drivers/CMSIS/Include/cmsis_gcc.h ****  
 163:Drivers/CMSIS/Include/cmsis_gcc.h ****   _start();
 164:Drivers/CMSIS/Include/cmsis_gcc.h **** }
 165:Drivers/CMSIS/Include/cmsis_gcc.h ****   
 166:Drivers/CMSIS/Include/cmsis_gcc.h **** #define __PROGRAM_START           __cmsis_start
 167:Drivers/CMSIS/Include/cmsis_gcc.h **** #endif
 168:Drivers/CMSIS/Include/cmsis_gcc.h **** 
 169:Drivers/CMSIS/Include/cmsis_gcc.h **** #ifndef __INITIAL_SP
 170:Drivers/CMSIS/Include/cmsis_gcc.h **** #define __INITIAL_SP              __StackTop
 171:Drivers/CMSIS/Include/cmsis_gcc.h **** #endif
 172:Drivers/CMSIS/Include/cmsis_gcc.h **** 
 173:Drivers/CMSIS/Include/cmsis_gcc.h **** #ifndef __STACK_LIMIT
 174:Drivers/CMSIS/Include/cmsis_gcc.h **** #define __STACK_LIMIT             __StackLimit
 175:Drivers/CMSIS/Include/cmsis_gcc.h **** #endif
 176:Drivers/CMSIS/Include/cmsis_gcc.h **** 
 177:Drivers/CMSIS/Include/cmsis_gcc.h **** #ifndef __VECTOR_TABLE
 178:Drivers/CMSIS/Include/cmsis_gcc.h **** #define __VECTOR_TABLE            __Vectors
 179:Drivers/CMSIS/Include/cmsis_gcc.h **** #endif
 180:Drivers/CMSIS/Include/cmsis_gcc.h **** 
 181:Drivers/CMSIS/Include/cmsis_gcc.h **** #ifndef __VECTOR_TABLE_ATTRIBUTE
 182:Drivers/CMSIS/Include/cmsis_gcc.h **** #define __VECTOR_TABLE_ATTRIBUTE  __attribute((used, section(".vectors")))
 183:Drivers/CMSIS/Include/cmsis_gcc.h **** #endif
 184:Drivers/CMSIS/Include/cmsis_gcc.h **** 
 185:Drivers/CMSIS/Include/cmsis_gcc.h **** /* ###########################  Core Function Access  ########################### */
 186:Drivers/CMSIS/Include/cmsis_gcc.h **** /** \ingroup  CMSIS_Core_FunctionInterface
 187:Drivers/CMSIS/Include/cmsis_gcc.h ****     \defgroup CMSIS_Core_RegAccFunctions CMSIS Core Register Access Functions
 188:Drivers/CMSIS/Include/cmsis_gcc.h ****   @{
 189:Drivers/CMSIS/Include/cmsis_gcc.h ****  */
 190:Drivers/CMSIS/Include/cmsis_gcc.h **** 
 191:Drivers/CMSIS/Include/cmsis_gcc.h **** /**
 192:Drivers/CMSIS/Include/cmsis_gcc.h ****   \brief   Enable IRQ Interrupts
 193:Drivers/CMSIS/Include/cmsis_gcc.h ****   \details Enables IRQ interrupts by clearing the I-bit in the CPSR.
 194:Drivers/CMSIS/Include/cmsis_gcc.h ****            Can only be executed in Privileged modes.
 195:Drivers/CMSIS/Include/cmsis_gcc.h ****  */
 196:Drivers/CMSIS/Include/cmsis_gcc.h **** __STATIC_FORCEINLINE void __enable_irq(void)
 197:Drivers/CMSIS/Include/cmsis_gcc.h **** {
 198:Drivers/CMSIS/Include/cmsis_gcc.h ****   __ASM volatile ("cpsie i" : : : "memory");
 199:Drivers/CMSIS/Include/cmsis_gcc.h **** }
 200:Drivers/CMSIS/Include/cmsis_gcc.h **** 
 201:Drivers/CMSIS/Include/cmsis_gcc.h **** 
ARM GAS  C:\Users\Jack2bs\AppData\Local\Temp\ccgh2QEb.s 			page 18


 202:Drivers/CMSIS/Include/cmsis_gcc.h **** /**
 203:Drivers/CMSIS/Include/cmsis_gcc.h ****   \brief   Disable IRQ Interrupts
 204:Drivers/CMSIS/Include/cmsis_gcc.h ****   \details Disables IRQ interrupts by setting the I-bit in the CPSR.
 205:Drivers/CMSIS/Include/cmsis_gcc.h ****            Can only be executed in Privileged modes.
 206:Drivers/CMSIS/Include/cmsis_gcc.h ****  */
 207:Drivers/CMSIS/Include/cmsis_gcc.h **** __STATIC_FORCEINLINE void __disable_irq(void)
 590              		.loc 2 207 27 view .LVU165
 591              	.LBB6:
 208:Drivers/CMSIS/Include/cmsis_gcc.h **** {
 209:Drivers/CMSIS/Include/cmsis_gcc.h ****   __ASM volatile ("cpsid i" : : : "memory");
 592              		.loc 2 209 3 view .LVU166
 593              		.syntax unified
 594              	@ 209 "Drivers/CMSIS/Include/cmsis_gcc.h" 1
 595 0000 72B6     		cpsid i
 596              	@ 0 "" 2
 597              		.thumb
 598              		.syntax unified
 599              	.L27:
 600              	.LBE6:
 601              	.LBE5:
 188:Core/Src/main.c ****   while (1)
 602              		.loc 1 188 3 discriminator 1 view .LVU167
 189:Core/Src/main.c ****   {
 190:Core/Src/main.c ****   }
 603              		.loc 1 190 3 discriminator 1 view .LVU168
 188:Core/Src/main.c ****   while (1)
 604              		.loc 1 188 9 discriminator 1 view .LVU169
 605 0002 FEE7     		b	.L27
 606              		.cfi_endproc
 607              	.LFE142:
 609              		.global	txBuf
 610              		.global	rxBuf
 611              		.global	usbHandler
 612              		.section	.bss.rxBuf,"aw",%nobits
 613              		.align	2
 614              		.set	.LANCHOR1,. + 0
 617              	rxBuf:
 618 0000 00000000 		.space	32
 618      00000000 
 618      00000000 
 618      00000000 
 618      00000000 
 619              		.section	.bss.usbHandler,"aw",%nobits
 620              		.align	2
 621              		.set	.LANCHOR2,. + 0
 624              	usbHandler:
 625 0000 00000000 		.space	4
 626              		.section	.data.txBuf,"aw"
 627              		.align	2
 628              		.set	.LANCHOR0,. + 0
 631              	txBuf:
 632 0000 48454C4C 		.ascii	"HELLO THERE FRIEND\012\000"
 632      4F205448 
 632      45524520 
 632      46524945 
 632      4E440A00 
 633 0014 00000000 		.space	12
ARM GAS  C:\Users\Jack2bs\AppData\Local\Temp\ccgh2QEb.s 			page 19


 633      00000000 
 633      00000000 
 634              		.text
 635              	.Letext0:
 636              		.file 3 "e:\\arm\\10 2020-q4-major\\arm-none-eabi\\include\\machine\\_default_types.h"
 637              		.file 4 "e:\\arm\\10 2020-q4-major\\arm-none-eabi\\include\\sys\\_stdint.h"
 638              		.file 5 "Drivers/CMSIS/Device/ST/STM32G4xx/Include/stm32g441xx.h"
 639              		.file 6 "Middlewares/ST/STM32_USB_Device_Library/Core/Inc/usbd_def.h"
 640              		.file 7 "Core/Inc/7Seg.h"
 641              		.file 8 "Core/Inc/Lcd.h"
 642              		.file 9 "Drivers/STM32G4xx_HAL_Driver/Inc/stm32g4xx_hal.h"
 643              		.file 10 "USB_Device/App/usb_device.h"
ARM GAS  C:\Users\Jack2bs\AppData\Local\Temp\ccgh2QEb.s 			page 20

