ARM GAS  C:\Users\Jack2bs\AppData\Local\Temp\ccBBPckb.s 			page 1


   1              		.cpu cortex-m4
   2              		.eabi_attribute 27, 1
   3              		.eabi_attribute 28, 1
   4              		.eabi_attribute 20, 1
   5              		.eabi_attribute 21, 1
   6              		.eabi_attribute 23, 3
   7              		.eabi_attribute 24, 1
   8              		.eabi_attribute 25, 1
   9              		.eabi_attribute 26, 1
  10              		.eabi_attribute 30, 1
  11              		.eabi_attribute 34, 1
  12              		.eabi_attribute 18, 4
  13              		.file	"stm32g4xx_ll_usb.c"
  14              		.text
  15              	.Ltext0:
  16              		.cfi_sections	.debug_frame
  17              		.section	.text.USB_CoreInit,"ax",%progbits
  18              		.align	1
  19              		.global	USB_CoreInit
  20              		.arch armv7e-m
  21              		.syntax unified
  22              		.thumb
  23              		.thumb_func
  24              		.fpu fpv4-sp-d16
  26              	USB_CoreInit:
  27              	.LVL0:
  28              	.LFB132:
  29              		.file 1 "Drivers/STM32G4xx_HAL_Driver/Src/stm32g4xx_ll_usb.c"
   1:Drivers/STM32G4xx_HAL_Driver/Src/stm32g4xx_ll_usb.c **** /**
   2:Drivers/STM32G4xx_HAL_Driver/Src/stm32g4xx_ll_usb.c ****   ******************************************************************************
   3:Drivers/STM32G4xx_HAL_Driver/Src/stm32g4xx_ll_usb.c ****   * @file    stm32g4xx_ll_usb.c
   4:Drivers/STM32G4xx_HAL_Driver/Src/stm32g4xx_ll_usb.c ****   * @author  MCD Application Team
   5:Drivers/STM32G4xx_HAL_Driver/Src/stm32g4xx_ll_usb.c ****   * @brief   USB Low Layer HAL module driver.
   6:Drivers/STM32G4xx_HAL_Driver/Src/stm32g4xx_ll_usb.c ****   *
   7:Drivers/STM32G4xx_HAL_Driver/Src/stm32g4xx_ll_usb.c ****   *          This file provides firmware functions to manage the following
   8:Drivers/STM32G4xx_HAL_Driver/Src/stm32g4xx_ll_usb.c ****   *          functionalities of the USB Peripheral Controller:
   9:Drivers/STM32G4xx_HAL_Driver/Src/stm32g4xx_ll_usb.c ****   *           + Initialization/de-initialization functions
  10:Drivers/STM32G4xx_HAL_Driver/Src/stm32g4xx_ll_usb.c ****   *           + I/O operation functions
  11:Drivers/STM32G4xx_HAL_Driver/Src/stm32g4xx_ll_usb.c ****   *           + Peripheral Control functions
  12:Drivers/STM32G4xx_HAL_Driver/Src/stm32g4xx_ll_usb.c ****   *           + Peripheral State functions
  13:Drivers/STM32G4xx_HAL_Driver/Src/stm32g4xx_ll_usb.c ****   *
  14:Drivers/STM32G4xx_HAL_Driver/Src/stm32g4xx_ll_usb.c ****   @verbatim
  15:Drivers/STM32G4xx_HAL_Driver/Src/stm32g4xx_ll_usb.c ****   ==============================================================================
  16:Drivers/STM32G4xx_HAL_Driver/Src/stm32g4xx_ll_usb.c ****                     ##### How to use this driver #####
  17:Drivers/STM32G4xx_HAL_Driver/Src/stm32g4xx_ll_usb.c ****   ==============================================================================
  18:Drivers/STM32G4xx_HAL_Driver/Src/stm32g4xx_ll_usb.c ****     [..]
  19:Drivers/STM32G4xx_HAL_Driver/Src/stm32g4xx_ll_usb.c ****       (#) Fill parameters of Init structure in USB_OTG_CfgTypeDef structure.
  20:Drivers/STM32G4xx_HAL_Driver/Src/stm32g4xx_ll_usb.c **** 
  21:Drivers/STM32G4xx_HAL_Driver/Src/stm32g4xx_ll_usb.c ****       (#) Call USB_CoreInit() API to initialize the USB Core peripheral.
  22:Drivers/STM32G4xx_HAL_Driver/Src/stm32g4xx_ll_usb.c **** 
  23:Drivers/STM32G4xx_HAL_Driver/Src/stm32g4xx_ll_usb.c ****       (#) The upper HAL HCD/PCD driver will call the right routines for its internal processes.
  24:Drivers/STM32G4xx_HAL_Driver/Src/stm32g4xx_ll_usb.c **** 
  25:Drivers/STM32G4xx_HAL_Driver/Src/stm32g4xx_ll_usb.c ****   @endverbatim
  26:Drivers/STM32G4xx_HAL_Driver/Src/stm32g4xx_ll_usb.c ****   ******************************************************************************
  27:Drivers/STM32G4xx_HAL_Driver/Src/stm32g4xx_ll_usb.c ****   * @attention
  28:Drivers/STM32G4xx_HAL_Driver/Src/stm32g4xx_ll_usb.c ****   *
  29:Drivers/STM32G4xx_HAL_Driver/Src/stm32g4xx_ll_usb.c ****   * <h2><center>&copy; Copyright (c) 2019 STMicroelectronics.
ARM GAS  C:\Users\Jack2bs\AppData\Local\Temp\ccBBPckb.s 			page 2


  30:Drivers/STM32G4xx_HAL_Driver/Src/stm32g4xx_ll_usb.c ****   * All rights reserved.</center></h2>
  31:Drivers/STM32G4xx_HAL_Driver/Src/stm32g4xx_ll_usb.c ****   *
  32:Drivers/STM32G4xx_HAL_Driver/Src/stm32g4xx_ll_usb.c ****   * This software component is licensed by ST under BSD 3-Clause license,
  33:Drivers/STM32G4xx_HAL_Driver/Src/stm32g4xx_ll_usb.c ****   * the "License"; You may not use this file except in compliance with the
  34:Drivers/STM32G4xx_HAL_Driver/Src/stm32g4xx_ll_usb.c ****   * License. You may obtain a copy of the License at:
  35:Drivers/STM32G4xx_HAL_Driver/Src/stm32g4xx_ll_usb.c ****   *                        opensource.org/licenses/BSD-3-Clause
  36:Drivers/STM32G4xx_HAL_Driver/Src/stm32g4xx_ll_usb.c ****   *
  37:Drivers/STM32G4xx_HAL_Driver/Src/stm32g4xx_ll_usb.c ****   ******************************************************************************
  38:Drivers/STM32G4xx_HAL_Driver/Src/stm32g4xx_ll_usb.c ****   */
  39:Drivers/STM32G4xx_HAL_Driver/Src/stm32g4xx_ll_usb.c **** 
  40:Drivers/STM32G4xx_HAL_Driver/Src/stm32g4xx_ll_usb.c **** /* Includes ------------------------------------------------------------------*/
  41:Drivers/STM32G4xx_HAL_Driver/Src/stm32g4xx_ll_usb.c **** #include "stm32g4xx_hal.h"
  42:Drivers/STM32G4xx_HAL_Driver/Src/stm32g4xx_ll_usb.c **** 
  43:Drivers/STM32G4xx_HAL_Driver/Src/stm32g4xx_ll_usb.c **** /** @addtogroup STM32G4xx_LL_USB_DRIVER
  44:Drivers/STM32G4xx_HAL_Driver/Src/stm32g4xx_ll_usb.c ****   * @{
  45:Drivers/STM32G4xx_HAL_Driver/Src/stm32g4xx_ll_usb.c ****   */
  46:Drivers/STM32G4xx_HAL_Driver/Src/stm32g4xx_ll_usb.c **** 
  47:Drivers/STM32G4xx_HAL_Driver/Src/stm32g4xx_ll_usb.c **** #if defined (HAL_PCD_MODULE_ENABLED) || defined (HAL_HCD_MODULE_ENABLED)
  48:Drivers/STM32G4xx_HAL_Driver/Src/stm32g4xx_ll_usb.c **** #if defined (USB)
  49:Drivers/STM32G4xx_HAL_Driver/Src/stm32g4xx_ll_usb.c **** /* Private typedef -----------------------------------------------------------*/
  50:Drivers/STM32G4xx_HAL_Driver/Src/stm32g4xx_ll_usb.c **** /* Private define ------------------------------------------------------------*/
  51:Drivers/STM32G4xx_HAL_Driver/Src/stm32g4xx_ll_usb.c **** /* Private macro -------------------------------------------------------------*/
  52:Drivers/STM32G4xx_HAL_Driver/Src/stm32g4xx_ll_usb.c **** /* Private variables ---------------------------------------------------------*/
  53:Drivers/STM32G4xx_HAL_Driver/Src/stm32g4xx_ll_usb.c **** /* Private function prototypes -----------------------------------------------*/
  54:Drivers/STM32G4xx_HAL_Driver/Src/stm32g4xx_ll_usb.c **** /* Private functions ---------------------------------------------------------*/
  55:Drivers/STM32G4xx_HAL_Driver/Src/stm32g4xx_ll_usb.c **** 
  56:Drivers/STM32G4xx_HAL_Driver/Src/stm32g4xx_ll_usb.c **** 
  57:Drivers/STM32G4xx_HAL_Driver/Src/stm32g4xx_ll_usb.c **** /**
  58:Drivers/STM32G4xx_HAL_Driver/Src/stm32g4xx_ll_usb.c ****   * @brief  Initializes the USB Core
  59:Drivers/STM32G4xx_HAL_Driver/Src/stm32g4xx_ll_usb.c ****   * @param  USBx USB Instance
  60:Drivers/STM32G4xx_HAL_Driver/Src/stm32g4xx_ll_usb.c ****   * @param  cfg pointer to a USB_CfgTypeDef structure that contains
  61:Drivers/STM32G4xx_HAL_Driver/Src/stm32g4xx_ll_usb.c ****   *         the configuration information for the specified USBx peripheral.
  62:Drivers/STM32G4xx_HAL_Driver/Src/stm32g4xx_ll_usb.c ****   * @retval HAL status
  63:Drivers/STM32G4xx_HAL_Driver/Src/stm32g4xx_ll_usb.c ****   */
  64:Drivers/STM32G4xx_HAL_Driver/Src/stm32g4xx_ll_usb.c **** HAL_StatusTypeDef USB_CoreInit(USB_TypeDef *USBx, USB_CfgTypeDef cfg)
  65:Drivers/STM32G4xx_HAL_Driver/Src/stm32g4xx_ll_usb.c **** {
  30              		.loc 1 65 1 view -0
  31              		.cfi_startproc
  32              		@ args = 36, pretend = 16, frame = 0
  33              		@ frame_needed = 0, uses_anonymous_args = 0
  34              		@ link register save eliminated.
  35              		.loc 1 65 1 is_stmt 0 view .LVU1
  36 0000 84B0     		sub	sp, sp, #16
  37              	.LCFI0:
  38              		.cfi_def_cfa_offset 16
  39 0002 01A8     		add	r0, sp, #4
  40 0004 80E80E00 		stm	r0, {r1, r2, r3}
  66:Drivers/STM32G4xx_HAL_Driver/Src/stm32g4xx_ll_usb.c ****   /* Prevent unused argument(s) compilation warning */
  67:Drivers/STM32G4xx_HAL_Driver/Src/stm32g4xx_ll_usb.c ****   UNUSED(USBx);
  41              		.loc 1 67 3 is_stmt 1 view .LVU2
  68:Drivers/STM32G4xx_HAL_Driver/Src/stm32g4xx_ll_usb.c ****   UNUSED(cfg);
  42              		.loc 1 68 3 view .LVU3
  69:Drivers/STM32G4xx_HAL_Driver/Src/stm32g4xx_ll_usb.c **** 
  70:Drivers/STM32G4xx_HAL_Driver/Src/stm32g4xx_ll_usb.c ****   /* NOTE : - This function is not required by USB Device FS peripheral, it is used
  71:Drivers/STM32G4xx_HAL_Driver/Src/stm32g4xx_ll_usb.c ****               only by USB OTG FS peripheral.
  72:Drivers/STM32G4xx_HAL_Driver/Src/stm32g4xx_ll_usb.c ****             - This function is added to ensure compatibility across platforms.
  73:Drivers/STM32G4xx_HAL_Driver/Src/stm32g4xx_ll_usb.c ****    */
ARM GAS  C:\Users\Jack2bs\AppData\Local\Temp\ccBBPckb.s 			page 3


  74:Drivers/STM32G4xx_HAL_Driver/Src/stm32g4xx_ll_usb.c **** 
  75:Drivers/STM32G4xx_HAL_Driver/Src/stm32g4xx_ll_usb.c ****   return HAL_OK;
  43              		.loc 1 75 3 view .LVU4
  76:Drivers/STM32G4xx_HAL_Driver/Src/stm32g4xx_ll_usb.c **** }
  44              		.loc 1 76 1 is_stmt 0 view .LVU5
  45 0008 0020     		movs	r0, #0
  46              	.LVL1:
  47              		.loc 1 76 1 view .LVU6
  48 000a 04B0     		add	sp, sp, #16
  49              	.LCFI1:
  50              		.cfi_def_cfa_offset 0
  51 000c 7047     		bx	lr
  52              		.cfi_endproc
  53              	.LFE132:
  55              		.section	.text.USB_EnableGlobalInt,"ax",%progbits
  56              		.align	1
  57              		.global	USB_EnableGlobalInt
  58              		.syntax unified
  59              		.thumb
  60              		.thumb_func
  61              		.fpu fpv4-sp-d16
  63              	USB_EnableGlobalInt:
  64              	.LVL2:
  65              	.LFB133:
  77:Drivers/STM32G4xx_HAL_Driver/Src/stm32g4xx_ll_usb.c **** 
  78:Drivers/STM32G4xx_HAL_Driver/Src/stm32g4xx_ll_usb.c **** /**
  79:Drivers/STM32G4xx_HAL_Driver/Src/stm32g4xx_ll_usb.c ****   * @brief  USB_EnableGlobalInt
  80:Drivers/STM32G4xx_HAL_Driver/Src/stm32g4xx_ll_usb.c ****   *         Enables the controller's Global Int in the AHB Config reg
  81:Drivers/STM32G4xx_HAL_Driver/Src/stm32g4xx_ll_usb.c ****   * @param  USBx Selected device
  82:Drivers/STM32G4xx_HAL_Driver/Src/stm32g4xx_ll_usb.c ****   * @retval HAL status
  83:Drivers/STM32G4xx_HAL_Driver/Src/stm32g4xx_ll_usb.c ****   */
  84:Drivers/STM32G4xx_HAL_Driver/Src/stm32g4xx_ll_usb.c **** HAL_StatusTypeDef USB_EnableGlobalInt(USB_TypeDef *USBx)
  85:Drivers/STM32G4xx_HAL_Driver/Src/stm32g4xx_ll_usb.c **** {
  66              		.loc 1 85 1 is_stmt 1 view -0
  67              		.cfi_startproc
  68              		@ args = 0, pretend = 0, frame = 0
  69              		@ frame_needed = 0, uses_anonymous_args = 0
  70              		@ link register save eliminated.
  71              		.loc 1 85 1 is_stmt 0 view .LVU8
  72 0000 0346     		mov	r3, r0
  86:Drivers/STM32G4xx_HAL_Driver/Src/stm32g4xx_ll_usb.c ****   uint32_t winterruptmask;
  73              		.loc 1 86 3 is_stmt 1 view .LVU9
  87:Drivers/STM32G4xx_HAL_Driver/Src/stm32g4xx_ll_usb.c **** 
  88:Drivers/STM32G4xx_HAL_Driver/Src/stm32g4xx_ll_usb.c ****   /* Clear pending interrupts */
  89:Drivers/STM32G4xx_HAL_Driver/Src/stm32g4xx_ll_usb.c ****   USBx->ISTR = 0U;
  74              		.loc 1 89 3 view .LVU10
  75              		.loc 1 89 14 is_stmt 0 view .LVU11
  76 0002 0020     		movs	r0, #0
  77              	.LVL3:
  78              		.loc 1 89 14 view .LVU12
  79 0004 A3F84400 		strh	r0, [r3, #68]	@ movhi
  90:Drivers/STM32G4xx_HAL_Driver/Src/stm32g4xx_ll_usb.c **** 
  91:Drivers/STM32G4xx_HAL_Driver/Src/stm32g4xx_ll_usb.c ****   /* Set winterruptmask variable */
  92:Drivers/STM32G4xx_HAL_Driver/Src/stm32g4xx_ll_usb.c ****   winterruptmask = USB_CNTR_CTRM  | USB_CNTR_WKUPM |
  80              		.loc 1 92 3 is_stmt 1 view .LVU13
  81              	.LVL4:
  93:Drivers/STM32G4xx_HAL_Driver/Src/stm32g4xx_ll_usb.c ****                    USB_CNTR_SUSPM | USB_CNTR_ERRM |
ARM GAS  C:\Users\Jack2bs\AppData\Local\Temp\ccBBPckb.s 			page 4


  94:Drivers/STM32G4xx_HAL_Driver/Src/stm32g4xx_ll_usb.c ****                    USB_CNTR_SOFM | USB_CNTR_ESOFM |
  95:Drivers/STM32G4xx_HAL_Driver/Src/stm32g4xx_ll_usb.c ****                    USB_CNTR_RESETM | USB_CNTR_L1REQM;
  96:Drivers/STM32G4xx_HAL_Driver/Src/stm32g4xx_ll_usb.c **** 
  97:Drivers/STM32G4xx_HAL_Driver/Src/stm32g4xx_ll_usb.c ****   /* Set interrupt mask */
  98:Drivers/STM32G4xx_HAL_Driver/Src/stm32g4xx_ll_usb.c ****   USBx->CNTR = (uint16_t)winterruptmask;
  82              		.loc 1 98 3 view .LVU14
  83              		.loc 1 98 14 is_stmt 0 view .LVU15
  84 0008 4BF68072 		movw	r2, #49024
  85 000c A3F84020 		strh	r2, [r3, #64]	@ movhi
  99:Drivers/STM32G4xx_HAL_Driver/Src/stm32g4xx_ll_usb.c **** 
 100:Drivers/STM32G4xx_HAL_Driver/Src/stm32g4xx_ll_usb.c ****   return HAL_OK;
  86              		.loc 1 100 3 is_stmt 1 view .LVU16
 101:Drivers/STM32G4xx_HAL_Driver/Src/stm32g4xx_ll_usb.c **** }
  87              		.loc 1 101 1 is_stmt 0 view .LVU17
  88 0010 7047     		bx	lr
  89              		.cfi_endproc
  90              	.LFE133:
  92              		.section	.text.USB_DisableGlobalInt,"ax",%progbits
  93              		.align	1
  94              		.global	USB_DisableGlobalInt
  95              		.syntax unified
  96              		.thumb
  97              		.thumb_func
  98              		.fpu fpv4-sp-d16
 100              	USB_DisableGlobalInt:
 101              	.LVL5:
 102              	.LFB134:
 102:Drivers/STM32G4xx_HAL_Driver/Src/stm32g4xx_ll_usb.c **** 
 103:Drivers/STM32G4xx_HAL_Driver/Src/stm32g4xx_ll_usb.c **** /**
 104:Drivers/STM32G4xx_HAL_Driver/Src/stm32g4xx_ll_usb.c ****   * @brief  USB_DisableGlobalInt
 105:Drivers/STM32G4xx_HAL_Driver/Src/stm32g4xx_ll_usb.c ****   *         Disable the controller's Global Int in the AHB Config reg
 106:Drivers/STM32G4xx_HAL_Driver/Src/stm32g4xx_ll_usb.c ****   * @param  USBx Selected device
 107:Drivers/STM32G4xx_HAL_Driver/Src/stm32g4xx_ll_usb.c ****   * @retval HAL status
 108:Drivers/STM32G4xx_HAL_Driver/Src/stm32g4xx_ll_usb.c ****   */
 109:Drivers/STM32G4xx_HAL_Driver/Src/stm32g4xx_ll_usb.c **** HAL_StatusTypeDef USB_DisableGlobalInt(USB_TypeDef *USBx)
 110:Drivers/STM32G4xx_HAL_Driver/Src/stm32g4xx_ll_usb.c **** {
 103              		.loc 1 110 1 is_stmt 1 view -0
 104              		.cfi_startproc
 105              		@ args = 0, pretend = 0, frame = 0
 106              		@ frame_needed = 0, uses_anonymous_args = 0
 107              		@ link register save eliminated.
 111:Drivers/STM32G4xx_HAL_Driver/Src/stm32g4xx_ll_usb.c ****   uint32_t winterruptmask;
 108              		.loc 1 111 3 view .LVU19
 112:Drivers/STM32G4xx_HAL_Driver/Src/stm32g4xx_ll_usb.c **** 
 113:Drivers/STM32G4xx_HAL_Driver/Src/stm32g4xx_ll_usb.c ****   /* Set winterruptmask variable */
 114:Drivers/STM32G4xx_HAL_Driver/Src/stm32g4xx_ll_usb.c ****   winterruptmask = USB_CNTR_CTRM  | USB_CNTR_WKUPM |
 109              		.loc 1 114 3 view .LVU20
 115:Drivers/STM32G4xx_HAL_Driver/Src/stm32g4xx_ll_usb.c ****                    USB_CNTR_SUSPM | USB_CNTR_ERRM |
 116:Drivers/STM32G4xx_HAL_Driver/Src/stm32g4xx_ll_usb.c ****                    USB_CNTR_SOFM | USB_CNTR_ESOFM |
 117:Drivers/STM32G4xx_HAL_Driver/Src/stm32g4xx_ll_usb.c ****                    USB_CNTR_RESETM | USB_CNTR_L1REQM;
 118:Drivers/STM32G4xx_HAL_Driver/Src/stm32g4xx_ll_usb.c **** 
 119:Drivers/STM32G4xx_HAL_Driver/Src/stm32g4xx_ll_usb.c ****   /* Clear interrupt mask */
 120:Drivers/STM32G4xx_HAL_Driver/Src/stm32g4xx_ll_usb.c ****   USBx->CNTR &= (uint16_t)(~winterruptmask);
 110              		.loc 1 120 3 view .LVU21
 111              		.loc 1 120 14 is_stmt 0 view .LVU22
 112 0000 B0F84030 		ldrh	r3, [r0, #64]
 113 0004 23F47E53 		bic	r3, r3, #16256
ARM GAS  C:\Users\Jack2bs\AppData\Local\Temp\ccBBPckb.s 			page 5


 114 0008 5B04     		lsls	r3, r3, #17
 115 000a 5B0C     		lsrs	r3, r3, #17
 116 000c A0F84030 		strh	r3, [r0, #64]	@ movhi
 121:Drivers/STM32G4xx_HAL_Driver/Src/stm32g4xx_ll_usb.c **** 
 122:Drivers/STM32G4xx_HAL_Driver/Src/stm32g4xx_ll_usb.c ****   return HAL_OK;
 117              		.loc 1 122 3 is_stmt 1 view .LVU23
 123:Drivers/STM32G4xx_HAL_Driver/Src/stm32g4xx_ll_usb.c **** }
 118              		.loc 1 123 1 is_stmt 0 view .LVU24
 119 0010 0020     		movs	r0, #0
 120              	.LVL6:
 121              		.loc 1 123 1 view .LVU25
 122 0012 7047     		bx	lr
 123              		.cfi_endproc
 124              	.LFE134:
 126              		.section	.text.USB_SetCurrentMode,"ax",%progbits
 127              		.align	1
 128              		.global	USB_SetCurrentMode
 129              		.syntax unified
 130              		.thumb
 131              		.thumb_func
 132              		.fpu fpv4-sp-d16
 134              	USB_SetCurrentMode:
 135              	.LVL7:
 136              	.LFB135:
 124:Drivers/STM32G4xx_HAL_Driver/Src/stm32g4xx_ll_usb.c **** 
 125:Drivers/STM32G4xx_HAL_Driver/Src/stm32g4xx_ll_usb.c **** /**
 126:Drivers/STM32G4xx_HAL_Driver/Src/stm32g4xx_ll_usb.c ****   * @brief  USB_SetCurrentMode Set functional mode
 127:Drivers/STM32G4xx_HAL_Driver/Src/stm32g4xx_ll_usb.c ****   * @param  USBx Selected device
 128:Drivers/STM32G4xx_HAL_Driver/Src/stm32g4xx_ll_usb.c ****   * @param  mode current core mode
 129:Drivers/STM32G4xx_HAL_Driver/Src/stm32g4xx_ll_usb.c ****   *          This parameter can be one of the these values:
 130:Drivers/STM32G4xx_HAL_Driver/Src/stm32g4xx_ll_usb.c ****   *            @arg USB_DEVICE_MODE Peripheral mode
 131:Drivers/STM32G4xx_HAL_Driver/Src/stm32g4xx_ll_usb.c ****   * @retval HAL status
 132:Drivers/STM32G4xx_HAL_Driver/Src/stm32g4xx_ll_usb.c ****   */
 133:Drivers/STM32G4xx_HAL_Driver/Src/stm32g4xx_ll_usb.c **** HAL_StatusTypeDef USB_SetCurrentMode(USB_TypeDef *USBx, USB_ModeTypeDef mode)
 134:Drivers/STM32G4xx_HAL_Driver/Src/stm32g4xx_ll_usb.c **** {
 137              		.loc 1 134 1 is_stmt 1 view -0
 138              		.cfi_startproc
 139              		@ args = 0, pretend = 0, frame = 0
 140              		@ frame_needed = 0, uses_anonymous_args = 0
 141              		@ link register save eliminated.
 135:Drivers/STM32G4xx_HAL_Driver/Src/stm32g4xx_ll_usb.c ****   /* Prevent unused argument(s) compilation warning */
 136:Drivers/STM32G4xx_HAL_Driver/Src/stm32g4xx_ll_usb.c ****   UNUSED(USBx);
 142              		.loc 1 136 3 view .LVU27
 137:Drivers/STM32G4xx_HAL_Driver/Src/stm32g4xx_ll_usb.c ****   UNUSED(mode);
 143              		.loc 1 137 3 view .LVU28
 138:Drivers/STM32G4xx_HAL_Driver/Src/stm32g4xx_ll_usb.c **** 
 139:Drivers/STM32G4xx_HAL_Driver/Src/stm32g4xx_ll_usb.c ****   /* NOTE : - This function is not required by USB Device FS peripheral, it is used
 140:Drivers/STM32G4xx_HAL_Driver/Src/stm32g4xx_ll_usb.c ****               only by USB OTG FS peripheral.
 141:Drivers/STM32G4xx_HAL_Driver/Src/stm32g4xx_ll_usb.c ****             - This function is added to ensure compatibility across platforms.
 142:Drivers/STM32G4xx_HAL_Driver/Src/stm32g4xx_ll_usb.c ****    */
 143:Drivers/STM32G4xx_HAL_Driver/Src/stm32g4xx_ll_usb.c ****   return HAL_OK;
 144              		.loc 1 143 3 view .LVU29
 144:Drivers/STM32G4xx_HAL_Driver/Src/stm32g4xx_ll_usb.c **** }
 145              		.loc 1 144 1 is_stmt 0 view .LVU30
 146 0000 0020     		movs	r0, #0
 147              	.LVL8:
 148              		.loc 1 144 1 view .LVU31
ARM GAS  C:\Users\Jack2bs\AppData\Local\Temp\ccBBPckb.s 			page 6


 149 0002 7047     		bx	lr
 150              		.cfi_endproc
 151              	.LFE135:
 153              		.section	.text.USB_DevInit,"ax",%progbits
 154              		.align	1
 155              		.global	USB_DevInit
 156              		.syntax unified
 157              		.thumb
 158              		.thumb_func
 159              		.fpu fpv4-sp-d16
 161              	USB_DevInit:
 162              	.LVL9:
 163              	.LFB136:
 145:Drivers/STM32G4xx_HAL_Driver/Src/stm32g4xx_ll_usb.c **** 
 146:Drivers/STM32G4xx_HAL_Driver/Src/stm32g4xx_ll_usb.c **** /**
 147:Drivers/STM32G4xx_HAL_Driver/Src/stm32g4xx_ll_usb.c ****   * @brief  USB_DevInit Initializes the USB controller registers
 148:Drivers/STM32G4xx_HAL_Driver/Src/stm32g4xx_ll_usb.c ****   *         for device mode
 149:Drivers/STM32G4xx_HAL_Driver/Src/stm32g4xx_ll_usb.c ****   * @param  USBx Selected device
 150:Drivers/STM32G4xx_HAL_Driver/Src/stm32g4xx_ll_usb.c ****   * @param  cfg  pointer to a USB_CfgTypeDef structure that contains
 151:Drivers/STM32G4xx_HAL_Driver/Src/stm32g4xx_ll_usb.c ****   *         the configuration information for the specified USBx peripheral.
 152:Drivers/STM32G4xx_HAL_Driver/Src/stm32g4xx_ll_usb.c ****   * @retval HAL status
 153:Drivers/STM32G4xx_HAL_Driver/Src/stm32g4xx_ll_usb.c ****   */
 154:Drivers/STM32G4xx_HAL_Driver/Src/stm32g4xx_ll_usb.c **** HAL_StatusTypeDef USB_DevInit(USB_TypeDef *USBx, USB_CfgTypeDef cfg)
 155:Drivers/STM32G4xx_HAL_Driver/Src/stm32g4xx_ll_usb.c **** {
 164              		.loc 1 155 1 is_stmt 1 view -0
 165              		.cfi_startproc
 166              		@ args = 36, pretend = 16, frame = 0
 167              		@ frame_needed = 0, uses_anonymous_args = 0
 168              		@ link register save eliminated.
 169              		.loc 1 155 1 is_stmt 0 view .LVU33
 170 0000 84B0     		sub	sp, sp, #16
 171              	.LCFI2:
 172              		.cfi_def_cfa_offset 16
 173 0002 8446     		mov	ip, r0
 174 0004 01A8     		add	r0, sp, #4
 175 0006 80E80E00 		stm	r0, {r1, r2, r3}
 156:Drivers/STM32G4xx_HAL_Driver/Src/stm32g4xx_ll_usb.c ****   /* Prevent unused argument(s) compilation warning */
 157:Drivers/STM32G4xx_HAL_Driver/Src/stm32g4xx_ll_usb.c ****   UNUSED(cfg);
 176              		.loc 1 157 3 is_stmt 1 view .LVU34
 158:Drivers/STM32G4xx_HAL_Driver/Src/stm32g4xx_ll_usb.c **** 
 159:Drivers/STM32G4xx_HAL_Driver/Src/stm32g4xx_ll_usb.c ****   /* Init Device */
 160:Drivers/STM32G4xx_HAL_Driver/Src/stm32g4xx_ll_usb.c ****   /* CNTR_FRES = 1 */
 161:Drivers/STM32G4xx_HAL_Driver/Src/stm32g4xx_ll_usb.c ****   USBx->CNTR = (uint16_t)USB_CNTR_FRES;
 177              		.loc 1 161 3 view .LVU35
 178              		.loc 1 161 14 is_stmt 0 view .LVU36
 179 000a 0123     		movs	r3, #1
 180 000c ACF84030 		strh	r3, [ip, #64]	@ movhi
 162:Drivers/STM32G4xx_HAL_Driver/Src/stm32g4xx_ll_usb.c **** 
 163:Drivers/STM32G4xx_HAL_Driver/Src/stm32g4xx_ll_usb.c ****   /* CNTR_FRES = 0 */
 164:Drivers/STM32G4xx_HAL_Driver/Src/stm32g4xx_ll_usb.c ****   USBx->CNTR = 0U;
 181              		.loc 1 164 3 is_stmt 1 view .LVU37
 182              		.loc 1 164 14 is_stmt 0 view .LVU38
 183 0010 0020     		movs	r0, #0
 184              	.LVL10:
 185              		.loc 1 164 14 view .LVU39
 186 0012 ACF84000 		strh	r0, [ip, #64]	@ movhi
 165:Drivers/STM32G4xx_HAL_Driver/Src/stm32g4xx_ll_usb.c **** 
ARM GAS  C:\Users\Jack2bs\AppData\Local\Temp\ccBBPckb.s 			page 7


 166:Drivers/STM32G4xx_HAL_Driver/Src/stm32g4xx_ll_usb.c ****   /* Clear pending interrupts */
 167:Drivers/STM32G4xx_HAL_Driver/Src/stm32g4xx_ll_usb.c ****   USBx->ISTR = 0U;
 187              		.loc 1 167 3 is_stmt 1 view .LVU40
 188              		.loc 1 167 14 is_stmt 0 view .LVU41
 189 0016 ACF84400 		strh	r0, [ip, #68]	@ movhi
 168:Drivers/STM32G4xx_HAL_Driver/Src/stm32g4xx_ll_usb.c **** 
 169:Drivers/STM32G4xx_HAL_Driver/Src/stm32g4xx_ll_usb.c ****   /*Set Btable Address*/
 170:Drivers/STM32G4xx_HAL_Driver/Src/stm32g4xx_ll_usb.c ****   USBx->BTABLE = BTABLE_ADDRESS;
 190              		.loc 1 170 3 is_stmt 1 view .LVU42
 191              		.loc 1 170 16 is_stmt 0 view .LVU43
 192 001a ACF85000 		strh	r0, [ip, #80]	@ movhi
 171:Drivers/STM32G4xx_HAL_Driver/Src/stm32g4xx_ll_usb.c **** 
 172:Drivers/STM32G4xx_HAL_Driver/Src/stm32g4xx_ll_usb.c ****   return HAL_OK;
 193              		.loc 1 172 3 is_stmt 1 view .LVU44
 173:Drivers/STM32G4xx_HAL_Driver/Src/stm32g4xx_ll_usb.c **** }
 194              		.loc 1 173 1 is_stmt 0 view .LVU45
 195 001e 04B0     		add	sp, sp, #16
 196              	.LCFI3:
 197              		.cfi_def_cfa_offset 0
 198 0020 7047     		bx	lr
 199              		.cfi_endproc
 200              	.LFE136:
 202              		.section	.text.USB_ActivateEndpoint,"ax",%progbits
 203              		.align	1
 204              		.global	USB_ActivateEndpoint
 205              		.syntax unified
 206              		.thumb
 207              		.thumb_func
 208              		.fpu fpv4-sp-d16
 210              	USB_ActivateEndpoint:
 211              	.LVL11:
 212              	.LFB137:
 174:Drivers/STM32G4xx_HAL_Driver/Src/stm32g4xx_ll_usb.c **** 
 175:Drivers/STM32G4xx_HAL_Driver/Src/stm32g4xx_ll_usb.c **** #if defined (HAL_PCD_MODULE_ENABLED)
 176:Drivers/STM32G4xx_HAL_Driver/Src/stm32g4xx_ll_usb.c **** /**
 177:Drivers/STM32G4xx_HAL_Driver/Src/stm32g4xx_ll_usb.c ****   * @brief  Activate and configure an endpoint
 178:Drivers/STM32G4xx_HAL_Driver/Src/stm32g4xx_ll_usb.c ****   * @param  USBx Selected device
 179:Drivers/STM32G4xx_HAL_Driver/Src/stm32g4xx_ll_usb.c ****   * @param  ep pointer to endpoint structure
 180:Drivers/STM32G4xx_HAL_Driver/Src/stm32g4xx_ll_usb.c ****   * @retval HAL status
 181:Drivers/STM32G4xx_HAL_Driver/Src/stm32g4xx_ll_usb.c ****   */
 182:Drivers/STM32G4xx_HAL_Driver/Src/stm32g4xx_ll_usb.c **** HAL_StatusTypeDef USB_ActivateEndpoint(USB_TypeDef *USBx, USB_EPTypeDef *ep)
 183:Drivers/STM32G4xx_HAL_Driver/Src/stm32g4xx_ll_usb.c **** {
 213              		.loc 1 183 1 is_stmt 1 view -0
 214              		.cfi_startproc
 215              		@ args = 0, pretend = 0, frame = 0
 216              		@ frame_needed = 0, uses_anonymous_args = 0
 217              		.loc 1 183 1 is_stmt 0 view .LVU47
 218 0000 10B5     		push	{r4, lr}
 219              	.LCFI4:
 220              		.cfi_def_cfa_offset 8
 221              		.cfi_offset 4, -8
 222              		.cfi_offset 14, -4
 223 0002 0346     		mov	r3, r0
 184:Drivers/STM32G4xx_HAL_Driver/Src/stm32g4xx_ll_usb.c ****   HAL_StatusTypeDef ret = HAL_OK;
 224              		.loc 1 184 3 is_stmt 1 view .LVU48
 225              	.LVL12:
 185:Drivers/STM32G4xx_HAL_Driver/Src/stm32g4xx_ll_usb.c ****   uint16_t wEpRegVal;
ARM GAS  C:\Users\Jack2bs\AppData\Local\Temp\ccBBPckb.s 			page 8


 226              		.loc 1 185 3 view .LVU49
 186:Drivers/STM32G4xx_HAL_Driver/Src/stm32g4xx_ll_usb.c **** 
 187:Drivers/STM32G4xx_HAL_Driver/Src/stm32g4xx_ll_usb.c ****   wEpRegVal = PCD_GET_ENDPOINT(USBx, ep->num) & USB_EP_T_MASK;
 227              		.loc 1 187 3 view .LVU50
 228              		.loc 1 187 15 is_stmt 0 view .LVU51
 229 0004 0A78     		ldrb	r2, [r1]	@ zero_extendqisi2
 230              		.loc 1 187 47 view .LVU52
 231 0006 30F822C0 		ldrh	ip, [r0, r2, lsl #2]
 232 000a 1FFA8CFC 		uxth	ip, ip
 233              		.loc 1 187 13 view .LVU53
 234 000e 2CF4EC4C 		bic	ip, ip, #30208
 235 0012 2CF0700C 		bic	ip, ip, #112
 236 0016 1FFA8CFC 		uxth	ip, ip
 237              	.LVL13:
 188:Drivers/STM32G4xx_HAL_Driver/Src/stm32g4xx_ll_usb.c **** 
 189:Drivers/STM32G4xx_HAL_Driver/Src/stm32g4xx_ll_usb.c ****   /* initialize Endpoint */
 190:Drivers/STM32G4xx_HAL_Driver/Src/stm32g4xx_ll_usb.c ****   switch (ep->type)
 238              		.loc 1 190 3 is_stmt 1 view .LVU54
 239              		.loc 1 190 13 is_stmt 0 view .LVU55
 240 001a C878     		ldrb	r0, [r1, #3]	@ zero_extendqisi2
 241              	.LVL14:
 242              		.loc 1 190 13 view .LVU56
 243 001c 0328     		cmp	r0, #3
 244 001e 62D8     		bhi	.L33
 245 0020 DFE800F0 		tbb	[pc, r0]
 246              	.L11:
 247 0024 56       		.byte	(.L14-.L11)/2
 248 0025 5D       		.byte	(.L13-.L11)/2
 249 0026 02       		.byte	(.L12-.L11)/2
 250 0027 59       		.byte	(.L10-.L11)/2
 251              		.p2align 1
 252              	.L12:
 253 0028 0020     		movs	r0, #0
 254              	.L9:
 255              	.LVL15:
 191:Drivers/STM32G4xx_HAL_Driver/Src/stm32g4xx_ll_usb.c ****   {
 192:Drivers/STM32G4xx_HAL_Driver/Src/stm32g4xx_ll_usb.c ****     case EP_TYPE_CTRL:
 193:Drivers/STM32G4xx_HAL_Driver/Src/stm32g4xx_ll_usb.c ****       wEpRegVal |= USB_EP_CONTROL;
 194:Drivers/STM32G4xx_HAL_Driver/Src/stm32g4xx_ll_usb.c ****       break;
 195:Drivers/STM32G4xx_HAL_Driver/Src/stm32g4xx_ll_usb.c **** 
 196:Drivers/STM32G4xx_HAL_Driver/Src/stm32g4xx_ll_usb.c ****     case EP_TYPE_BULK:
 197:Drivers/STM32G4xx_HAL_Driver/Src/stm32g4xx_ll_usb.c ****       wEpRegVal |= USB_EP_BULK;
 198:Drivers/STM32G4xx_HAL_Driver/Src/stm32g4xx_ll_usb.c ****       break;
 199:Drivers/STM32G4xx_HAL_Driver/Src/stm32g4xx_ll_usb.c **** 
 200:Drivers/STM32G4xx_HAL_Driver/Src/stm32g4xx_ll_usb.c ****     case EP_TYPE_INTR:
 201:Drivers/STM32G4xx_HAL_Driver/Src/stm32g4xx_ll_usb.c ****       wEpRegVal |= USB_EP_INTERRUPT;
 202:Drivers/STM32G4xx_HAL_Driver/Src/stm32g4xx_ll_usb.c ****       break;
 203:Drivers/STM32G4xx_HAL_Driver/Src/stm32g4xx_ll_usb.c **** 
 204:Drivers/STM32G4xx_HAL_Driver/Src/stm32g4xx_ll_usb.c ****     case EP_TYPE_ISOC:
 205:Drivers/STM32G4xx_HAL_Driver/Src/stm32g4xx_ll_usb.c ****       wEpRegVal |= USB_EP_ISOCHRONOUS;
 206:Drivers/STM32G4xx_HAL_Driver/Src/stm32g4xx_ll_usb.c ****       break;
 207:Drivers/STM32G4xx_HAL_Driver/Src/stm32g4xx_ll_usb.c **** 
 208:Drivers/STM32G4xx_HAL_Driver/Src/stm32g4xx_ll_usb.c ****     default:
 209:Drivers/STM32G4xx_HAL_Driver/Src/stm32g4xx_ll_usb.c ****       ret = HAL_ERROR;
 210:Drivers/STM32G4xx_HAL_Driver/Src/stm32g4xx_ll_usb.c ****       break;
 211:Drivers/STM32G4xx_HAL_Driver/Src/stm32g4xx_ll_usb.c ****   }
 212:Drivers/STM32G4xx_HAL_Driver/Src/stm32g4xx_ll_usb.c **** 
ARM GAS  C:\Users\Jack2bs\AppData\Local\Temp\ccBBPckb.s 			page 9


 213:Drivers/STM32G4xx_HAL_Driver/Src/stm32g4xx_ll_usb.c ****   PCD_SET_ENDPOINT(USBx, ep->num, (wEpRegVal | USB_EP_CTR_RX | USB_EP_CTR_TX));
 256              		.loc 1 213 3 is_stmt 1 view .LVU57
 257 002a 48F2800E 		movw	lr, #32896
 258 002e 4CEA0E0C 		orr	ip, ip, lr
 259              	.LVL16:
 260              		.loc 1 213 3 is_stmt 0 view .LVU58
 261 0032 23F822C0 		strh	ip, [r3, r2, lsl #2]	@ movhi
 214:Drivers/STM32G4xx_HAL_Driver/Src/stm32g4xx_ll_usb.c **** 
 215:Drivers/STM32G4xx_HAL_Driver/Src/stm32g4xx_ll_usb.c ****   PCD_SET_EP_ADDRESS(USBx, ep->num, ep->num);
 262              		.loc 1 215 3 is_stmt 1 view .LVU59
 263              	.LBB2:
 264              		.loc 1 215 3 view .LVU60
 265              		.loc 1 215 3 view .LVU61
 266 0036 91F800C0 		ldrb	ip, [r1]	@ zero_extendqisi2
 267 003a 33F82C20 		ldrh	r2, [r3, ip, lsl #2]
 268 003e 12B2     		sxth	r2, r2
 269 0040 22F4E042 		bic	r2, r2, #28672
 270 0044 22F07002 		bic	r2, r2, #112
 271 0048 4CEA0202 		orr	r2, ip, r2
 272 004c 92B2     		uxth	r2, r2
 273              	.LVL17:
 274              		.loc 1 215 3 view .LVU62
 275 004e 42EA0E02 		orr	r2, r2, lr
 276              	.LVL18:
 277              		.loc 1 215 3 is_stmt 0 view .LVU63
 278 0052 23F82C20 		strh	r2, [r3, ip, lsl #2]	@ movhi
 279              	.LBE2:
 280              		.loc 1 215 3 is_stmt 1 view .LVU64
 216:Drivers/STM32G4xx_HAL_Driver/Src/stm32g4xx_ll_usb.c **** 
 217:Drivers/STM32G4xx_HAL_Driver/Src/stm32g4xx_ll_usb.c ****   if (ep->doublebuffer == 0U)
 281              		.loc 1 217 3 view .LVU65
 282              		.loc 1 217 9 is_stmt 0 view .LVU66
 283 0056 0A7B     		ldrb	r2, [r1, #12]	@ zero_extendqisi2
 284              		.loc 1 217 6 view .LVU67
 285 0058 002A     		cmp	r2, #0
 286 005a 40F0C480 		bne	.L15
 218:Drivers/STM32G4xx_HAL_Driver/Src/stm32g4xx_ll_usb.c ****   {
 219:Drivers/STM32G4xx_HAL_Driver/Src/stm32g4xx_ll_usb.c ****     if (ep->is_in != 0U)
 287              		.loc 1 219 5 is_stmt 1 view .LVU68
 288              		.loc 1 219 11 is_stmt 0 view .LVU69
 289 005e 4A78     		ldrb	r2, [r1, #1]	@ zero_extendqisi2
 290              		.loc 1 219 8 view .LVU70
 291 0060 002A     		cmp	r2, #0
 292 0062 51D0     		beq	.L16
 220:Drivers/STM32G4xx_HAL_Driver/Src/stm32g4xx_ll_usb.c ****     {
 221:Drivers/STM32G4xx_HAL_Driver/Src/stm32g4xx_ll_usb.c ****       /*Set the endpoint Transmit buffer address */
 222:Drivers/STM32G4xx_HAL_Driver/Src/stm32g4xx_ll_usb.c ****       PCD_SET_EP_TX_ADDRESS(USBx, ep->num, ep->pmaadress);
 293              		.loc 1 222 7 is_stmt 1 view .LVU71
 294              	.LBB3:
 295              		.loc 1 222 7 view .LVU72
 296              		.loc 1 222 7 view .LVU73
 297              	.LVL19:
 298              		.loc 1 222 7 view .LVU74
 299 0064 B3F85020 		ldrh	r2, [r3, #80]
 300 0068 13FA82F2 		uxtah	r2, r3, r2
 301              	.LVL20:
 302              		.loc 1 222 7 view .LVU75
ARM GAS  C:\Users\Jack2bs\AppData\Local\Temp\ccBBPckb.s 			page 10


 303 006c 0C78     		ldrb	r4, [r1]	@ zero_extendqisi2
 304 006e 02EBC402 		add	r2, r2, r4, lsl #3
 305              	.LVL21:
 306              		.loc 1 222 7 view .LVU76
 307 0072 B1F806C0 		ldrh	ip, [r1, #6]
 308              		.loc 1 222 7 is_stmt 0 view .LVU77
 309 0076 4FEA5C0C 		lsr	ip, ip, #1
 310 007a 4FEA4C0C 		lsl	ip, ip, #1
 311 007e A2F800C4 		strh	ip, [r2, #1024]	@ movhi
 312              	.LBE3:
 313              		.loc 1 222 7 is_stmt 1 view .LVU78
 223:Drivers/STM32G4xx_HAL_Driver/Src/stm32g4xx_ll_usb.c ****       PCD_CLEAR_TX_DTOG(USBx, ep->num);
 314              		.loc 1 223 7 view .LVU79
 315              	.LBB4:
 316              		.loc 1 223 7 view .LVU80
 317              		.loc 1 223 7 view .LVU81
 318 0082 0C78     		ldrb	r4, [r1]	@ zero_extendqisi2
 319 0084 33F82420 		ldrh	r2, [r3, r4, lsl #2]
 320              	.LVL22:
 321              		.loc 1 223 7 view .LVU82
 322 0088 12F0400F 		tst	r2, #64
 323 008c 0CD0     		beq	.L17
 324              		.loc 1 223 7 discriminator 1 view .LVU83
 325              	.LBB5:
 326              		.loc 1 223 7 discriminator 1 view .LVU84
 327              		.loc 1 223 7 discriminator 1 view .LVU85
 328 008e 33F82420 		ldrh	r2, [r3, r4, lsl #2]
 329              	.LVL23:
 330              		.loc 1 223 7 is_stmt 0 discriminator 1 view .LVU86
 331 0092 92B2     		uxth	r2, r2
 332 0094 22F4E042 		bic	r2, r2, #28672
 333 0098 22F07002 		bic	r2, r2, #112
 334              	.LVL24:
 335              		.loc 1 223 7 is_stmt 1 discriminator 1 view .LVU87
 336 009c 42F40042 		orr	r2, r2, #32768
 337              	.LVL25:
 338              		.loc 1 223 7 is_stmt 0 discriminator 1 view .LVU88
 339 00a0 42F0C002 		orr	r2, r2, #192
 340 00a4 23F82420 		strh	r2, [r3, r4, lsl #2]	@ movhi
 341              	.L17:
 342              		.loc 1 223 7 discriminator 1 view .LVU89
 343              	.LBE5:
 344              		.loc 1 223 7 is_stmt 1 discriminator 3 view .LVU90
 345              	.LBE4:
 346              		.loc 1 223 7 discriminator 3 view .LVU91
 224:Drivers/STM32G4xx_HAL_Driver/Src/stm32g4xx_ll_usb.c **** 
 225:Drivers/STM32G4xx_HAL_Driver/Src/stm32g4xx_ll_usb.c ****       if (ep->type != EP_TYPE_ISOC)
 347              		.loc 1 225 7 discriminator 3 view .LVU92
 348              		.loc 1 225 13 is_stmt 0 discriminator 3 view .LVU93
 349 00a8 CA78     		ldrb	r2, [r1, #3]	@ zero_extendqisi2
 350              		.loc 1 225 10 discriminator 3 view .LVU94
 351 00aa 012A     		cmp	r2, #1
 352 00ac 1DD0     		beq	.L18
 226:Drivers/STM32G4xx_HAL_Driver/Src/stm32g4xx_ll_usb.c ****       {
 227:Drivers/STM32G4xx_HAL_Driver/Src/stm32g4xx_ll_usb.c ****         /* Configure NAK status for the Endpoint */
 228:Drivers/STM32G4xx_HAL_Driver/Src/stm32g4xx_ll_usb.c ****         PCD_SET_EP_TX_STATUS(USBx, ep->num, USB_EP_TX_NAK);
 353              		.loc 1 228 9 is_stmt 1 view .LVU95
ARM GAS  C:\Users\Jack2bs\AppData\Local\Temp\ccBBPckb.s 			page 11


 354              	.LBB6:
 355              		.loc 1 228 9 view .LVU96
 356              		.loc 1 228 9 view .LVU97
 357 00ae 0978     		ldrb	r1, [r1]	@ zero_extendqisi2
 358              	.LVL26:
 359              		.loc 1 228 9 is_stmt 0 view .LVU98
 360 00b0 33F82120 		ldrh	r2, [r3, r1, lsl #2]
 361 00b4 92B2     		uxth	r2, r2
 362 00b6 22F4E042 		bic	r2, r2, #28672
 363 00ba 22F04002 		bic	r2, r2, #64
 364              	.LVL27:
 365              		.loc 1 228 9 is_stmt 1 view .LVU99
 366              		.loc 1 228 9 view .LVU100
 367              		.loc 1 228 9 view .LVU101
 368 00be 82F02002 		eor	r2, r2, #32
 369              	.LVL28:
 370              		.loc 1 228 9 view .LVU102
 371 00c2 42F40042 		orr	r2, r2, #32768
 372              	.LVL29:
 373              		.loc 1 228 9 is_stmt 0 view .LVU103
 374 00c6 42F08002 		orr	r2, r2, #128
 375 00ca 23F82120 		strh	r2, [r3, r1, lsl #2]	@ movhi
 376              	.LBE6:
 377              		.loc 1 228 9 is_stmt 1 view .LVU104
 378 00ce 6AE0     		b	.L19
 379              	.LVL30:
 380              	.L14:
 193:Drivers/STM32G4xx_HAL_Driver/Src/stm32g4xx_ll_usb.c ****       break;
 381              		.loc 1 193 7 view .LVU105
 193:Drivers/STM32G4xx_HAL_Driver/Src/stm32g4xx_ll_usb.c ****       break;
 382              		.loc 1 193 17 is_stmt 0 view .LVU106
 383 00d0 4CF4007C 		orr	ip, ip, #512
 384              	.LVL31:
 194:Drivers/STM32G4xx_HAL_Driver/Src/stm32g4xx_ll_usb.c **** 
 385              		.loc 1 194 7 is_stmt 1 view .LVU107
 386 00d4 A9E7     		b	.L9
 387              	.L10:
 201:Drivers/STM32G4xx_HAL_Driver/Src/stm32g4xx_ll_usb.c ****       break;
 388              		.loc 1 201 7 view .LVU108
 201:Drivers/STM32G4xx_HAL_Driver/Src/stm32g4xx_ll_usb.c ****       break;
 389              		.loc 1 201 17 is_stmt 0 view .LVU109
 390 00d6 4CF4C06C 		orr	ip, ip, #1536
 391              	.LVL32:
 202:Drivers/STM32G4xx_HAL_Driver/Src/stm32g4xx_ll_usb.c **** 
 392              		.loc 1 202 7 is_stmt 1 view .LVU110
 184:Drivers/STM32G4xx_HAL_Driver/Src/stm32g4xx_ll_usb.c ****   uint16_t wEpRegVal;
 393              		.loc 1 184 21 is_stmt 0 view .LVU111
 394 00da 0020     		movs	r0, #0
 202:Drivers/STM32G4xx_HAL_Driver/Src/stm32g4xx_ll_usb.c **** 
 395              		.loc 1 202 7 view .LVU112
 396 00dc A5E7     		b	.L9
 397              	.L13:
 205:Drivers/STM32G4xx_HAL_Driver/Src/stm32g4xx_ll_usb.c ****       break;
 398              		.loc 1 205 7 is_stmt 1 view .LVU113
 205:Drivers/STM32G4xx_HAL_Driver/Src/stm32g4xx_ll_usb.c ****       break;
 399              		.loc 1 205 17 is_stmt 0 view .LVU114
 400 00de 4CF4806C 		orr	ip, ip, #1024
ARM GAS  C:\Users\Jack2bs\AppData\Local\Temp\ccBBPckb.s 			page 12


 401              	.LVL33:
 206:Drivers/STM32G4xx_HAL_Driver/Src/stm32g4xx_ll_usb.c **** 
 402              		.loc 1 206 7 is_stmt 1 view .LVU115
 184:Drivers/STM32G4xx_HAL_Driver/Src/stm32g4xx_ll_usb.c ****   uint16_t wEpRegVal;
 403              		.loc 1 184 21 is_stmt 0 view .LVU116
 404 00e2 0020     		movs	r0, #0
 206:Drivers/STM32G4xx_HAL_Driver/Src/stm32g4xx_ll_usb.c **** 
 405              		.loc 1 206 7 view .LVU117
 406 00e4 A1E7     		b	.L9
 407              	.L33:
 209:Drivers/STM32G4xx_HAL_Driver/Src/stm32g4xx_ll_usb.c ****       break;
 408              		.loc 1 209 11 view .LVU118
 409 00e6 0120     		movs	r0, #1
 410 00e8 9FE7     		b	.L9
 411              	.LVL34:
 412              	.L18:
 229:Drivers/STM32G4xx_HAL_Driver/Src/stm32g4xx_ll_usb.c ****       }
 230:Drivers/STM32G4xx_HAL_Driver/Src/stm32g4xx_ll_usb.c ****       else
 231:Drivers/STM32G4xx_HAL_Driver/Src/stm32g4xx_ll_usb.c ****       {
 232:Drivers/STM32G4xx_HAL_Driver/Src/stm32g4xx_ll_usb.c ****         /* Configure TX Endpoint to disabled state */
 233:Drivers/STM32G4xx_HAL_Driver/Src/stm32g4xx_ll_usb.c ****         PCD_SET_EP_TX_STATUS(USBx, ep->num, USB_EP_TX_DIS);
 413              		.loc 1 233 9 is_stmt 1 view .LVU119
 414              	.LBB7:
 415              		.loc 1 233 9 view .LVU120
 416              		.loc 1 233 9 view .LVU121
 417 00ea 0978     		ldrb	r1, [r1]	@ zero_extendqisi2
 418              	.LVL35:
 419              		.loc 1 233 9 is_stmt 0 view .LVU122
 420 00ec 33F82120 		ldrh	r2, [r3, r1, lsl #2]
 421 00f0 92B2     		uxth	r2, r2
 422 00f2 22F4E042 		bic	r2, r2, #28672
 423 00f6 22F04002 		bic	r2, r2, #64
 424              	.LVL36:
 425              		.loc 1 233 9 is_stmt 1 view .LVU123
 426              		.loc 1 233 9 view .LVU124
 427              		.loc 1 233 9 view .LVU125
 428 00fa 42F40042 		orr	r2, r2, #32768
 429              	.LVL37:
 430              		.loc 1 233 9 is_stmt 0 view .LVU126
 431 00fe 42F08002 		orr	r2, r2, #128
 432 0102 23F82120 		strh	r2, [r3, r1, lsl #2]	@ movhi
 433 0106 4EE0     		b	.L19
 434              	.LVL38:
 435              	.L16:
 436              		.loc 1 233 9 view .LVU127
 437              	.LBE7:
 234:Drivers/STM32G4xx_HAL_Driver/Src/stm32g4xx_ll_usb.c ****       }
 235:Drivers/STM32G4xx_HAL_Driver/Src/stm32g4xx_ll_usb.c ****     }
 236:Drivers/STM32G4xx_HAL_Driver/Src/stm32g4xx_ll_usb.c ****     else
 237:Drivers/STM32G4xx_HAL_Driver/Src/stm32g4xx_ll_usb.c ****     {
 238:Drivers/STM32G4xx_HAL_Driver/Src/stm32g4xx_ll_usb.c ****       /*Set the endpoint Receive buffer address */
 239:Drivers/STM32G4xx_HAL_Driver/Src/stm32g4xx_ll_usb.c ****       PCD_SET_EP_RX_ADDRESS(USBx, ep->num, ep->pmaadress);
 438              		.loc 1 239 7 is_stmt 1 view .LVU128
 439              	.LBB8:
 440              		.loc 1 239 7 view .LVU129
 441              		.loc 1 239 7 view .LVU130
 442              		.loc 1 239 7 view .LVU131
ARM GAS  C:\Users\Jack2bs\AppData\Local\Temp\ccBBPckb.s 			page 13


 443 0108 B3F85020 		ldrh	r2, [r3, #80]
 444 010c 13FA82F2 		uxtah	r2, r3, r2
 445              	.LVL39:
 446              		.loc 1 239 7 view .LVU132
 447 0110 0C78     		ldrb	r4, [r1]	@ zero_extendqisi2
 448 0112 02EBC402 		add	r2, r2, r4, lsl #3
 449              	.LVL40:
 450              		.loc 1 239 7 view .LVU133
 451 0116 B1F806C0 		ldrh	ip, [r1, #6]
 452              		.loc 1 239 7 is_stmt 0 view .LVU134
 453 011a 4FEA5C0C 		lsr	ip, ip, #1
 454 011e 4FEA4C0C 		lsl	ip, ip, #1
 455 0122 A2F804C4 		strh	ip, [r2, #1028]	@ movhi
 456              	.LBE8:
 457              		.loc 1 239 7 is_stmt 1 view .LVU135
 240:Drivers/STM32G4xx_HAL_Driver/Src/stm32g4xx_ll_usb.c **** 
 241:Drivers/STM32G4xx_HAL_Driver/Src/stm32g4xx_ll_usb.c ****       /*Set the endpoint Receive buffer counter*/
 242:Drivers/STM32G4xx_HAL_Driver/Src/stm32g4xx_ll_usb.c ****       PCD_SET_EP_RX_CNT(USBx, ep->num, ep->maxpacket);
 458              		.loc 1 242 7 view .LVU136
 459              	.LBB9:
 460              		.loc 1 242 7 view .LVU137
 461              	.LVL41:
 462              		.loc 1 242 7 view .LVU138
 463              		.loc 1 242 7 view .LVU139
 464 0126 B3F85020 		ldrh	r2, [r3, #80]
 465              	.LVL42:
 466              		.loc 1 242 7 is_stmt 0 view .LVU140
 467 012a 13FA82F2 		uxtah	r2, r3, r2
 468              	.LVL43:
 469              		.loc 1 242 7 is_stmt 1 view .LVU141
 470 012e 0C78     		ldrb	r4, [r1]	@ zero_extendqisi2
 471              		.loc 1 242 7 is_stmt 0 view .LVU142
 472 0130 02EBC402 		add	r2, r2, r4, lsl #3
 473              	.LVL44:
 474              		.loc 1 242 7 is_stmt 1 view .LVU143
 475              	.LBB10:
 476              		.loc 1 242 7 view .LVU144
 477              		.loc 1 242 7 view .LVU145
 478 0134 0C69     		ldr	r4, [r1, #16]
 479 0136 BCBB     		cbnz	r4, .L20
 480              		.loc 1 242 7 discriminator 1 view .LVU146
 481 0138 B2F806C4 		ldrh	ip, [r2, #1030]
 482 013c 1FFA8CFC 		uxth	ip, ip
 483 0140 2CF4F84C 		bic	ip, ip, #31744
 484 0144 1FFA8CFC 		uxth	ip, ip
 485 0148 A2F806C4 		strh	ip, [r2, #1030]	@ movhi
 486              		.loc 1 242 7 discriminator 1 view .LVU147
 487 014c B2F806C4 		ldrh	ip, [r2, #1030]
 488 0150 6FEA4C4C 		mvn	ip, ip, lsl #17
 489 0154 6FEA5C4C 		mvn	ip, ip, lsr #17
 490 0158 1FFA8CFC 		uxth	ip, ip
 491 015c A2F806C4 		strh	ip, [r2, #1030]	@ movhi
 492              	.L21:
 493              		.loc 1 242 7 discriminator 13 view .LVU148
 494              	.LBE10:
 495              		.loc 1 242 7 discriminator 13 view .LVU149
 496              	.LBE9:
ARM GAS  C:\Users\Jack2bs\AppData\Local\Temp\ccBBPckb.s 			page 14


 497              		.loc 1 242 7 discriminator 13 view .LVU150
 243:Drivers/STM32G4xx_HAL_Driver/Src/stm32g4xx_ll_usb.c ****       PCD_CLEAR_RX_DTOG(USBx, ep->num);
 498              		.loc 1 243 7 discriminator 13 view .LVU151
 499              	.LBB12:
 500              		.loc 1 243 7 discriminator 13 view .LVU152
 501              		.loc 1 243 7 discriminator 13 view .LVU153
 502 0160 0C78     		ldrb	r4, [r1]	@ zero_extendqisi2
 503 0162 33F82420 		ldrh	r2, [r3, r4, lsl #2]
 504              	.LVL45:
 505              		.loc 1 243 7 discriminator 13 view .LVU154
 506 0166 12F4804F 		tst	r2, #16384
 507 016a 0CD0     		beq	.L25
 508              		.loc 1 243 7 discriminator 1 view .LVU155
 509              	.LBB13:
 510              		.loc 1 243 7 discriminator 1 view .LVU156
 511              		.loc 1 243 7 discriminator 1 view .LVU157
 512 016c 33F82420 		ldrh	r2, [r3, r4, lsl #2]
 513              	.LVL46:
 514              		.loc 1 243 7 is_stmt 0 discriminator 1 view .LVU158
 515 0170 92B2     		uxth	r2, r2
 516 0172 22F4E042 		bic	r2, r2, #28672
 517 0176 22F07002 		bic	r2, r2, #112
 518              	.LVL47:
 519              		.loc 1 243 7 is_stmt 1 discriminator 1 view .LVU159
 520 017a 42F44042 		orr	r2, r2, #49152
 521              	.LVL48:
 522              		.loc 1 243 7 is_stmt 0 discriminator 1 view .LVU160
 523 017e 42F08002 		orr	r2, r2, #128
 524 0182 23F82420 		strh	r2, [r3, r4, lsl #2]	@ movhi
 525              	.L25:
 526              		.loc 1 243 7 discriminator 1 view .LVU161
 527              	.LBE13:
 528              		.loc 1 243 7 is_stmt 1 discriminator 3 view .LVU162
 529              	.LBE12:
 530              		.loc 1 243 7 discriminator 3 view .LVU163
 244:Drivers/STM32G4xx_HAL_Driver/Src/stm32g4xx_ll_usb.c **** 
 245:Drivers/STM32G4xx_HAL_Driver/Src/stm32g4xx_ll_usb.c ****       /* Configure VALID status for the Endpoint*/
 246:Drivers/STM32G4xx_HAL_Driver/Src/stm32g4xx_ll_usb.c ****       PCD_SET_EP_RX_STATUS(USBx, ep->num, USB_EP_RX_VALID);
 531              		.loc 1 246 7 discriminator 3 view .LVU164
 532              	.LBB14:
 533              		.loc 1 246 7 discriminator 3 view .LVU165
 534              		.loc 1 246 7 discriminator 3 view .LVU166
 535 0186 0978     		ldrb	r1, [r1]	@ zero_extendqisi2
 536              	.LVL49:
 537              		.loc 1 246 7 is_stmt 0 discriminator 3 view .LVU167
 538 0188 33F82120 		ldrh	r2, [r3, r1, lsl #2]
 539 018c 92B2     		uxth	r2, r2
 540 018e 22F48042 		bic	r2, r2, #16384
 541 0192 22F07002 		bic	r2, r2, #112
 542              	.LVL50:
 543              		.loc 1 246 7 is_stmt 1 discriminator 3 view .LVU168
 544              		.loc 1 246 7 discriminator 3 view .LVU169
 545              		.loc 1 246 7 discriminator 3 view .LVU170
 546              		.loc 1 246 7 discriminator 3 view .LVU171
 547 0196 82F44052 		eor	r2, r2, #12288
 548              	.LVL51:
 549              		.loc 1 246 7 discriminator 3 view .LVU172
ARM GAS  C:\Users\Jack2bs\AppData\Local\Temp\ccBBPckb.s 			page 15


 550 019a 42F40042 		orr	r2, r2, #32768
 551              	.LVL52:
 552              		.loc 1 246 7 is_stmt 0 discriminator 3 view .LVU173
 553 019e 42F08002 		orr	r2, r2, #128
 554 01a2 23F82120 		strh	r2, [r3, r1, lsl #2]	@ movhi
 555              	.L19:
 556              		.loc 1 246 7 discriminator 3 view .LVU174
 557              	.LBE14:
 247:Drivers/STM32G4xx_HAL_Driver/Src/stm32g4xx_ll_usb.c ****     }
 248:Drivers/STM32G4xx_HAL_Driver/Src/stm32g4xx_ll_usb.c ****   }
 249:Drivers/STM32G4xx_HAL_Driver/Src/stm32g4xx_ll_usb.c ****   /*Double Buffer*/
 250:Drivers/STM32G4xx_HAL_Driver/Src/stm32g4xx_ll_usb.c ****   else
 251:Drivers/STM32G4xx_HAL_Driver/Src/stm32g4xx_ll_usb.c ****   {
 252:Drivers/STM32G4xx_HAL_Driver/Src/stm32g4xx_ll_usb.c ****     /* Set the endpoint as double buffered */
 253:Drivers/STM32G4xx_HAL_Driver/Src/stm32g4xx_ll_usb.c ****     PCD_SET_EP_DBUF(USBx, ep->num);
 254:Drivers/STM32G4xx_HAL_Driver/Src/stm32g4xx_ll_usb.c **** 
 255:Drivers/STM32G4xx_HAL_Driver/Src/stm32g4xx_ll_usb.c ****     /* Set buffer address for double buffered mode */
 256:Drivers/STM32G4xx_HAL_Driver/Src/stm32g4xx_ll_usb.c ****     PCD_SET_EP_DBUF_ADDR(USBx, ep->num, ep->pmaaddr0, ep->pmaaddr1);
 257:Drivers/STM32G4xx_HAL_Driver/Src/stm32g4xx_ll_usb.c **** 
 258:Drivers/STM32G4xx_HAL_Driver/Src/stm32g4xx_ll_usb.c ****     if (ep->is_in == 0U)
 259:Drivers/STM32G4xx_HAL_Driver/Src/stm32g4xx_ll_usb.c ****     {
 260:Drivers/STM32G4xx_HAL_Driver/Src/stm32g4xx_ll_usb.c ****       /* Clear the data toggle bits for the endpoint IN/OUT */
 261:Drivers/STM32G4xx_HAL_Driver/Src/stm32g4xx_ll_usb.c ****       PCD_CLEAR_RX_DTOG(USBx, ep->num);
 262:Drivers/STM32G4xx_HAL_Driver/Src/stm32g4xx_ll_usb.c ****       PCD_CLEAR_TX_DTOG(USBx, ep->num);
 263:Drivers/STM32G4xx_HAL_Driver/Src/stm32g4xx_ll_usb.c **** 
 264:Drivers/STM32G4xx_HAL_Driver/Src/stm32g4xx_ll_usb.c ****       PCD_SET_EP_RX_STATUS(USBx, ep->num, USB_EP_RX_VALID);
 265:Drivers/STM32G4xx_HAL_Driver/Src/stm32g4xx_ll_usb.c ****       PCD_SET_EP_TX_STATUS(USBx, ep->num, USB_EP_TX_DIS);
 266:Drivers/STM32G4xx_HAL_Driver/Src/stm32g4xx_ll_usb.c ****     }
 267:Drivers/STM32G4xx_HAL_Driver/Src/stm32g4xx_ll_usb.c ****     else
 268:Drivers/STM32G4xx_HAL_Driver/Src/stm32g4xx_ll_usb.c ****     {
 269:Drivers/STM32G4xx_HAL_Driver/Src/stm32g4xx_ll_usb.c ****       /* Clear the data toggle bits for the endpoint IN/OUT */
 270:Drivers/STM32G4xx_HAL_Driver/Src/stm32g4xx_ll_usb.c ****       PCD_CLEAR_RX_DTOG(USBx, ep->num);
 271:Drivers/STM32G4xx_HAL_Driver/Src/stm32g4xx_ll_usb.c ****       PCD_CLEAR_TX_DTOG(USBx, ep->num);
 272:Drivers/STM32G4xx_HAL_Driver/Src/stm32g4xx_ll_usb.c **** 
 273:Drivers/STM32G4xx_HAL_Driver/Src/stm32g4xx_ll_usb.c ****       if (ep->type != EP_TYPE_ISOC)
 274:Drivers/STM32G4xx_HAL_Driver/Src/stm32g4xx_ll_usb.c ****       {
 275:Drivers/STM32G4xx_HAL_Driver/Src/stm32g4xx_ll_usb.c ****         /* Configure NAK status for the Endpoint */
 276:Drivers/STM32G4xx_HAL_Driver/Src/stm32g4xx_ll_usb.c ****         PCD_SET_EP_TX_STATUS(USBx, ep->num, USB_EP_TX_NAK);
 277:Drivers/STM32G4xx_HAL_Driver/Src/stm32g4xx_ll_usb.c ****       }
 278:Drivers/STM32G4xx_HAL_Driver/Src/stm32g4xx_ll_usb.c ****       else
 279:Drivers/STM32G4xx_HAL_Driver/Src/stm32g4xx_ll_usb.c ****       {
 280:Drivers/STM32G4xx_HAL_Driver/Src/stm32g4xx_ll_usb.c ****         /* Configure TX Endpoint to disabled state */
 281:Drivers/STM32G4xx_HAL_Driver/Src/stm32g4xx_ll_usb.c ****         PCD_SET_EP_TX_STATUS(USBx, ep->num, USB_EP_TX_DIS);
 282:Drivers/STM32G4xx_HAL_Driver/Src/stm32g4xx_ll_usb.c ****       }
 283:Drivers/STM32G4xx_HAL_Driver/Src/stm32g4xx_ll_usb.c **** 
 284:Drivers/STM32G4xx_HAL_Driver/Src/stm32g4xx_ll_usb.c ****       PCD_SET_EP_RX_STATUS(USBx, ep->num, USB_EP_RX_DIS);
 558              		.loc 1 284 7 is_stmt 1 discriminator 7 view .LVU175
 285:Drivers/STM32G4xx_HAL_Driver/Src/stm32g4xx_ll_usb.c ****     }
 286:Drivers/STM32G4xx_HAL_Driver/Src/stm32g4xx_ll_usb.c ****   }
 287:Drivers/STM32G4xx_HAL_Driver/Src/stm32g4xx_ll_usb.c **** 
 288:Drivers/STM32G4xx_HAL_Driver/Src/stm32g4xx_ll_usb.c ****   return ret;
 559              		.loc 1 288 3 discriminator 7 view .LVU176
 289:Drivers/STM32G4xx_HAL_Driver/Src/stm32g4xx_ll_usb.c **** }
 560              		.loc 1 289 1 is_stmt 0 discriminator 7 view .LVU177
 561 01a6 10BD     		pop	{r4, pc}
 562              	.LVL53:
 563              	.L20:
ARM GAS  C:\Users\Jack2bs\AppData\Local\Temp\ccBBPckb.s 			page 16


 564              	.LBB15:
 565              	.LBB11:
 242:Drivers/STM32G4xx_HAL_Driver/Src/stm32g4xx_ll_usb.c ****       PCD_CLEAR_RX_DTOG(USBx, ep->num);
 566              		.loc 1 242 7 is_stmt 1 discriminator 2 view .LVU178
 567 01a8 3E2C     		cmp	r4, #62
 568 01aa 0DD8     		bhi	.L22
 242:Drivers/STM32G4xx_HAL_Driver/Src/stm32g4xx_ll_usb.c ****       PCD_CLEAR_RX_DTOG(USBx, ep->num);
 569              		.loc 1 242 7 discriminator 4 view .LVU179
 242:Drivers/STM32G4xx_HAL_Driver/Src/stm32g4xx_ll_usb.c ****       PCD_CLEAR_RX_DTOG(USBx, ep->num);
 570              		.loc 1 242 7 discriminator 4 view .LVU180
 571 01ac 4FEA540C 		lsr	ip, r4, #1
 572              	.LVL54:
 242:Drivers/STM32G4xx_HAL_Driver/Src/stm32g4xx_ll_usb.c ****       PCD_CLEAR_RX_DTOG(USBx, ep->num);
 573              		.loc 1 242 7 discriminator 4 view .LVU181
 574 01b0 14F0010F 		tst	r4, #1
 575 01b4 01D0     		beq	.L23
 242:Drivers/STM32G4xx_HAL_Driver/Src/stm32g4xx_ll_usb.c ****       PCD_CLEAR_RX_DTOG(USBx, ep->num);
 576              		.loc 1 242 7 discriminator 6 view .LVU182
 577 01b6 0CF1010C 		add	ip, ip, #1
 578              	.LVL55:
 579              	.L23:
 242:Drivers/STM32G4xx_HAL_Driver/Src/stm32g4xx_ll_usb.c ****       PCD_CLEAR_RX_DTOG(USBx, ep->num);
 580              		.loc 1 242 7 discriminator 8 view .LVU183
 581 01ba 4FEA8C2C 		lsl	ip, ip, #10
 582              	.LVL56:
 242:Drivers/STM32G4xx_HAL_Driver/Src/stm32g4xx_ll_usb.c ****       PCD_CLEAR_RX_DTOG(USBx, ep->num);
 583              		.loc 1 242 7 is_stmt 0 discriminator 8 view .LVU184
 584 01be 1FFA8CFC 		uxth	ip, ip
 585 01c2 A2F806C4 		strh	ip, [r2, #1030]	@ movhi
 242:Drivers/STM32G4xx_HAL_Driver/Src/stm32g4xx_ll_usb.c ****       PCD_CLEAR_RX_DTOG(USBx, ep->num);
 586              		.loc 1 242 7 is_stmt 1 discriminator 8 view .LVU185
 587 01c6 CBE7     		b	.L21
 588              	.L22:
 242:Drivers/STM32G4xx_HAL_Driver/Src/stm32g4xx_ll_usb.c ****       PCD_CLEAR_RX_DTOG(USBx, ep->num);
 589              		.loc 1 242 7 discriminator 5 view .LVU186
 242:Drivers/STM32G4xx_HAL_Driver/Src/stm32g4xx_ll_usb.c ****       PCD_CLEAR_RX_DTOG(USBx, ep->num);
 590              		.loc 1 242 7 discriminator 5 view .LVU187
 591 01c8 4FEA541C 		lsr	ip, r4, #5
 592              	.LVL57:
 242:Drivers/STM32G4xx_HAL_Driver/Src/stm32g4xx_ll_usb.c ****       PCD_CLEAR_RX_DTOG(USBx, ep->num);
 593              		.loc 1 242 7 discriminator 5 view .LVU188
 594 01cc 14F01F0F 		tst	r4, #31
 595 01d0 01D1     		bne	.L24
 242:Drivers/STM32G4xx_HAL_Driver/Src/stm32g4xx_ll_usb.c ****       PCD_CLEAR_RX_DTOG(USBx, ep->num);
 596              		.loc 1 242 7 discriminator 10 view .LVU189
 597 01d2 0CF1FF3C 		add	ip, ip, #-1
 598              	.LVL58:
 599              	.L24:
 242:Drivers/STM32G4xx_HAL_Driver/Src/stm32g4xx_ll_usb.c ****       PCD_CLEAR_RX_DTOG(USBx, ep->num);
 600              		.loc 1 242 7 discriminator 12 view .LVU190
 601 01d6 6FEACC64 		mvn	r4, ip, lsl #27
 602 01da 6FEA5444 		mvn	r4, r4, lsr #17
 603 01de A4B2     		uxth	r4, r4
 604 01e0 A2F80644 		strh	r4, [r2, #1030]	@ movhi
 605 01e4 BCE7     		b	.L21
 606              	.LVL59:
 607              	.L15:
ARM GAS  C:\Users\Jack2bs\AppData\Local\Temp\ccBBPckb.s 			page 17


 242:Drivers/STM32G4xx_HAL_Driver/Src/stm32g4xx_ll_usb.c ****       PCD_CLEAR_RX_DTOG(USBx, ep->num);
 608              		.loc 1 242 7 is_stmt 0 discriminator 12 view .LVU191
 609              	.LBE11:
 610              	.LBE15:
 253:Drivers/STM32G4xx_HAL_Driver/Src/stm32g4xx_ll_usb.c **** 
 611              		.loc 1 253 5 is_stmt 1 view .LVU192
 612              	.LBB16:
 253:Drivers/STM32G4xx_HAL_Driver/Src/stm32g4xx_ll_usb.c **** 
 613              		.loc 1 253 5 view .LVU193
 253:Drivers/STM32G4xx_HAL_Driver/Src/stm32g4xx_ll_usb.c **** 
 614              		.loc 1 253 5 view .LVU194
 615 01e6 91F800C0 		ldrb	ip, [r1]	@ zero_extendqisi2
 253:Drivers/STM32G4xx_HAL_Driver/Src/stm32g4xx_ll_usb.c **** 
 616              		.loc 1 253 5 is_stmt 0 view .LVU195
 617 01ea 33F82C20 		ldrh	r2, [r3, ip, lsl #2]
 618 01ee 92B2     		uxth	r2, r2
 619 01f0 22F4E042 		bic	r2, r2, #28672
 620 01f4 22F07002 		bic	r2, r2, #112
 621              	.LVL60:
 253:Drivers/STM32G4xx_HAL_Driver/Src/stm32g4xx_ll_usb.c **** 
 622              		.loc 1 253 5 is_stmt 1 view .LVU196
 623 01f8 42F40142 		orr	r2, r2, #33024
 624              	.LVL61:
 253:Drivers/STM32G4xx_HAL_Driver/Src/stm32g4xx_ll_usb.c **** 
 625              		.loc 1 253 5 is_stmt 0 view .LVU197
 626 01fc 42F08002 		orr	r2, r2, #128
 627 0200 23F82C20 		strh	r2, [r3, ip, lsl #2]	@ movhi
 628              	.LBE16:
 253:Drivers/STM32G4xx_HAL_Driver/Src/stm32g4xx_ll_usb.c **** 
 629              		.loc 1 253 5 is_stmt 1 view .LVU198
 256:Drivers/STM32G4xx_HAL_Driver/Src/stm32g4xx_ll_usb.c **** 
 630              		.loc 1 256 5 view .LVU199
 256:Drivers/STM32G4xx_HAL_Driver/Src/stm32g4xx_ll_usb.c **** 
 631              		.loc 1 256 5 view .LVU200
 256:Drivers/STM32G4xx_HAL_Driver/Src/stm32g4xx_ll_usb.c **** 
 632              		.loc 1 256 5 view .LVU201
 633              	.LBB17:
 256:Drivers/STM32G4xx_HAL_Driver/Src/stm32g4xx_ll_usb.c **** 
 634              		.loc 1 256 5 view .LVU202
 256:Drivers/STM32G4xx_HAL_Driver/Src/stm32g4xx_ll_usb.c **** 
 635              		.loc 1 256 5 view .LVU203
 636              	.LVL62:
 256:Drivers/STM32G4xx_HAL_Driver/Src/stm32g4xx_ll_usb.c **** 
 637              		.loc 1 256 5 view .LVU204
 638 0204 B3F85020 		ldrh	r2, [r3, #80]
 639 0208 13FA82F2 		uxtah	r2, r3, r2
 640              	.LVL63:
 256:Drivers/STM32G4xx_HAL_Driver/Src/stm32g4xx_ll_usb.c **** 
 641              		.loc 1 256 5 view .LVU205
 642 020c 91F800C0 		ldrb	ip, [r1]	@ zero_extendqisi2
 643 0210 02EBCC02 		add	r2, r2, ip, lsl #3
 644              	.LVL64:
 256:Drivers/STM32G4xx_HAL_Driver/Src/stm32g4xx_ll_usb.c **** 
 645              		.loc 1 256 5 view .LVU206
 646 0214 B1F808C0 		ldrh	ip, [r1, #8]
 647 0218 4FEA5C0C 		lsr	ip, ip, #1
 648 021c 4FEA4C0C 		lsl	ip, ip, #1
ARM GAS  C:\Users\Jack2bs\AppData\Local\Temp\ccBBPckb.s 			page 18


 649 0220 A2F800C4 		strh	ip, [r2, #1024]	@ movhi
 650              	.LBE17:
 256:Drivers/STM32G4xx_HAL_Driver/Src/stm32g4xx_ll_usb.c **** 
 651              		.loc 1 256 5 view .LVU207
 256:Drivers/STM32G4xx_HAL_Driver/Src/stm32g4xx_ll_usb.c **** 
 652              		.loc 1 256 5 view .LVU208
 256:Drivers/STM32G4xx_HAL_Driver/Src/stm32g4xx_ll_usb.c **** 
 653              		.loc 1 256 5 view .LVU209
 256:Drivers/STM32G4xx_HAL_Driver/Src/stm32g4xx_ll_usb.c **** 
 654              		.loc 1 256 5 view .LVU210
 655              	.LBB18:
 256:Drivers/STM32G4xx_HAL_Driver/Src/stm32g4xx_ll_usb.c **** 
 656              		.loc 1 256 5 view .LVU211
 256:Drivers/STM32G4xx_HAL_Driver/Src/stm32g4xx_ll_usb.c **** 
 657              		.loc 1 256 5 view .LVU212
 658              	.LVL65:
 256:Drivers/STM32G4xx_HAL_Driver/Src/stm32g4xx_ll_usb.c **** 
 659              		.loc 1 256 5 view .LVU213
 660 0224 B3F85020 		ldrh	r2, [r3, #80]
 661              	.LVL66:
 256:Drivers/STM32G4xx_HAL_Driver/Src/stm32g4xx_ll_usb.c **** 
 662              		.loc 1 256 5 is_stmt 0 view .LVU214
 663 0228 13FA82F2 		uxtah	r2, r3, r2
 664              	.LVL67:
 256:Drivers/STM32G4xx_HAL_Driver/Src/stm32g4xx_ll_usb.c **** 
 665              		.loc 1 256 5 is_stmt 1 view .LVU215
 666 022c 91F800C0 		ldrb	ip, [r1]	@ zero_extendqisi2
 667 0230 02EBCC02 		add	r2, r2, ip, lsl #3
 668              	.LVL68:
 256:Drivers/STM32G4xx_HAL_Driver/Src/stm32g4xx_ll_usb.c **** 
 669              		.loc 1 256 5 view .LVU216
 670 0234 B1F80AC0 		ldrh	ip, [r1, #10]
 671 0238 4FEA5C0C 		lsr	ip, ip, #1
 672 023c 4FEA4C0C 		lsl	ip, ip, #1
 673 0240 A2F804C4 		strh	ip, [r2, #1028]	@ movhi
 674              	.LBE18:
 256:Drivers/STM32G4xx_HAL_Driver/Src/stm32g4xx_ll_usb.c **** 
 675              		.loc 1 256 5 view .LVU217
 256:Drivers/STM32G4xx_HAL_Driver/Src/stm32g4xx_ll_usb.c **** 
 676              		.loc 1 256 5 view .LVU218
 256:Drivers/STM32G4xx_HAL_Driver/Src/stm32g4xx_ll_usb.c **** 
 677              		.loc 1 256 5 view .LVU219
 258:Drivers/STM32G4xx_HAL_Driver/Src/stm32g4xx_ll_usb.c ****     {
 678              		.loc 1 258 5 view .LVU220
 258:Drivers/STM32G4xx_HAL_Driver/Src/stm32g4xx_ll_usb.c ****     {
 679              		.loc 1 258 11 is_stmt 0 view .LVU221
 680 0244 4A78     		ldrb	r2, [r1, #1]	@ zero_extendqisi2
 681              	.LVL69:
 258:Drivers/STM32G4xx_HAL_Driver/Src/stm32g4xx_ll_usb.c ****     {
 682              		.loc 1 258 8 view .LVU222
 683 0246 002A     		cmp	r2, #0
 684 0248 41D1     		bne	.L26
 261:Drivers/STM32G4xx_HAL_Driver/Src/stm32g4xx_ll_usb.c ****       PCD_CLEAR_TX_DTOG(USBx, ep->num);
 685              		.loc 1 261 7 is_stmt 1 view .LVU223
 686              	.LBB19:
 261:Drivers/STM32G4xx_HAL_Driver/Src/stm32g4xx_ll_usb.c ****       PCD_CLEAR_TX_DTOG(USBx, ep->num);
 687              		.loc 1 261 7 view .LVU224
ARM GAS  C:\Users\Jack2bs\AppData\Local\Temp\ccBBPckb.s 			page 19


 261:Drivers/STM32G4xx_HAL_Driver/Src/stm32g4xx_ll_usb.c ****       PCD_CLEAR_TX_DTOG(USBx, ep->num);
 688              		.loc 1 261 7 view .LVU225
 689 024a 0C78     		ldrb	r4, [r1]	@ zero_extendqisi2
 690 024c 33F82420 		ldrh	r2, [r3, r4, lsl #2]
 691              	.LVL70:
 261:Drivers/STM32G4xx_HAL_Driver/Src/stm32g4xx_ll_usb.c ****       PCD_CLEAR_TX_DTOG(USBx, ep->num);
 692              		.loc 1 261 7 view .LVU226
 693 0250 12F4804F 		tst	r2, #16384
 694 0254 0CD0     		beq	.L27
 261:Drivers/STM32G4xx_HAL_Driver/Src/stm32g4xx_ll_usb.c ****       PCD_CLEAR_TX_DTOG(USBx, ep->num);
 695              		.loc 1 261 7 discriminator 1 view .LVU227
 696              	.LBB20:
 261:Drivers/STM32G4xx_HAL_Driver/Src/stm32g4xx_ll_usb.c ****       PCD_CLEAR_TX_DTOG(USBx, ep->num);
 697              		.loc 1 261 7 discriminator 1 view .LVU228
 261:Drivers/STM32G4xx_HAL_Driver/Src/stm32g4xx_ll_usb.c ****       PCD_CLEAR_TX_DTOG(USBx, ep->num);
 698              		.loc 1 261 7 discriminator 1 view .LVU229
 699 0256 33F82420 		ldrh	r2, [r3, r4, lsl #2]
 700              	.LVL71:
 261:Drivers/STM32G4xx_HAL_Driver/Src/stm32g4xx_ll_usb.c ****       PCD_CLEAR_TX_DTOG(USBx, ep->num);
 701              		.loc 1 261 7 is_stmt 0 discriminator 1 view .LVU230
 702 025a 92B2     		uxth	r2, r2
 703 025c 22F4E042 		bic	r2, r2, #28672
 704 0260 22F07002 		bic	r2, r2, #112
 705              	.LVL72:
 261:Drivers/STM32G4xx_HAL_Driver/Src/stm32g4xx_ll_usb.c ****       PCD_CLEAR_TX_DTOG(USBx, ep->num);
 706              		.loc 1 261 7 is_stmt 1 discriminator 1 view .LVU231
 707 0264 42F44042 		orr	r2, r2, #49152
 708              	.LVL73:
 261:Drivers/STM32G4xx_HAL_Driver/Src/stm32g4xx_ll_usb.c ****       PCD_CLEAR_TX_DTOG(USBx, ep->num);
 709              		.loc 1 261 7 is_stmt 0 discriminator 1 view .LVU232
 710 0268 42F08002 		orr	r2, r2, #128
 711 026c 23F82420 		strh	r2, [r3, r4, lsl #2]	@ movhi
 712              	.L27:
 261:Drivers/STM32G4xx_HAL_Driver/Src/stm32g4xx_ll_usb.c ****       PCD_CLEAR_TX_DTOG(USBx, ep->num);
 713              		.loc 1 261 7 discriminator 1 view .LVU233
 714              	.LBE20:
 261:Drivers/STM32G4xx_HAL_Driver/Src/stm32g4xx_ll_usb.c ****       PCD_CLEAR_TX_DTOG(USBx, ep->num);
 715              		.loc 1 261 7 is_stmt 1 discriminator 3 view .LVU234
 716              	.LBE19:
 261:Drivers/STM32G4xx_HAL_Driver/Src/stm32g4xx_ll_usb.c ****       PCD_CLEAR_TX_DTOG(USBx, ep->num);
 717              		.loc 1 261 7 discriminator 3 view .LVU235
 262:Drivers/STM32G4xx_HAL_Driver/Src/stm32g4xx_ll_usb.c **** 
 718              		.loc 1 262 7 discriminator 3 view .LVU236
 719              	.LBB21:
 262:Drivers/STM32G4xx_HAL_Driver/Src/stm32g4xx_ll_usb.c **** 
 720              		.loc 1 262 7 discriminator 3 view .LVU237
 262:Drivers/STM32G4xx_HAL_Driver/Src/stm32g4xx_ll_usb.c **** 
 721              		.loc 1 262 7 discriminator 3 view .LVU238
 722 0270 0C78     		ldrb	r4, [r1]	@ zero_extendqisi2
 723 0272 33F82420 		ldrh	r2, [r3, r4, lsl #2]
 724              	.LVL74:
 262:Drivers/STM32G4xx_HAL_Driver/Src/stm32g4xx_ll_usb.c **** 
 725              		.loc 1 262 7 discriminator 3 view .LVU239
 726 0276 12F0400F 		tst	r2, #64
 727 027a 0CD0     		beq	.L28
 262:Drivers/STM32G4xx_HAL_Driver/Src/stm32g4xx_ll_usb.c **** 
 728              		.loc 1 262 7 discriminator 1 view .LVU240
ARM GAS  C:\Users\Jack2bs\AppData\Local\Temp\ccBBPckb.s 			page 20


 729              	.LBB22:
 262:Drivers/STM32G4xx_HAL_Driver/Src/stm32g4xx_ll_usb.c **** 
 730              		.loc 1 262 7 discriminator 1 view .LVU241
 262:Drivers/STM32G4xx_HAL_Driver/Src/stm32g4xx_ll_usb.c **** 
 731              		.loc 1 262 7 discriminator 1 view .LVU242
 732 027c 33F82420 		ldrh	r2, [r3, r4, lsl #2]
 733              	.LVL75:
 262:Drivers/STM32G4xx_HAL_Driver/Src/stm32g4xx_ll_usb.c **** 
 734              		.loc 1 262 7 is_stmt 0 discriminator 1 view .LVU243
 735 0280 92B2     		uxth	r2, r2
 736 0282 22F4E042 		bic	r2, r2, #28672
 737 0286 22F07002 		bic	r2, r2, #112
 738              	.LVL76:
 262:Drivers/STM32G4xx_HAL_Driver/Src/stm32g4xx_ll_usb.c **** 
 739              		.loc 1 262 7 is_stmt 1 discriminator 1 view .LVU244
 740 028a 42F40042 		orr	r2, r2, #32768
 741              	.LVL77:
 262:Drivers/STM32G4xx_HAL_Driver/Src/stm32g4xx_ll_usb.c **** 
 742              		.loc 1 262 7 is_stmt 0 discriminator 1 view .LVU245
 743 028e 42F0C002 		orr	r2, r2, #192
 744 0292 23F82420 		strh	r2, [r3, r4, lsl #2]	@ movhi
 745              	.L28:
 262:Drivers/STM32G4xx_HAL_Driver/Src/stm32g4xx_ll_usb.c **** 
 746              		.loc 1 262 7 discriminator 1 view .LVU246
 747              	.LBE22:
 262:Drivers/STM32G4xx_HAL_Driver/Src/stm32g4xx_ll_usb.c **** 
 748              		.loc 1 262 7 is_stmt 1 discriminator 3 view .LVU247
 749              	.LBE21:
 262:Drivers/STM32G4xx_HAL_Driver/Src/stm32g4xx_ll_usb.c **** 
 750              		.loc 1 262 7 discriminator 3 view .LVU248
 264:Drivers/STM32G4xx_HAL_Driver/Src/stm32g4xx_ll_usb.c ****       PCD_SET_EP_TX_STATUS(USBx, ep->num, USB_EP_TX_DIS);
 751              		.loc 1 264 7 discriminator 3 view .LVU249
 752              	.LBB23:
 264:Drivers/STM32G4xx_HAL_Driver/Src/stm32g4xx_ll_usb.c ****       PCD_SET_EP_TX_STATUS(USBx, ep->num, USB_EP_TX_DIS);
 753              		.loc 1 264 7 discriminator 3 view .LVU250
 264:Drivers/STM32G4xx_HAL_Driver/Src/stm32g4xx_ll_usb.c ****       PCD_SET_EP_TX_STATUS(USBx, ep->num, USB_EP_TX_DIS);
 754              		.loc 1 264 7 discriminator 3 view .LVU251
 755 0296 91F800C0 		ldrb	ip, [r1]	@ zero_extendqisi2
 756 029a 33F82C20 		ldrh	r2, [r3, ip, lsl #2]
 757 029e 92B2     		uxth	r2, r2
 758 02a0 22F48042 		bic	r2, r2, #16384
 759 02a4 22F07002 		bic	r2, r2, #112
 760              	.LVL78:
 264:Drivers/STM32G4xx_HAL_Driver/Src/stm32g4xx_ll_usb.c ****       PCD_SET_EP_TX_STATUS(USBx, ep->num, USB_EP_TX_DIS);
 761              		.loc 1 264 7 discriminator 3 view .LVU252
 264:Drivers/STM32G4xx_HAL_Driver/Src/stm32g4xx_ll_usb.c ****       PCD_SET_EP_TX_STATUS(USBx, ep->num, USB_EP_TX_DIS);
 762              		.loc 1 264 7 discriminator 3 view .LVU253
 264:Drivers/STM32G4xx_HAL_Driver/Src/stm32g4xx_ll_usb.c ****       PCD_SET_EP_TX_STATUS(USBx, ep->num, USB_EP_TX_DIS);
 763              		.loc 1 264 7 discriminator 3 view .LVU254
 264:Drivers/STM32G4xx_HAL_Driver/Src/stm32g4xx_ll_usb.c ****       PCD_SET_EP_TX_STATUS(USBx, ep->num, USB_EP_TX_DIS);
 764              		.loc 1 264 7 discriminator 3 view .LVU255
 765 02a8 82F44052 		eor	r2, r2, #12288
 766              	.LVL79:
 264:Drivers/STM32G4xx_HAL_Driver/Src/stm32g4xx_ll_usb.c ****       PCD_SET_EP_TX_STATUS(USBx, ep->num, USB_EP_TX_DIS);
 767              		.loc 1 264 7 discriminator 3 view .LVU256
 768 02ac 48F28004 		movw	r4, #32896
 769 02b0 2243     		orrs	r2, r2, r4
ARM GAS  C:\Users\Jack2bs\AppData\Local\Temp\ccBBPckb.s 			page 21


 770              	.LVL80:
 264:Drivers/STM32G4xx_HAL_Driver/Src/stm32g4xx_ll_usb.c ****       PCD_SET_EP_TX_STATUS(USBx, ep->num, USB_EP_TX_DIS);
 771              		.loc 1 264 7 is_stmt 0 discriminator 3 view .LVU257
 772 02b2 23F82C20 		strh	r2, [r3, ip, lsl #2]	@ movhi
 773              	.LBE23:
 264:Drivers/STM32G4xx_HAL_Driver/Src/stm32g4xx_ll_usb.c ****       PCD_SET_EP_TX_STATUS(USBx, ep->num, USB_EP_TX_DIS);
 774              		.loc 1 264 7 is_stmt 1 discriminator 3 view .LVU258
 265:Drivers/STM32G4xx_HAL_Driver/Src/stm32g4xx_ll_usb.c ****     }
 775              		.loc 1 265 7 discriminator 3 view .LVU259
 776              	.LBB24:
 265:Drivers/STM32G4xx_HAL_Driver/Src/stm32g4xx_ll_usb.c ****     }
 777              		.loc 1 265 7 discriminator 3 view .LVU260
 265:Drivers/STM32G4xx_HAL_Driver/Src/stm32g4xx_ll_usb.c ****     }
 778              		.loc 1 265 7 discriminator 3 view .LVU261
 779 02b6 0978     		ldrb	r1, [r1]	@ zero_extendqisi2
 780              	.LVL81:
 265:Drivers/STM32G4xx_HAL_Driver/Src/stm32g4xx_ll_usb.c ****     }
 781              		.loc 1 265 7 is_stmt 0 discriminator 3 view .LVU262
 782 02b8 33F82120 		ldrh	r2, [r3, r1, lsl #2]
 783 02bc 92B2     		uxth	r2, r2
 784 02be 22F4E042 		bic	r2, r2, #28672
 785 02c2 22F04002 		bic	r2, r2, #64
 786              	.LVL82:
 265:Drivers/STM32G4xx_HAL_Driver/Src/stm32g4xx_ll_usb.c ****     }
 787              		.loc 1 265 7 is_stmt 1 discriminator 3 view .LVU263
 265:Drivers/STM32G4xx_HAL_Driver/Src/stm32g4xx_ll_usb.c ****     }
 788              		.loc 1 265 7 discriminator 3 view .LVU264
 265:Drivers/STM32G4xx_HAL_Driver/Src/stm32g4xx_ll_usb.c ****     }
 789              		.loc 1 265 7 discriminator 3 view .LVU265
 790 02c6 2243     		orrs	r2, r2, r4
 791              	.LVL83:
 265:Drivers/STM32G4xx_HAL_Driver/Src/stm32g4xx_ll_usb.c ****     }
 792              		.loc 1 265 7 is_stmt 0 discriminator 3 view .LVU266
 793 02c8 23F82120 		strh	r2, [r3, r1, lsl #2]	@ movhi
 794              	.LBE24:
 265:Drivers/STM32G4xx_HAL_Driver/Src/stm32g4xx_ll_usb.c ****     }
 795              		.loc 1 265 7 is_stmt 1 discriminator 3 view .LVU267
 796 02cc 6BE7     		b	.L19
 797              	.LVL84:
 798              	.L26:
 270:Drivers/STM32G4xx_HAL_Driver/Src/stm32g4xx_ll_usb.c ****       PCD_CLEAR_TX_DTOG(USBx, ep->num);
 799              		.loc 1 270 7 view .LVU268
 800              	.LBB25:
 270:Drivers/STM32G4xx_HAL_Driver/Src/stm32g4xx_ll_usb.c ****       PCD_CLEAR_TX_DTOG(USBx, ep->num);
 801              		.loc 1 270 7 view .LVU269
 270:Drivers/STM32G4xx_HAL_Driver/Src/stm32g4xx_ll_usb.c ****       PCD_CLEAR_TX_DTOG(USBx, ep->num);
 802              		.loc 1 270 7 view .LVU270
 803 02ce 0C78     		ldrb	r4, [r1]	@ zero_extendqisi2
 804 02d0 33F82420 		ldrh	r2, [r3, r4, lsl #2]
 805              	.LVL85:
 270:Drivers/STM32G4xx_HAL_Driver/Src/stm32g4xx_ll_usb.c ****       PCD_CLEAR_TX_DTOG(USBx, ep->num);
 806              		.loc 1 270 7 view .LVU271
 807 02d4 12F4804F 		tst	r2, #16384
 808 02d8 0CD0     		beq	.L29
 270:Drivers/STM32G4xx_HAL_Driver/Src/stm32g4xx_ll_usb.c ****       PCD_CLEAR_TX_DTOG(USBx, ep->num);
 809              		.loc 1 270 7 discriminator 1 view .LVU272
 810              	.LBB26:
ARM GAS  C:\Users\Jack2bs\AppData\Local\Temp\ccBBPckb.s 			page 22


 270:Drivers/STM32G4xx_HAL_Driver/Src/stm32g4xx_ll_usb.c ****       PCD_CLEAR_TX_DTOG(USBx, ep->num);
 811              		.loc 1 270 7 discriminator 1 view .LVU273
 270:Drivers/STM32G4xx_HAL_Driver/Src/stm32g4xx_ll_usb.c ****       PCD_CLEAR_TX_DTOG(USBx, ep->num);
 812              		.loc 1 270 7 discriminator 1 view .LVU274
 813 02da 33F82420 		ldrh	r2, [r3, r4, lsl #2]
 814              	.LVL86:
 270:Drivers/STM32G4xx_HAL_Driver/Src/stm32g4xx_ll_usb.c ****       PCD_CLEAR_TX_DTOG(USBx, ep->num);
 815              		.loc 1 270 7 is_stmt 0 discriminator 1 view .LVU275
 816 02de 92B2     		uxth	r2, r2
 817 02e0 22F4E042 		bic	r2, r2, #28672
 818 02e4 22F07002 		bic	r2, r2, #112
 819              	.LVL87:
 270:Drivers/STM32G4xx_HAL_Driver/Src/stm32g4xx_ll_usb.c ****       PCD_CLEAR_TX_DTOG(USBx, ep->num);
 820              		.loc 1 270 7 is_stmt 1 discriminator 1 view .LVU276
 821 02e8 42F44042 		orr	r2, r2, #49152
 822              	.LVL88:
 270:Drivers/STM32G4xx_HAL_Driver/Src/stm32g4xx_ll_usb.c ****       PCD_CLEAR_TX_DTOG(USBx, ep->num);
 823              		.loc 1 270 7 is_stmt 0 discriminator 1 view .LVU277
 824 02ec 42F08002 		orr	r2, r2, #128
 825 02f0 23F82420 		strh	r2, [r3, r4, lsl #2]	@ movhi
 826              	.L29:
 270:Drivers/STM32G4xx_HAL_Driver/Src/stm32g4xx_ll_usb.c ****       PCD_CLEAR_TX_DTOG(USBx, ep->num);
 827              		.loc 1 270 7 discriminator 1 view .LVU278
 828              	.LBE26:
 270:Drivers/STM32G4xx_HAL_Driver/Src/stm32g4xx_ll_usb.c ****       PCD_CLEAR_TX_DTOG(USBx, ep->num);
 829              		.loc 1 270 7 is_stmt 1 discriminator 3 view .LVU279
 830              	.LBE25:
 270:Drivers/STM32G4xx_HAL_Driver/Src/stm32g4xx_ll_usb.c ****       PCD_CLEAR_TX_DTOG(USBx, ep->num);
 831              		.loc 1 270 7 discriminator 3 view .LVU280
 271:Drivers/STM32G4xx_HAL_Driver/Src/stm32g4xx_ll_usb.c **** 
 832              		.loc 1 271 7 discriminator 3 view .LVU281
 833              	.LBB27:
 271:Drivers/STM32G4xx_HAL_Driver/Src/stm32g4xx_ll_usb.c **** 
 834              		.loc 1 271 7 discriminator 3 view .LVU282
 271:Drivers/STM32G4xx_HAL_Driver/Src/stm32g4xx_ll_usb.c **** 
 835              		.loc 1 271 7 discriminator 3 view .LVU283
 836 02f4 0C78     		ldrb	r4, [r1]	@ zero_extendqisi2
 837 02f6 33F82420 		ldrh	r2, [r3, r4, lsl #2]
 838              	.LVL89:
 271:Drivers/STM32G4xx_HAL_Driver/Src/stm32g4xx_ll_usb.c **** 
 839              		.loc 1 271 7 discriminator 3 view .LVU284
 840 02fa 12F0400F 		tst	r2, #64
 841 02fe 0CD0     		beq	.L30
 271:Drivers/STM32G4xx_HAL_Driver/Src/stm32g4xx_ll_usb.c **** 
 842              		.loc 1 271 7 discriminator 1 view .LVU285
 843              	.LBB28:
 271:Drivers/STM32G4xx_HAL_Driver/Src/stm32g4xx_ll_usb.c **** 
 844              		.loc 1 271 7 discriminator 1 view .LVU286
 271:Drivers/STM32G4xx_HAL_Driver/Src/stm32g4xx_ll_usb.c **** 
 845              		.loc 1 271 7 discriminator 1 view .LVU287
 846 0300 33F82420 		ldrh	r2, [r3, r4, lsl #2]
 847              	.LVL90:
 271:Drivers/STM32G4xx_HAL_Driver/Src/stm32g4xx_ll_usb.c **** 
 848              		.loc 1 271 7 is_stmt 0 discriminator 1 view .LVU288
 849 0304 92B2     		uxth	r2, r2
 850 0306 22F4E042 		bic	r2, r2, #28672
 851 030a 22F07002 		bic	r2, r2, #112
ARM GAS  C:\Users\Jack2bs\AppData\Local\Temp\ccBBPckb.s 			page 23


 852              	.LVL91:
 271:Drivers/STM32G4xx_HAL_Driver/Src/stm32g4xx_ll_usb.c **** 
 853              		.loc 1 271 7 is_stmt 1 discriminator 1 view .LVU289
 854 030e 42F40042 		orr	r2, r2, #32768
 855              	.LVL92:
 271:Drivers/STM32G4xx_HAL_Driver/Src/stm32g4xx_ll_usb.c **** 
 856              		.loc 1 271 7 is_stmt 0 discriminator 1 view .LVU290
 857 0312 42F0C002 		orr	r2, r2, #192
 858 0316 23F82420 		strh	r2, [r3, r4, lsl #2]	@ movhi
 859              	.L30:
 271:Drivers/STM32G4xx_HAL_Driver/Src/stm32g4xx_ll_usb.c **** 
 860              		.loc 1 271 7 discriminator 1 view .LVU291
 861              	.LBE28:
 271:Drivers/STM32G4xx_HAL_Driver/Src/stm32g4xx_ll_usb.c **** 
 862              		.loc 1 271 7 is_stmt 1 discriminator 3 view .LVU292
 863              	.LBE27:
 271:Drivers/STM32G4xx_HAL_Driver/Src/stm32g4xx_ll_usb.c **** 
 864              		.loc 1 271 7 discriminator 3 view .LVU293
 273:Drivers/STM32G4xx_HAL_Driver/Src/stm32g4xx_ll_usb.c ****       {
 865              		.loc 1 273 7 discriminator 3 view .LVU294
 273:Drivers/STM32G4xx_HAL_Driver/Src/stm32g4xx_ll_usb.c ****       {
 866              		.loc 1 273 13 is_stmt 0 discriminator 3 view .LVU295
 867 031a CA78     		ldrb	r2, [r1, #3]	@ zero_extendqisi2
 273:Drivers/STM32G4xx_HAL_Driver/Src/stm32g4xx_ll_usb.c ****       {
 868              		.loc 1 273 10 discriminator 3 view .LVU296
 869 031c 012A     		cmp	r2, #1
 870 031e 1ED0     		beq	.L31
 276:Drivers/STM32G4xx_HAL_Driver/Src/stm32g4xx_ll_usb.c ****       }
 871              		.loc 1 276 9 is_stmt 1 view .LVU297
 872              	.LBB29:
 276:Drivers/STM32G4xx_HAL_Driver/Src/stm32g4xx_ll_usb.c ****       }
 873              		.loc 1 276 9 view .LVU298
 276:Drivers/STM32G4xx_HAL_Driver/Src/stm32g4xx_ll_usb.c ****       }
 874              		.loc 1 276 9 view .LVU299
 875 0320 0C78     		ldrb	r4, [r1]	@ zero_extendqisi2
 876 0322 33F82420 		ldrh	r2, [r3, r4, lsl #2]
 877 0326 92B2     		uxth	r2, r2
 878 0328 22F4E042 		bic	r2, r2, #28672
 879 032c 22F04002 		bic	r2, r2, #64
 880              	.LVL93:
 276:Drivers/STM32G4xx_HAL_Driver/Src/stm32g4xx_ll_usb.c ****       }
 881              		.loc 1 276 9 view .LVU300
 276:Drivers/STM32G4xx_HAL_Driver/Src/stm32g4xx_ll_usb.c ****       }
 882              		.loc 1 276 9 view .LVU301
 276:Drivers/STM32G4xx_HAL_Driver/Src/stm32g4xx_ll_usb.c ****       }
 883              		.loc 1 276 9 view .LVU302
 884 0330 82F02002 		eor	r2, r2, #32
 885              	.LVL94:
 276:Drivers/STM32G4xx_HAL_Driver/Src/stm32g4xx_ll_usb.c ****       }
 886              		.loc 1 276 9 view .LVU303
 887 0334 42F40042 		orr	r2, r2, #32768
 888              	.LVL95:
 276:Drivers/STM32G4xx_HAL_Driver/Src/stm32g4xx_ll_usb.c ****       }
 889              		.loc 1 276 9 is_stmt 0 view .LVU304
 890 0338 42F08002 		orr	r2, r2, #128
 891 033c 23F82420 		strh	r2, [r3, r4, lsl #2]	@ movhi
 892              	.LBE29:
ARM GAS  C:\Users\Jack2bs\AppData\Local\Temp\ccBBPckb.s 			page 24


 276:Drivers/STM32G4xx_HAL_Driver/Src/stm32g4xx_ll_usb.c ****       }
 893              		.loc 1 276 9 is_stmt 1 view .LVU305
 894              	.L32:
 281:Drivers/STM32G4xx_HAL_Driver/Src/stm32g4xx_ll_usb.c ****       }
 895              		.loc 1 281 9 discriminator 7 view .LVU306
 284:Drivers/STM32G4xx_HAL_Driver/Src/stm32g4xx_ll_usb.c ****     }
 896              		.loc 1 284 7 discriminator 7 view .LVU307
 897              	.LBB30:
 284:Drivers/STM32G4xx_HAL_Driver/Src/stm32g4xx_ll_usb.c ****     }
 898              		.loc 1 284 7 discriminator 7 view .LVU308
 284:Drivers/STM32G4xx_HAL_Driver/Src/stm32g4xx_ll_usb.c ****     }
 899              		.loc 1 284 7 discriminator 7 view .LVU309
 900 0340 0978     		ldrb	r1, [r1]	@ zero_extendqisi2
 901              	.LVL96:
 284:Drivers/STM32G4xx_HAL_Driver/Src/stm32g4xx_ll_usb.c ****     }
 902              		.loc 1 284 7 is_stmt 0 discriminator 7 view .LVU310
 903 0342 33F82120 		ldrh	r2, [r3, r1, lsl #2]
 904 0346 92B2     		uxth	r2, r2
 905 0348 22F48042 		bic	r2, r2, #16384
 906 034c 22F07002 		bic	r2, r2, #112
 907              	.LVL97:
 284:Drivers/STM32G4xx_HAL_Driver/Src/stm32g4xx_ll_usb.c ****     }
 908              		.loc 1 284 7 is_stmt 1 discriminator 7 view .LVU311
 284:Drivers/STM32G4xx_HAL_Driver/Src/stm32g4xx_ll_usb.c ****     }
 909              		.loc 1 284 7 discriminator 7 view .LVU312
 284:Drivers/STM32G4xx_HAL_Driver/Src/stm32g4xx_ll_usb.c ****     }
 910              		.loc 1 284 7 discriminator 7 view .LVU313
 911 0350 42F40042 		orr	r2, r2, #32768
 912              	.LVL98:
 284:Drivers/STM32G4xx_HAL_Driver/Src/stm32g4xx_ll_usb.c ****     }
 913              		.loc 1 284 7 is_stmt 0 discriminator 7 view .LVU314
 914 0354 42F08002 		orr	r2, r2, #128
 915 0358 23F82120 		strh	r2, [r3, r1, lsl #2]	@ movhi
 916 035c 23E7     		b	.L19
 917              	.LVL99:
 918              	.L31:
 284:Drivers/STM32G4xx_HAL_Driver/Src/stm32g4xx_ll_usb.c ****     }
 919              		.loc 1 284 7 discriminator 7 view .LVU315
 920              	.LBE30:
 281:Drivers/STM32G4xx_HAL_Driver/Src/stm32g4xx_ll_usb.c ****       }
 921              		.loc 1 281 9 is_stmt 1 view .LVU316
 922              	.LBB31:
 281:Drivers/STM32G4xx_HAL_Driver/Src/stm32g4xx_ll_usb.c ****       }
 923              		.loc 1 281 9 view .LVU317
 281:Drivers/STM32G4xx_HAL_Driver/Src/stm32g4xx_ll_usb.c ****       }
 924              		.loc 1 281 9 view .LVU318
 925 035e 0C78     		ldrb	r4, [r1]	@ zero_extendqisi2
 926 0360 33F82420 		ldrh	r2, [r3, r4, lsl #2]
 927 0364 92B2     		uxth	r2, r2
 928 0366 22F4E042 		bic	r2, r2, #28672
 929 036a 22F04002 		bic	r2, r2, #64
 930              	.LVL100:
 281:Drivers/STM32G4xx_HAL_Driver/Src/stm32g4xx_ll_usb.c ****       }
 931              		.loc 1 281 9 view .LVU319
 281:Drivers/STM32G4xx_HAL_Driver/Src/stm32g4xx_ll_usb.c ****       }
 932              		.loc 1 281 9 view .LVU320
 281:Drivers/STM32G4xx_HAL_Driver/Src/stm32g4xx_ll_usb.c ****       }
ARM GAS  C:\Users\Jack2bs\AppData\Local\Temp\ccBBPckb.s 			page 25


 933              		.loc 1 281 9 view .LVU321
 934 036e 42F40042 		orr	r2, r2, #32768
 935              	.LVL101:
 281:Drivers/STM32G4xx_HAL_Driver/Src/stm32g4xx_ll_usb.c ****       }
 936              		.loc 1 281 9 is_stmt 0 view .LVU322
 937 0372 42F08002 		orr	r2, r2, #128
 938 0376 23F82420 		strh	r2, [r3, r4, lsl #2]	@ movhi
 939 037a E1E7     		b	.L32
 940              	.LBE31:
 941              		.cfi_endproc
 942              	.LFE137:
 944              		.section	.text.USB_DeactivateEndpoint,"ax",%progbits
 945              		.align	1
 946              		.global	USB_DeactivateEndpoint
 947              		.syntax unified
 948              		.thumb
 949              		.thumb_func
 950              		.fpu fpv4-sp-d16
 952              	USB_DeactivateEndpoint:
 953              	.LVL102:
 954              	.LFB138:
 290:Drivers/STM32G4xx_HAL_Driver/Src/stm32g4xx_ll_usb.c **** 
 291:Drivers/STM32G4xx_HAL_Driver/Src/stm32g4xx_ll_usb.c **** /**
 292:Drivers/STM32G4xx_HAL_Driver/Src/stm32g4xx_ll_usb.c ****   * @brief  De-activate and de-initialize an endpoint
 293:Drivers/STM32G4xx_HAL_Driver/Src/stm32g4xx_ll_usb.c ****   * @param  USBx Selected device
 294:Drivers/STM32G4xx_HAL_Driver/Src/stm32g4xx_ll_usb.c ****   * @param  ep pointer to endpoint structure
 295:Drivers/STM32G4xx_HAL_Driver/Src/stm32g4xx_ll_usb.c ****   * @retval HAL status
 296:Drivers/STM32G4xx_HAL_Driver/Src/stm32g4xx_ll_usb.c ****   */
 297:Drivers/STM32G4xx_HAL_Driver/Src/stm32g4xx_ll_usb.c **** HAL_StatusTypeDef USB_DeactivateEndpoint(USB_TypeDef *USBx, USB_EPTypeDef *ep)
 298:Drivers/STM32G4xx_HAL_Driver/Src/stm32g4xx_ll_usb.c **** {
 955              		.loc 1 298 1 is_stmt 1 view -0
 956              		.cfi_startproc
 957              		@ args = 0, pretend = 0, frame = 0
 958              		@ frame_needed = 0, uses_anonymous_args = 0
 959              		@ link register save eliminated.
 299:Drivers/STM32G4xx_HAL_Driver/Src/stm32g4xx_ll_usb.c ****   if (ep->doublebuffer == 0U)
 960              		.loc 1 299 3 view .LVU324
 961              		.loc 1 299 9 is_stmt 0 view .LVU325
 962 0000 0B7B     		ldrb	r3, [r1, #12]	@ zero_extendqisi2
 963              		.loc 1 299 6 view .LVU326
 964 0002 002B     		cmp	r3, #0
 965 0004 46D1     		bne	.L36
 300:Drivers/STM32G4xx_HAL_Driver/Src/stm32g4xx_ll_usb.c ****   {
 301:Drivers/STM32G4xx_HAL_Driver/Src/stm32g4xx_ll_usb.c ****     if (ep->is_in != 0U)
 966              		.loc 1 301 5 is_stmt 1 view .LVU327
 967              		.loc 1 301 11 is_stmt 0 view .LVU328
 968 0006 4B78     		ldrb	r3, [r1, #1]	@ zero_extendqisi2
 969              		.loc 1 301 8 view .LVU329
 970 0008 13B3     		cbz	r3, .L37
 302:Drivers/STM32G4xx_HAL_Driver/Src/stm32g4xx_ll_usb.c ****     {
 303:Drivers/STM32G4xx_HAL_Driver/Src/stm32g4xx_ll_usb.c ****       PCD_CLEAR_TX_DTOG(USBx, ep->num);
 971              		.loc 1 303 7 is_stmt 1 view .LVU330
 972              	.LBB32:
 973              		.loc 1 303 7 view .LVU331
 974              		.loc 1 303 7 view .LVU332
 975 000a 0A78     		ldrb	r2, [r1]	@ zero_extendqisi2
 976 000c 30F82230 		ldrh	r3, [r0, r2, lsl #2]
ARM GAS  C:\Users\Jack2bs\AppData\Local\Temp\ccBBPckb.s 			page 26


 977              	.LVL103:
 978              		.loc 1 303 7 view .LVU333
 979 0010 13F0400F 		tst	r3, #64
 980 0014 0CD0     		beq	.L38
 981              		.loc 1 303 7 discriminator 1 view .LVU334
 982              	.LBB33:
 983              		.loc 1 303 7 discriminator 1 view .LVU335
 984              		.loc 1 303 7 discriminator 1 view .LVU336
 985 0016 30F82230 		ldrh	r3, [r0, r2, lsl #2]
 986              	.LVL104:
 987              		.loc 1 303 7 is_stmt 0 discriminator 1 view .LVU337
 988 001a 9BB2     		uxth	r3, r3
 989 001c 23F4E043 		bic	r3, r3, #28672
 990 0020 23F07003 		bic	r3, r3, #112
 991              	.LVL105:
 992              		.loc 1 303 7 is_stmt 1 discriminator 1 view .LVU338
 993 0024 43F40043 		orr	r3, r3, #32768
 994              	.LVL106:
 995              		.loc 1 303 7 is_stmt 0 discriminator 1 view .LVU339
 996 0028 43F0C003 		orr	r3, r3, #192
 997 002c 20F82230 		strh	r3, [r0, r2, lsl #2]	@ movhi
 998              	.L38:
 999              		.loc 1 303 7 discriminator 1 view .LVU340
 1000              	.LBE33:
 1001              		.loc 1 303 7 is_stmt 1 discriminator 3 view .LVU341
 1002              	.LBE32:
 1003              		.loc 1 303 7 discriminator 3 view .LVU342
 304:Drivers/STM32G4xx_HAL_Driver/Src/stm32g4xx_ll_usb.c **** 
 305:Drivers/STM32G4xx_HAL_Driver/Src/stm32g4xx_ll_usb.c ****       /* Configure DISABLE status for the Endpoint*/
 306:Drivers/STM32G4xx_HAL_Driver/Src/stm32g4xx_ll_usb.c ****       PCD_SET_EP_TX_STATUS(USBx, ep->num, USB_EP_TX_DIS);
 1004              		.loc 1 306 7 discriminator 3 view .LVU343
 1005              	.LBB34:
 1006              		.loc 1 306 7 discriminator 3 view .LVU344
 1007              		.loc 1 306 7 discriminator 3 view .LVU345
 1008 0030 0A78     		ldrb	r2, [r1]	@ zero_extendqisi2
 1009 0032 30F82230 		ldrh	r3, [r0, r2, lsl #2]
 1010 0036 9BB2     		uxth	r3, r3
 1011 0038 23F4E043 		bic	r3, r3, #28672
 1012 003c 23F04003 		bic	r3, r3, #64
 1013              	.LVL107:
 1014              		.loc 1 306 7 discriminator 3 view .LVU346
 1015              		.loc 1 306 7 discriminator 3 view .LVU347
 1016              		.loc 1 306 7 discriminator 3 view .LVU348
 1017 0040 43F40043 		orr	r3, r3, #32768
 1018              	.LVL108:
 1019              		.loc 1 306 7 is_stmt 0 discriminator 3 view .LVU349
 1020 0044 43F08003 		orr	r3, r3, #128
 1021 0048 20F82230 		strh	r3, [r0, r2, lsl #2]	@ movhi
 1022              	.LBE34:
 1023              		.loc 1 306 7 is_stmt 1 discriminator 3 view .LVU350
 1024              	.L39:
 307:Drivers/STM32G4xx_HAL_Driver/Src/stm32g4xx_ll_usb.c ****     }
 308:Drivers/STM32G4xx_HAL_Driver/Src/stm32g4xx_ll_usb.c ****     else
 309:Drivers/STM32G4xx_HAL_Driver/Src/stm32g4xx_ll_usb.c ****     {
 310:Drivers/STM32G4xx_HAL_Driver/Src/stm32g4xx_ll_usb.c ****       PCD_CLEAR_RX_DTOG(USBx, ep->num);
 311:Drivers/STM32G4xx_HAL_Driver/Src/stm32g4xx_ll_usb.c **** 
 312:Drivers/STM32G4xx_HAL_Driver/Src/stm32g4xx_ll_usb.c ****       /* Configure DISABLE status for the Endpoint*/
ARM GAS  C:\Users\Jack2bs\AppData\Local\Temp\ccBBPckb.s 			page 27


 313:Drivers/STM32G4xx_HAL_Driver/Src/stm32g4xx_ll_usb.c ****       PCD_SET_EP_RX_STATUS(USBx, ep->num, USB_EP_RX_DIS);
 314:Drivers/STM32G4xx_HAL_Driver/Src/stm32g4xx_ll_usb.c ****     }
 315:Drivers/STM32G4xx_HAL_Driver/Src/stm32g4xx_ll_usb.c ****   }
 316:Drivers/STM32G4xx_HAL_Driver/Src/stm32g4xx_ll_usb.c ****   /*Double Buffer*/
 317:Drivers/STM32G4xx_HAL_Driver/Src/stm32g4xx_ll_usb.c ****   else
 318:Drivers/STM32G4xx_HAL_Driver/Src/stm32g4xx_ll_usb.c ****   {
 319:Drivers/STM32G4xx_HAL_Driver/Src/stm32g4xx_ll_usb.c ****     if (ep->is_in == 0U)
 320:Drivers/STM32G4xx_HAL_Driver/Src/stm32g4xx_ll_usb.c ****     {
 321:Drivers/STM32G4xx_HAL_Driver/Src/stm32g4xx_ll_usb.c ****       /* Clear the data toggle bits for the endpoint IN/OUT*/
 322:Drivers/STM32G4xx_HAL_Driver/Src/stm32g4xx_ll_usb.c ****       PCD_CLEAR_RX_DTOG(USBx, ep->num);
 323:Drivers/STM32G4xx_HAL_Driver/Src/stm32g4xx_ll_usb.c ****       PCD_CLEAR_TX_DTOG(USBx, ep->num);
 324:Drivers/STM32G4xx_HAL_Driver/Src/stm32g4xx_ll_usb.c **** 
 325:Drivers/STM32G4xx_HAL_Driver/Src/stm32g4xx_ll_usb.c ****       /* Reset value of the data toggle bits for the endpoint out*/
 326:Drivers/STM32G4xx_HAL_Driver/Src/stm32g4xx_ll_usb.c ****       PCD_TX_DTOG(USBx, ep->num);
 327:Drivers/STM32G4xx_HAL_Driver/Src/stm32g4xx_ll_usb.c **** 
 328:Drivers/STM32G4xx_HAL_Driver/Src/stm32g4xx_ll_usb.c ****       PCD_SET_EP_RX_STATUS(USBx, ep->num, USB_EP_RX_DIS);
 329:Drivers/STM32G4xx_HAL_Driver/Src/stm32g4xx_ll_usb.c ****       PCD_SET_EP_TX_STATUS(USBx, ep->num, USB_EP_TX_DIS);
 330:Drivers/STM32G4xx_HAL_Driver/Src/stm32g4xx_ll_usb.c ****     }
 331:Drivers/STM32G4xx_HAL_Driver/Src/stm32g4xx_ll_usb.c ****     else
 332:Drivers/STM32G4xx_HAL_Driver/Src/stm32g4xx_ll_usb.c ****     {
 333:Drivers/STM32G4xx_HAL_Driver/Src/stm32g4xx_ll_usb.c ****       /* Clear the data toggle bits for the endpoint IN/OUT*/
 334:Drivers/STM32G4xx_HAL_Driver/Src/stm32g4xx_ll_usb.c ****       PCD_CLEAR_RX_DTOG(USBx, ep->num);
 335:Drivers/STM32G4xx_HAL_Driver/Src/stm32g4xx_ll_usb.c ****       PCD_CLEAR_TX_DTOG(USBx, ep->num);
 336:Drivers/STM32G4xx_HAL_Driver/Src/stm32g4xx_ll_usb.c ****       PCD_RX_DTOG(USBx, ep->num);
 337:Drivers/STM32G4xx_HAL_Driver/Src/stm32g4xx_ll_usb.c **** 
 338:Drivers/STM32G4xx_HAL_Driver/Src/stm32g4xx_ll_usb.c ****       /* Configure DISABLE status for the Endpoint*/
 339:Drivers/STM32G4xx_HAL_Driver/Src/stm32g4xx_ll_usb.c ****       PCD_SET_EP_TX_STATUS(USBx, ep->num, USB_EP_TX_DIS);
 340:Drivers/STM32G4xx_HAL_Driver/Src/stm32g4xx_ll_usb.c ****       PCD_SET_EP_RX_STATUS(USBx, ep->num, USB_EP_RX_DIS);
 1025              		.loc 1 340 7 discriminator 7 view .LVU351
 341:Drivers/STM32G4xx_HAL_Driver/Src/stm32g4xx_ll_usb.c ****     }
 342:Drivers/STM32G4xx_HAL_Driver/Src/stm32g4xx_ll_usb.c ****   }
 343:Drivers/STM32G4xx_HAL_Driver/Src/stm32g4xx_ll_usb.c **** 
 344:Drivers/STM32G4xx_HAL_Driver/Src/stm32g4xx_ll_usb.c ****   return HAL_OK;
 1026              		.loc 1 344 3 discriminator 7 view .LVU352
 345:Drivers/STM32G4xx_HAL_Driver/Src/stm32g4xx_ll_usb.c **** }
 1027              		.loc 1 345 1 is_stmt 0 discriminator 7 view .LVU353
 1028 004c 0020     		movs	r0, #0
 1029              	.LVL109:
 1030              		.loc 1 345 1 discriminator 7 view .LVU354
 1031 004e 7047     		bx	lr
 1032              	.LVL110:
 1033              	.L37:
 310:Drivers/STM32G4xx_HAL_Driver/Src/stm32g4xx_ll_usb.c **** 
 1034              		.loc 1 310 7 is_stmt 1 view .LVU355
 1035              	.LBB35:
 310:Drivers/STM32G4xx_HAL_Driver/Src/stm32g4xx_ll_usb.c **** 
 1036              		.loc 1 310 7 view .LVU356
 310:Drivers/STM32G4xx_HAL_Driver/Src/stm32g4xx_ll_usb.c **** 
 1037              		.loc 1 310 7 view .LVU357
 1038 0050 0A78     		ldrb	r2, [r1]	@ zero_extendqisi2
 1039 0052 30F82230 		ldrh	r3, [r0, r2, lsl #2]
 1040              	.LVL111:
 310:Drivers/STM32G4xx_HAL_Driver/Src/stm32g4xx_ll_usb.c **** 
 1041              		.loc 1 310 7 view .LVU358
 1042 0056 13F4804F 		tst	r3, #16384
 1043 005a 0CD0     		beq	.L40
 310:Drivers/STM32G4xx_HAL_Driver/Src/stm32g4xx_ll_usb.c **** 
ARM GAS  C:\Users\Jack2bs\AppData\Local\Temp\ccBBPckb.s 			page 28


 1044              		.loc 1 310 7 discriminator 1 view .LVU359
 1045              	.LBB36:
 310:Drivers/STM32G4xx_HAL_Driver/Src/stm32g4xx_ll_usb.c **** 
 1046              		.loc 1 310 7 discriminator 1 view .LVU360
 310:Drivers/STM32G4xx_HAL_Driver/Src/stm32g4xx_ll_usb.c **** 
 1047              		.loc 1 310 7 discriminator 1 view .LVU361
 1048 005c 30F82230 		ldrh	r3, [r0, r2, lsl #2]
 1049              	.LVL112:
 310:Drivers/STM32G4xx_HAL_Driver/Src/stm32g4xx_ll_usb.c **** 
 1050              		.loc 1 310 7 is_stmt 0 discriminator 1 view .LVU362
 1051 0060 9BB2     		uxth	r3, r3
 1052 0062 23F4E043 		bic	r3, r3, #28672
 1053 0066 23F07003 		bic	r3, r3, #112
 1054              	.LVL113:
 310:Drivers/STM32G4xx_HAL_Driver/Src/stm32g4xx_ll_usb.c **** 
 1055              		.loc 1 310 7 is_stmt 1 discriminator 1 view .LVU363
 1056 006a 43F44043 		orr	r3, r3, #49152
 1057              	.LVL114:
 310:Drivers/STM32G4xx_HAL_Driver/Src/stm32g4xx_ll_usb.c **** 
 1058              		.loc 1 310 7 is_stmt 0 discriminator 1 view .LVU364
 1059 006e 43F08003 		orr	r3, r3, #128
 1060 0072 20F82230 		strh	r3, [r0, r2, lsl #2]	@ movhi
 1061              	.L40:
 310:Drivers/STM32G4xx_HAL_Driver/Src/stm32g4xx_ll_usb.c **** 
 1062              		.loc 1 310 7 discriminator 1 view .LVU365
 1063              	.LBE36:
 310:Drivers/STM32G4xx_HAL_Driver/Src/stm32g4xx_ll_usb.c **** 
 1064              		.loc 1 310 7 is_stmt 1 discriminator 3 view .LVU366
 1065              	.LBE35:
 310:Drivers/STM32G4xx_HAL_Driver/Src/stm32g4xx_ll_usb.c **** 
 1066              		.loc 1 310 7 discriminator 3 view .LVU367
 313:Drivers/STM32G4xx_HAL_Driver/Src/stm32g4xx_ll_usb.c ****     }
 1067              		.loc 1 313 7 discriminator 3 view .LVU368
 1068              	.LBB37:
 313:Drivers/STM32G4xx_HAL_Driver/Src/stm32g4xx_ll_usb.c ****     }
 1069              		.loc 1 313 7 discriminator 3 view .LVU369
 313:Drivers/STM32G4xx_HAL_Driver/Src/stm32g4xx_ll_usb.c ****     }
 1070              		.loc 1 313 7 discriminator 3 view .LVU370
 1071 0076 0A78     		ldrb	r2, [r1]	@ zero_extendqisi2
 1072 0078 30F82230 		ldrh	r3, [r0, r2, lsl #2]
 1073 007c 9BB2     		uxth	r3, r3
 1074 007e 23F48043 		bic	r3, r3, #16384
 1075 0082 23F07003 		bic	r3, r3, #112
 1076              	.LVL115:
 313:Drivers/STM32G4xx_HAL_Driver/Src/stm32g4xx_ll_usb.c ****     }
 1077              		.loc 1 313 7 discriminator 3 view .LVU371
 313:Drivers/STM32G4xx_HAL_Driver/Src/stm32g4xx_ll_usb.c ****     }
 1078              		.loc 1 313 7 discriminator 3 view .LVU372
 313:Drivers/STM32G4xx_HAL_Driver/Src/stm32g4xx_ll_usb.c ****     }
 1079              		.loc 1 313 7 discriminator 3 view .LVU373
 1080 0086 43F40043 		orr	r3, r3, #32768
 1081              	.LVL116:
 313:Drivers/STM32G4xx_HAL_Driver/Src/stm32g4xx_ll_usb.c ****     }
 1082              		.loc 1 313 7 is_stmt 0 discriminator 3 view .LVU374
 1083 008a 43F08003 		orr	r3, r3, #128
 1084 008e 20F82230 		strh	r3, [r0, r2, lsl #2]	@ movhi
 1085 0092 DBE7     		b	.L39
ARM GAS  C:\Users\Jack2bs\AppData\Local\Temp\ccBBPckb.s 			page 29


 1086              	.L36:
 313:Drivers/STM32G4xx_HAL_Driver/Src/stm32g4xx_ll_usb.c ****     }
 1087              		.loc 1 313 7 discriminator 3 view .LVU375
 1088              	.LBE37:
 319:Drivers/STM32G4xx_HAL_Driver/Src/stm32g4xx_ll_usb.c ****     {
 1089              		.loc 1 319 5 is_stmt 1 view .LVU376
 319:Drivers/STM32G4xx_HAL_Driver/Src/stm32g4xx_ll_usb.c ****     {
 1090              		.loc 1 319 11 is_stmt 0 view .LVU377
 1091 0094 4B78     		ldrb	r3, [r1, #1]	@ zero_extendqisi2
 319:Drivers/STM32G4xx_HAL_Driver/Src/stm32g4xx_ll_usb.c ****     {
 1092              		.loc 1 319 8 view .LVU378
 1093 0096 002B     		cmp	r3, #0
 1094 0098 4ED1     		bne	.L41
 322:Drivers/STM32G4xx_HAL_Driver/Src/stm32g4xx_ll_usb.c ****       PCD_CLEAR_TX_DTOG(USBx, ep->num);
 1095              		.loc 1 322 7 is_stmt 1 view .LVU379
 1096              	.LBB38:
 322:Drivers/STM32G4xx_HAL_Driver/Src/stm32g4xx_ll_usb.c ****       PCD_CLEAR_TX_DTOG(USBx, ep->num);
 1097              		.loc 1 322 7 view .LVU380
 322:Drivers/STM32G4xx_HAL_Driver/Src/stm32g4xx_ll_usb.c ****       PCD_CLEAR_TX_DTOG(USBx, ep->num);
 1098              		.loc 1 322 7 view .LVU381
 1099 009a 0A78     		ldrb	r2, [r1]	@ zero_extendqisi2
 1100 009c 30F82230 		ldrh	r3, [r0, r2, lsl #2]
 1101              	.LVL117:
 322:Drivers/STM32G4xx_HAL_Driver/Src/stm32g4xx_ll_usb.c ****       PCD_CLEAR_TX_DTOG(USBx, ep->num);
 1102              		.loc 1 322 7 view .LVU382
 1103 00a0 13F4804F 		tst	r3, #16384
 1104 00a4 0CD0     		beq	.L42
 322:Drivers/STM32G4xx_HAL_Driver/Src/stm32g4xx_ll_usb.c ****       PCD_CLEAR_TX_DTOG(USBx, ep->num);
 1105              		.loc 1 322 7 discriminator 1 view .LVU383
 1106              	.LBB39:
 322:Drivers/STM32G4xx_HAL_Driver/Src/stm32g4xx_ll_usb.c ****       PCD_CLEAR_TX_DTOG(USBx, ep->num);
 1107              		.loc 1 322 7 discriminator 1 view .LVU384
 322:Drivers/STM32G4xx_HAL_Driver/Src/stm32g4xx_ll_usb.c ****       PCD_CLEAR_TX_DTOG(USBx, ep->num);
 1108              		.loc 1 322 7 discriminator 1 view .LVU385
 1109 00a6 30F82230 		ldrh	r3, [r0, r2, lsl #2]
 1110              	.LVL118:
 322:Drivers/STM32G4xx_HAL_Driver/Src/stm32g4xx_ll_usb.c ****       PCD_CLEAR_TX_DTOG(USBx, ep->num);
 1111              		.loc 1 322 7 is_stmt 0 discriminator 1 view .LVU386
 1112 00aa 9BB2     		uxth	r3, r3
 1113 00ac 23F4E043 		bic	r3, r3, #28672
 1114 00b0 23F07003 		bic	r3, r3, #112
 1115              	.LVL119:
 322:Drivers/STM32G4xx_HAL_Driver/Src/stm32g4xx_ll_usb.c ****       PCD_CLEAR_TX_DTOG(USBx, ep->num);
 1116              		.loc 1 322 7 is_stmt 1 discriminator 1 view .LVU387
 1117 00b4 43F44043 		orr	r3, r3, #49152
 1118              	.LVL120:
 322:Drivers/STM32G4xx_HAL_Driver/Src/stm32g4xx_ll_usb.c ****       PCD_CLEAR_TX_DTOG(USBx, ep->num);
 1119              		.loc 1 322 7 is_stmt 0 discriminator 1 view .LVU388
 1120 00b8 43F08003 		orr	r3, r3, #128
 1121 00bc 20F82230 		strh	r3, [r0, r2, lsl #2]	@ movhi
 1122              	.L42:
 322:Drivers/STM32G4xx_HAL_Driver/Src/stm32g4xx_ll_usb.c ****       PCD_CLEAR_TX_DTOG(USBx, ep->num);
 1123              		.loc 1 322 7 discriminator 1 view .LVU389
 1124              	.LBE39:
 322:Drivers/STM32G4xx_HAL_Driver/Src/stm32g4xx_ll_usb.c ****       PCD_CLEAR_TX_DTOG(USBx, ep->num);
 1125              		.loc 1 322 7 is_stmt 1 discriminator 3 view .LVU390
 1126              	.LBE38:
ARM GAS  C:\Users\Jack2bs\AppData\Local\Temp\ccBBPckb.s 			page 30


 322:Drivers/STM32G4xx_HAL_Driver/Src/stm32g4xx_ll_usb.c ****       PCD_CLEAR_TX_DTOG(USBx, ep->num);
 1127              		.loc 1 322 7 discriminator 3 view .LVU391
 323:Drivers/STM32G4xx_HAL_Driver/Src/stm32g4xx_ll_usb.c **** 
 1128              		.loc 1 323 7 discriminator 3 view .LVU392
 1129              	.LBB40:
 323:Drivers/STM32G4xx_HAL_Driver/Src/stm32g4xx_ll_usb.c **** 
 1130              		.loc 1 323 7 discriminator 3 view .LVU393
 323:Drivers/STM32G4xx_HAL_Driver/Src/stm32g4xx_ll_usb.c **** 
 1131              		.loc 1 323 7 discriminator 3 view .LVU394
 1132 00c0 0A78     		ldrb	r2, [r1]	@ zero_extendqisi2
 1133 00c2 30F82230 		ldrh	r3, [r0, r2, lsl #2]
 1134              	.LVL121:
 323:Drivers/STM32G4xx_HAL_Driver/Src/stm32g4xx_ll_usb.c **** 
 1135              		.loc 1 323 7 discriminator 3 view .LVU395
 1136 00c6 13F0400F 		tst	r3, #64
 1137 00ca 0CD0     		beq	.L43
 323:Drivers/STM32G4xx_HAL_Driver/Src/stm32g4xx_ll_usb.c **** 
 1138              		.loc 1 323 7 discriminator 1 view .LVU396
 1139              	.LBB41:
 323:Drivers/STM32G4xx_HAL_Driver/Src/stm32g4xx_ll_usb.c **** 
 1140              		.loc 1 323 7 discriminator 1 view .LVU397
 323:Drivers/STM32G4xx_HAL_Driver/Src/stm32g4xx_ll_usb.c **** 
 1141              		.loc 1 323 7 discriminator 1 view .LVU398
 1142 00cc 30F82230 		ldrh	r3, [r0, r2, lsl #2]
 1143              	.LVL122:
 323:Drivers/STM32G4xx_HAL_Driver/Src/stm32g4xx_ll_usb.c **** 
 1144              		.loc 1 323 7 is_stmt 0 discriminator 1 view .LVU399
 1145 00d0 9BB2     		uxth	r3, r3
 1146 00d2 23F4E043 		bic	r3, r3, #28672
 1147 00d6 23F07003 		bic	r3, r3, #112
 1148              	.LVL123:
 323:Drivers/STM32G4xx_HAL_Driver/Src/stm32g4xx_ll_usb.c **** 
 1149              		.loc 1 323 7 is_stmt 1 discriminator 1 view .LVU400
 1150 00da 43F40043 		orr	r3, r3, #32768
 1151              	.LVL124:
 323:Drivers/STM32G4xx_HAL_Driver/Src/stm32g4xx_ll_usb.c **** 
 1152              		.loc 1 323 7 is_stmt 0 discriminator 1 view .LVU401
 1153 00de 43F0C003 		orr	r3, r3, #192
 1154 00e2 20F82230 		strh	r3, [r0, r2, lsl #2]	@ movhi
 1155              	.L43:
 323:Drivers/STM32G4xx_HAL_Driver/Src/stm32g4xx_ll_usb.c **** 
 1156              		.loc 1 323 7 discriminator 1 view .LVU402
 1157              	.LBE41:
 323:Drivers/STM32G4xx_HAL_Driver/Src/stm32g4xx_ll_usb.c **** 
 1158              		.loc 1 323 7 is_stmt 1 discriminator 3 view .LVU403
 1159              	.LBE40:
 323:Drivers/STM32G4xx_HAL_Driver/Src/stm32g4xx_ll_usb.c **** 
 1160              		.loc 1 323 7 discriminator 3 view .LVU404
 326:Drivers/STM32G4xx_HAL_Driver/Src/stm32g4xx_ll_usb.c **** 
 1161              		.loc 1 326 7 discriminator 3 view .LVU405
 1162              	.LBB42:
 326:Drivers/STM32G4xx_HAL_Driver/Src/stm32g4xx_ll_usb.c **** 
 1163              		.loc 1 326 7 discriminator 3 view .LVU406
 326:Drivers/STM32G4xx_HAL_Driver/Src/stm32g4xx_ll_usb.c **** 
 1164              		.loc 1 326 7 discriminator 3 view .LVU407
 1165 00e6 0A78     		ldrb	r2, [r1]	@ zero_extendqisi2
 1166 00e8 30F82230 		ldrh	r3, [r0, r2, lsl #2]
ARM GAS  C:\Users\Jack2bs\AppData\Local\Temp\ccBBPckb.s 			page 31


 1167 00ec 9BB2     		uxth	r3, r3
 1168 00ee 23F4E043 		bic	r3, r3, #28672
 1169 00f2 23F07003 		bic	r3, r3, #112
 1170              	.LVL125:
 326:Drivers/STM32G4xx_HAL_Driver/Src/stm32g4xx_ll_usb.c **** 
 1171              		.loc 1 326 7 discriminator 3 view .LVU408
 1172 00f6 43F40043 		orr	r3, r3, #32768
 1173              	.LVL126:
 326:Drivers/STM32G4xx_HAL_Driver/Src/stm32g4xx_ll_usb.c **** 
 1174              		.loc 1 326 7 is_stmt 0 discriminator 3 view .LVU409
 1175 00fa 43F0C003 		orr	r3, r3, #192
 1176 00fe 20F82230 		strh	r3, [r0, r2, lsl #2]	@ movhi
 1177              	.LBE42:
 326:Drivers/STM32G4xx_HAL_Driver/Src/stm32g4xx_ll_usb.c **** 
 1178              		.loc 1 326 7 is_stmt 1 discriminator 3 view .LVU410
 328:Drivers/STM32G4xx_HAL_Driver/Src/stm32g4xx_ll_usb.c ****       PCD_SET_EP_TX_STATUS(USBx, ep->num, USB_EP_TX_DIS);
 1179              		.loc 1 328 7 discriminator 3 view .LVU411
 1180              	.LBB43:
 328:Drivers/STM32G4xx_HAL_Driver/Src/stm32g4xx_ll_usb.c ****       PCD_SET_EP_TX_STATUS(USBx, ep->num, USB_EP_TX_DIS);
 1181              		.loc 1 328 7 discriminator 3 view .LVU412
 328:Drivers/STM32G4xx_HAL_Driver/Src/stm32g4xx_ll_usb.c ****       PCD_SET_EP_TX_STATUS(USBx, ep->num, USB_EP_TX_DIS);
 1182              		.loc 1 328 7 discriminator 3 view .LVU413
 1183 0102 0B78     		ldrb	r3, [r1]	@ zero_extendqisi2
 1184 0104 30F82320 		ldrh	r2, [r0, r3, lsl #2]
 1185 0108 92B2     		uxth	r2, r2
 1186 010a 22F48042 		bic	r2, r2, #16384
 1187 010e 22F07002 		bic	r2, r2, #112
 1188              	.LVL127:
 328:Drivers/STM32G4xx_HAL_Driver/Src/stm32g4xx_ll_usb.c ****       PCD_SET_EP_TX_STATUS(USBx, ep->num, USB_EP_TX_DIS);
 1189              		.loc 1 328 7 discriminator 3 view .LVU414
 328:Drivers/STM32G4xx_HAL_Driver/Src/stm32g4xx_ll_usb.c ****       PCD_SET_EP_TX_STATUS(USBx, ep->num, USB_EP_TX_DIS);
 1190              		.loc 1 328 7 discriminator 3 view .LVU415
 328:Drivers/STM32G4xx_HAL_Driver/Src/stm32g4xx_ll_usb.c ****       PCD_SET_EP_TX_STATUS(USBx, ep->num, USB_EP_TX_DIS);
 1191              		.loc 1 328 7 discriminator 3 view .LVU416
 1192 0112 48F2800C 		movw	ip, #32896
 1193 0116 42EA0C02 		orr	r2, r2, ip
 1194              	.LVL128:
 328:Drivers/STM32G4xx_HAL_Driver/Src/stm32g4xx_ll_usb.c ****       PCD_SET_EP_TX_STATUS(USBx, ep->num, USB_EP_TX_DIS);
 1195              		.loc 1 328 7 is_stmt 0 discriminator 3 view .LVU417
 1196 011a 20F82320 		strh	r2, [r0, r3, lsl #2]	@ movhi
 1197              	.LBE43:
 328:Drivers/STM32G4xx_HAL_Driver/Src/stm32g4xx_ll_usb.c ****       PCD_SET_EP_TX_STATUS(USBx, ep->num, USB_EP_TX_DIS);
 1198              		.loc 1 328 7 is_stmt 1 discriminator 3 view .LVU418
 329:Drivers/STM32G4xx_HAL_Driver/Src/stm32g4xx_ll_usb.c ****     }
 1199              		.loc 1 329 7 discriminator 3 view .LVU419
 1200              	.LBB44:
 329:Drivers/STM32G4xx_HAL_Driver/Src/stm32g4xx_ll_usb.c ****     }
 1201              		.loc 1 329 7 discriminator 3 view .LVU420
 329:Drivers/STM32G4xx_HAL_Driver/Src/stm32g4xx_ll_usb.c ****     }
 1202              		.loc 1 329 7 discriminator 3 view .LVU421
 1203 011e 0A78     		ldrb	r2, [r1]	@ zero_extendqisi2
 1204 0120 30F82230 		ldrh	r3, [r0, r2, lsl #2]
 1205 0124 9BB2     		uxth	r3, r3
 1206 0126 23F4E043 		bic	r3, r3, #28672
 1207 012a 23F04003 		bic	r3, r3, #64
 1208              	.LVL129:
 329:Drivers/STM32G4xx_HAL_Driver/Src/stm32g4xx_ll_usb.c ****     }
ARM GAS  C:\Users\Jack2bs\AppData\Local\Temp\ccBBPckb.s 			page 32


 1209              		.loc 1 329 7 discriminator 3 view .LVU422
 329:Drivers/STM32G4xx_HAL_Driver/Src/stm32g4xx_ll_usb.c ****     }
 1210              		.loc 1 329 7 discriminator 3 view .LVU423
 329:Drivers/STM32G4xx_HAL_Driver/Src/stm32g4xx_ll_usb.c ****     }
 1211              		.loc 1 329 7 discriminator 3 view .LVU424
 1212 012e 43EA0C03 		orr	r3, r3, ip
 1213              	.LVL130:
 329:Drivers/STM32G4xx_HAL_Driver/Src/stm32g4xx_ll_usb.c ****     }
 1214              		.loc 1 329 7 is_stmt 0 discriminator 3 view .LVU425
 1215 0132 20F82230 		strh	r3, [r0, r2, lsl #2]	@ movhi
 1216              	.LBE44:
 329:Drivers/STM32G4xx_HAL_Driver/Src/stm32g4xx_ll_usb.c ****     }
 1217              		.loc 1 329 7 is_stmt 1 discriminator 3 view .LVU426
 1218 0136 89E7     		b	.L39
 1219              	.L41:
 334:Drivers/STM32G4xx_HAL_Driver/Src/stm32g4xx_ll_usb.c ****       PCD_CLEAR_TX_DTOG(USBx, ep->num);
 1220              		.loc 1 334 7 view .LVU427
 1221              	.LBB45:
 334:Drivers/STM32G4xx_HAL_Driver/Src/stm32g4xx_ll_usb.c ****       PCD_CLEAR_TX_DTOG(USBx, ep->num);
 1222              		.loc 1 334 7 view .LVU428
 334:Drivers/STM32G4xx_HAL_Driver/Src/stm32g4xx_ll_usb.c ****       PCD_CLEAR_TX_DTOG(USBx, ep->num);
 1223              		.loc 1 334 7 view .LVU429
 1224 0138 0A78     		ldrb	r2, [r1]	@ zero_extendqisi2
 1225 013a 30F82230 		ldrh	r3, [r0, r2, lsl #2]
 1226              	.LVL131:
 334:Drivers/STM32G4xx_HAL_Driver/Src/stm32g4xx_ll_usb.c ****       PCD_CLEAR_TX_DTOG(USBx, ep->num);
 1227              		.loc 1 334 7 view .LVU430
 1228 013e 13F4804F 		tst	r3, #16384
 1229 0142 0CD0     		beq	.L44
 334:Drivers/STM32G4xx_HAL_Driver/Src/stm32g4xx_ll_usb.c ****       PCD_CLEAR_TX_DTOG(USBx, ep->num);
 1230              		.loc 1 334 7 discriminator 1 view .LVU431
 1231              	.LBB46:
 334:Drivers/STM32G4xx_HAL_Driver/Src/stm32g4xx_ll_usb.c ****       PCD_CLEAR_TX_DTOG(USBx, ep->num);
 1232              		.loc 1 334 7 discriminator 1 view .LVU432
 334:Drivers/STM32G4xx_HAL_Driver/Src/stm32g4xx_ll_usb.c ****       PCD_CLEAR_TX_DTOG(USBx, ep->num);
 1233              		.loc 1 334 7 discriminator 1 view .LVU433
 1234 0144 30F82230 		ldrh	r3, [r0, r2, lsl #2]
 1235              	.LVL132:
 334:Drivers/STM32G4xx_HAL_Driver/Src/stm32g4xx_ll_usb.c ****       PCD_CLEAR_TX_DTOG(USBx, ep->num);
 1236              		.loc 1 334 7 is_stmt 0 discriminator 1 view .LVU434
 1237 0148 9BB2     		uxth	r3, r3
 1238 014a 23F4E043 		bic	r3, r3, #28672
 1239 014e 23F07003 		bic	r3, r3, #112
 1240              	.LVL133:
 334:Drivers/STM32G4xx_HAL_Driver/Src/stm32g4xx_ll_usb.c ****       PCD_CLEAR_TX_DTOG(USBx, ep->num);
 1241              		.loc 1 334 7 is_stmt 1 discriminator 1 view .LVU435
 1242 0152 43F44043 		orr	r3, r3, #49152
 1243              	.LVL134:
 334:Drivers/STM32G4xx_HAL_Driver/Src/stm32g4xx_ll_usb.c ****       PCD_CLEAR_TX_DTOG(USBx, ep->num);
 1244              		.loc 1 334 7 is_stmt 0 discriminator 1 view .LVU436
 1245 0156 43F08003 		orr	r3, r3, #128
 1246 015a 20F82230 		strh	r3, [r0, r2, lsl #2]	@ movhi
 1247              	.L44:
 334:Drivers/STM32G4xx_HAL_Driver/Src/stm32g4xx_ll_usb.c ****       PCD_CLEAR_TX_DTOG(USBx, ep->num);
 1248              		.loc 1 334 7 discriminator 1 view .LVU437
 1249              	.LBE46:
 334:Drivers/STM32G4xx_HAL_Driver/Src/stm32g4xx_ll_usb.c ****       PCD_CLEAR_TX_DTOG(USBx, ep->num);
ARM GAS  C:\Users\Jack2bs\AppData\Local\Temp\ccBBPckb.s 			page 33


 1250              		.loc 1 334 7 is_stmt 1 discriminator 3 view .LVU438
 1251              	.LBE45:
 334:Drivers/STM32G4xx_HAL_Driver/Src/stm32g4xx_ll_usb.c ****       PCD_CLEAR_TX_DTOG(USBx, ep->num);
 1252              		.loc 1 334 7 discriminator 3 view .LVU439
 335:Drivers/STM32G4xx_HAL_Driver/Src/stm32g4xx_ll_usb.c ****       PCD_RX_DTOG(USBx, ep->num);
 1253              		.loc 1 335 7 discriminator 3 view .LVU440
 1254              	.LBB47:
 335:Drivers/STM32G4xx_HAL_Driver/Src/stm32g4xx_ll_usb.c ****       PCD_RX_DTOG(USBx, ep->num);
 1255              		.loc 1 335 7 discriminator 3 view .LVU441
 335:Drivers/STM32G4xx_HAL_Driver/Src/stm32g4xx_ll_usb.c ****       PCD_RX_DTOG(USBx, ep->num);
 1256              		.loc 1 335 7 discriminator 3 view .LVU442
 1257 015e 0A78     		ldrb	r2, [r1]	@ zero_extendqisi2
 1258 0160 30F82230 		ldrh	r3, [r0, r2, lsl #2]
 1259              	.LVL135:
 335:Drivers/STM32G4xx_HAL_Driver/Src/stm32g4xx_ll_usb.c ****       PCD_RX_DTOG(USBx, ep->num);
 1260              		.loc 1 335 7 discriminator 3 view .LVU443
 1261 0164 13F0400F 		tst	r3, #64
 1262 0168 0CD0     		beq	.L45
 335:Drivers/STM32G4xx_HAL_Driver/Src/stm32g4xx_ll_usb.c ****       PCD_RX_DTOG(USBx, ep->num);
 1263              		.loc 1 335 7 discriminator 1 view .LVU444
 1264              	.LBB48:
 335:Drivers/STM32G4xx_HAL_Driver/Src/stm32g4xx_ll_usb.c ****       PCD_RX_DTOG(USBx, ep->num);
 1265              		.loc 1 335 7 discriminator 1 view .LVU445
 335:Drivers/STM32G4xx_HAL_Driver/Src/stm32g4xx_ll_usb.c ****       PCD_RX_DTOG(USBx, ep->num);
 1266              		.loc 1 335 7 discriminator 1 view .LVU446
 1267 016a 30F82230 		ldrh	r3, [r0, r2, lsl #2]
 1268              	.LVL136:
 335:Drivers/STM32G4xx_HAL_Driver/Src/stm32g4xx_ll_usb.c ****       PCD_RX_DTOG(USBx, ep->num);
 1269              		.loc 1 335 7 is_stmt 0 discriminator 1 view .LVU447
 1270 016e 9BB2     		uxth	r3, r3
 1271 0170 23F4E043 		bic	r3, r3, #28672
 1272 0174 23F07003 		bic	r3, r3, #112
 1273              	.LVL137:
 335:Drivers/STM32G4xx_HAL_Driver/Src/stm32g4xx_ll_usb.c ****       PCD_RX_DTOG(USBx, ep->num);
 1274              		.loc 1 335 7 is_stmt 1 discriminator 1 view .LVU448
 1275 0178 43F40043 		orr	r3, r3, #32768
 1276              	.LVL138:
 335:Drivers/STM32G4xx_HAL_Driver/Src/stm32g4xx_ll_usb.c ****       PCD_RX_DTOG(USBx, ep->num);
 1277              		.loc 1 335 7 is_stmt 0 discriminator 1 view .LVU449
 1278 017c 43F0C003 		orr	r3, r3, #192
 1279 0180 20F82230 		strh	r3, [r0, r2, lsl #2]	@ movhi
 1280              	.L45:
 335:Drivers/STM32G4xx_HAL_Driver/Src/stm32g4xx_ll_usb.c ****       PCD_RX_DTOG(USBx, ep->num);
 1281              		.loc 1 335 7 discriminator 1 view .LVU450
 1282              	.LBE48:
 335:Drivers/STM32G4xx_HAL_Driver/Src/stm32g4xx_ll_usb.c ****       PCD_RX_DTOG(USBx, ep->num);
 1283              		.loc 1 335 7 is_stmt 1 discriminator 3 view .LVU451
 1284              	.LBE47:
 335:Drivers/STM32G4xx_HAL_Driver/Src/stm32g4xx_ll_usb.c ****       PCD_RX_DTOG(USBx, ep->num);
 1285              		.loc 1 335 7 discriminator 3 view .LVU452
 336:Drivers/STM32G4xx_HAL_Driver/Src/stm32g4xx_ll_usb.c **** 
 1286              		.loc 1 336 7 discriminator 3 view .LVU453
 1287              	.LBB49:
 336:Drivers/STM32G4xx_HAL_Driver/Src/stm32g4xx_ll_usb.c **** 
 1288              		.loc 1 336 7 discriminator 3 view .LVU454
 336:Drivers/STM32G4xx_HAL_Driver/Src/stm32g4xx_ll_usb.c **** 
 1289              		.loc 1 336 7 discriminator 3 view .LVU455
ARM GAS  C:\Users\Jack2bs\AppData\Local\Temp\ccBBPckb.s 			page 34


 1290 0184 0A78     		ldrb	r2, [r1]	@ zero_extendqisi2
 1291 0186 30F82230 		ldrh	r3, [r0, r2, lsl #2]
 1292 018a 9BB2     		uxth	r3, r3
 1293 018c 23F4E043 		bic	r3, r3, #28672
 1294 0190 23F07003 		bic	r3, r3, #112
 1295              	.LVL139:
 336:Drivers/STM32G4xx_HAL_Driver/Src/stm32g4xx_ll_usb.c **** 
 1296              		.loc 1 336 7 discriminator 3 view .LVU456
 1297 0194 43F44043 		orr	r3, r3, #49152
 1298              	.LVL140:
 336:Drivers/STM32G4xx_HAL_Driver/Src/stm32g4xx_ll_usb.c **** 
 1299              		.loc 1 336 7 is_stmt 0 discriminator 3 view .LVU457
 1300 0198 43F08003 		orr	r3, r3, #128
 1301 019c 20F82230 		strh	r3, [r0, r2, lsl #2]	@ movhi
 1302              	.LBE49:
 336:Drivers/STM32G4xx_HAL_Driver/Src/stm32g4xx_ll_usb.c **** 
 1303              		.loc 1 336 7 is_stmt 1 discriminator 3 view .LVU458
 339:Drivers/STM32G4xx_HAL_Driver/Src/stm32g4xx_ll_usb.c ****       PCD_SET_EP_RX_STATUS(USBx, ep->num, USB_EP_RX_DIS);
 1304              		.loc 1 339 7 discriminator 3 view .LVU459
 1305              	.LBB50:
 339:Drivers/STM32G4xx_HAL_Driver/Src/stm32g4xx_ll_usb.c ****       PCD_SET_EP_RX_STATUS(USBx, ep->num, USB_EP_RX_DIS);
 1306              		.loc 1 339 7 discriminator 3 view .LVU460
 339:Drivers/STM32G4xx_HAL_Driver/Src/stm32g4xx_ll_usb.c ****       PCD_SET_EP_RX_STATUS(USBx, ep->num, USB_EP_RX_DIS);
 1307              		.loc 1 339 7 discriminator 3 view .LVU461
 1308 01a0 0B78     		ldrb	r3, [r1]	@ zero_extendqisi2
 1309 01a2 30F82320 		ldrh	r2, [r0, r3, lsl #2]
 1310 01a6 92B2     		uxth	r2, r2
 1311 01a8 22F4E042 		bic	r2, r2, #28672
 1312 01ac 22F04002 		bic	r2, r2, #64
 1313              	.LVL141:
 339:Drivers/STM32G4xx_HAL_Driver/Src/stm32g4xx_ll_usb.c ****       PCD_SET_EP_RX_STATUS(USBx, ep->num, USB_EP_RX_DIS);
 1314              		.loc 1 339 7 discriminator 3 view .LVU462
 339:Drivers/STM32G4xx_HAL_Driver/Src/stm32g4xx_ll_usb.c ****       PCD_SET_EP_RX_STATUS(USBx, ep->num, USB_EP_RX_DIS);
 1315              		.loc 1 339 7 discriminator 3 view .LVU463
 339:Drivers/STM32G4xx_HAL_Driver/Src/stm32g4xx_ll_usb.c ****       PCD_SET_EP_RX_STATUS(USBx, ep->num, USB_EP_RX_DIS);
 1316              		.loc 1 339 7 discriminator 3 view .LVU464
 1317 01b0 48F2800C 		movw	ip, #32896
 1318 01b4 42EA0C02 		orr	r2, r2, ip
 1319              	.LVL142:
 339:Drivers/STM32G4xx_HAL_Driver/Src/stm32g4xx_ll_usb.c ****       PCD_SET_EP_RX_STATUS(USBx, ep->num, USB_EP_RX_DIS);
 1320              		.loc 1 339 7 is_stmt 0 discriminator 3 view .LVU465
 1321 01b8 20F82320 		strh	r2, [r0, r3, lsl #2]	@ movhi
 1322              	.LBE50:
 339:Drivers/STM32G4xx_HAL_Driver/Src/stm32g4xx_ll_usb.c ****       PCD_SET_EP_RX_STATUS(USBx, ep->num, USB_EP_RX_DIS);
 1323              		.loc 1 339 7 is_stmt 1 discriminator 3 view .LVU466
 340:Drivers/STM32G4xx_HAL_Driver/Src/stm32g4xx_ll_usb.c ****     }
 1324              		.loc 1 340 7 discriminator 3 view .LVU467
 1325              	.LBB51:
 340:Drivers/STM32G4xx_HAL_Driver/Src/stm32g4xx_ll_usb.c ****     }
 1326              		.loc 1 340 7 discriminator 3 view .LVU468
 340:Drivers/STM32G4xx_HAL_Driver/Src/stm32g4xx_ll_usb.c ****     }
 1327              		.loc 1 340 7 discriminator 3 view .LVU469
 1328 01bc 0A78     		ldrb	r2, [r1]	@ zero_extendqisi2
 1329 01be 30F82230 		ldrh	r3, [r0, r2, lsl #2]
 1330 01c2 9BB2     		uxth	r3, r3
 1331 01c4 23F48043 		bic	r3, r3, #16384
 1332 01c8 23F07003 		bic	r3, r3, #112
ARM GAS  C:\Users\Jack2bs\AppData\Local\Temp\ccBBPckb.s 			page 35


 1333              	.LVL143:
 340:Drivers/STM32G4xx_HAL_Driver/Src/stm32g4xx_ll_usb.c ****     }
 1334              		.loc 1 340 7 discriminator 3 view .LVU470
 340:Drivers/STM32G4xx_HAL_Driver/Src/stm32g4xx_ll_usb.c ****     }
 1335              		.loc 1 340 7 discriminator 3 view .LVU471
 340:Drivers/STM32G4xx_HAL_Driver/Src/stm32g4xx_ll_usb.c ****     }
 1336              		.loc 1 340 7 discriminator 3 view .LVU472
 1337 01cc 43EA0C03 		orr	r3, r3, ip
 1338              	.LVL144:
 340:Drivers/STM32G4xx_HAL_Driver/Src/stm32g4xx_ll_usb.c ****     }
 1339              		.loc 1 340 7 is_stmt 0 discriminator 3 view .LVU473
 1340 01d0 20F82230 		strh	r3, [r0, r2, lsl #2]	@ movhi
 1341 01d4 3AE7     		b	.L39
 1342              	.LBE51:
 1343              		.cfi_endproc
 1344              	.LFE138:
 1346              		.section	.text.USB_EPSetStall,"ax",%progbits
 1347              		.align	1
 1348              		.global	USB_EPSetStall
 1349              		.syntax unified
 1350              		.thumb
 1351              		.thumb_func
 1352              		.fpu fpv4-sp-d16
 1354              	USB_EPSetStall:
 1355              	.LVL145:
 1356              	.LFB140:
 346:Drivers/STM32G4xx_HAL_Driver/Src/stm32g4xx_ll_usb.c **** 
 347:Drivers/STM32G4xx_HAL_Driver/Src/stm32g4xx_ll_usb.c **** /**
 348:Drivers/STM32G4xx_HAL_Driver/Src/stm32g4xx_ll_usb.c ****   * @brief  USB_EPStartXfer setup and starts a transfer over an EP
 349:Drivers/STM32G4xx_HAL_Driver/Src/stm32g4xx_ll_usb.c ****   * @param  USBx Selected device
 350:Drivers/STM32G4xx_HAL_Driver/Src/stm32g4xx_ll_usb.c ****   * @param  ep pointer to endpoint structure
 351:Drivers/STM32G4xx_HAL_Driver/Src/stm32g4xx_ll_usb.c ****   * @retval HAL status
 352:Drivers/STM32G4xx_HAL_Driver/Src/stm32g4xx_ll_usb.c ****   */
 353:Drivers/STM32G4xx_HAL_Driver/Src/stm32g4xx_ll_usb.c **** HAL_StatusTypeDef USB_EPStartXfer(USB_TypeDef *USBx, USB_EPTypeDef *ep)
 354:Drivers/STM32G4xx_HAL_Driver/Src/stm32g4xx_ll_usb.c **** {
 355:Drivers/STM32G4xx_HAL_Driver/Src/stm32g4xx_ll_usb.c ****   uint32_t len;
 356:Drivers/STM32G4xx_HAL_Driver/Src/stm32g4xx_ll_usb.c ****   uint16_t pmabuffer;
 357:Drivers/STM32G4xx_HAL_Driver/Src/stm32g4xx_ll_usb.c ****   uint16_t wEPVal;
 358:Drivers/STM32G4xx_HAL_Driver/Src/stm32g4xx_ll_usb.c **** 
 359:Drivers/STM32G4xx_HAL_Driver/Src/stm32g4xx_ll_usb.c ****   /* IN endpoint */
 360:Drivers/STM32G4xx_HAL_Driver/Src/stm32g4xx_ll_usb.c ****   if (ep->is_in == 1U)
 361:Drivers/STM32G4xx_HAL_Driver/Src/stm32g4xx_ll_usb.c ****   {
 362:Drivers/STM32G4xx_HAL_Driver/Src/stm32g4xx_ll_usb.c ****     /*Multi packet transfer*/
 363:Drivers/STM32G4xx_HAL_Driver/Src/stm32g4xx_ll_usb.c ****     if (ep->xfer_len > ep->maxpacket)
 364:Drivers/STM32G4xx_HAL_Driver/Src/stm32g4xx_ll_usb.c ****     {
 365:Drivers/STM32G4xx_HAL_Driver/Src/stm32g4xx_ll_usb.c ****       len = ep->maxpacket;
 366:Drivers/STM32G4xx_HAL_Driver/Src/stm32g4xx_ll_usb.c ****     }
 367:Drivers/STM32G4xx_HAL_Driver/Src/stm32g4xx_ll_usb.c ****     else
 368:Drivers/STM32G4xx_HAL_Driver/Src/stm32g4xx_ll_usb.c ****     {
 369:Drivers/STM32G4xx_HAL_Driver/Src/stm32g4xx_ll_usb.c ****       len = ep->xfer_len;
 370:Drivers/STM32G4xx_HAL_Driver/Src/stm32g4xx_ll_usb.c ****     }
 371:Drivers/STM32G4xx_HAL_Driver/Src/stm32g4xx_ll_usb.c **** 
 372:Drivers/STM32G4xx_HAL_Driver/Src/stm32g4xx_ll_usb.c ****     /* configure and validate Tx endpoint */
 373:Drivers/STM32G4xx_HAL_Driver/Src/stm32g4xx_ll_usb.c ****     if (ep->doublebuffer == 0U)
 374:Drivers/STM32G4xx_HAL_Driver/Src/stm32g4xx_ll_usb.c ****     {
 375:Drivers/STM32G4xx_HAL_Driver/Src/stm32g4xx_ll_usb.c ****       USB_WritePMA(USBx, ep->xfer_buff, ep->pmaadress, (uint16_t)len);
 376:Drivers/STM32G4xx_HAL_Driver/Src/stm32g4xx_ll_usb.c ****       PCD_SET_EP_TX_CNT(USBx, ep->num, len);
ARM GAS  C:\Users\Jack2bs\AppData\Local\Temp\ccBBPckb.s 			page 36


 377:Drivers/STM32G4xx_HAL_Driver/Src/stm32g4xx_ll_usb.c ****     }
 378:Drivers/STM32G4xx_HAL_Driver/Src/stm32g4xx_ll_usb.c ****     else
 379:Drivers/STM32G4xx_HAL_Driver/Src/stm32g4xx_ll_usb.c ****     {
 380:Drivers/STM32G4xx_HAL_Driver/Src/stm32g4xx_ll_usb.c ****       /* double buffer bulk management */
 381:Drivers/STM32G4xx_HAL_Driver/Src/stm32g4xx_ll_usb.c ****       if (ep->type == EP_TYPE_BULK)
 382:Drivers/STM32G4xx_HAL_Driver/Src/stm32g4xx_ll_usb.c ****       {
 383:Drivers/STM32G4xx_HAL_Driver/Src/stm32g4xx_ll_usb.c ****         if (ep->xfer_len_db > ep->maxpacket)
 384:Drivers/STM32G4xx_HAL_Driver/Src/stm32g4xx_ll_usb.c ****         {
 385:Drivers/STM32G4xx_HAL_Driver/Src/stm32g4xx_ll_usb.c ****           /* enable double buffer */
 386:Drivers/STM32G4xx_HAL_Driver/Src/stm32g4xx_ll_usb.c ****           PCD_SET_EP_DBUF(USBx, ep->num);
 387:Drivers/STM32G4xx_HAL_Driver/Src/stm32g4xx_ll_usb.c **** 
 388:Drivers/STM32G4xx_HAL_Driver/Src/stm32g4xx_ll_usb.c ****           /* each Time to write in PMA xfer_len_db will */
 389:Drivers/STM32G4xx_HAL_Driver/Src/stm32g4xx_ll_usb.c ****           ep->xfer_len_db -= len;
 390:Drivers/STM32G4xx_HAL_Driver/Src/stm32g4xx_ll_usb.c **** 
 391:Drivers/STM32G4xx_HAL_Driver/Src/stm32g4xx_ll_usb.c ****           /* Fill the two first buffer in the Buffer0 & Buffer1 */
 392:Drivers/STM32G4xx_HAL_Driver/Src/stm32g4xx_ll_usb.c ****           if ((PCD_GET_ENDPOINT(USBx, ep->num) & USB_EP_DTOG_TX) != 0U)
 393:Drivers/STM32G4xx_HAL_Driver/Src/stm32g4xx_ll_usb.c ****           {
 394:Drivers/STM32G4xx_HAL_Driver/Src/stm32g4xx_ll_usb.c ****             /* Set the Double buffer counter for pmabuffer1 */
 395:Drivers/STM32G4xx_HAL_Driver/Src/stm32g4xx_ll_usb.c ****             PCD_SET_EP_DBUF1_CNT(USBx, ep->num, ep->is_in, len);
 396:Drivers/STM32G4xx_HAL_Driver/Src/stm32g4xx_ll_usb.c ****             pmabuffer = ep->pmaaddr1;
 397:Drivers/STM32G4xx_HAL_Driver/Src/stm32g4xx_ll_usb.c **** 
 398:Drivers/STM32G4xx_HAL_Driver/Src/stm32g4xx_ll_usb.c ****             /* Write the user buffer to USB PMA */
 399:Drivers/STM32G4xx_HAL_Driver/Src/stm32g4xx_ll_usb.c ****             USB_WritePMA(USBx, ep->xfer_buff, pmabuffer, (uint16_t)len);
 400:Drivers/STM32G4xx_HAL_Driver/Src/stm32g4xx_ll_usb.c ****             ep->xfer_buff += len;
 401:Drivers/STM32G4xx_HAL_Driver/Src/stm32g4xx_ll_usb.c **** 
 402:Drivers/STM32G4xx_HAL_Driver/Src/stm32g4xx_ll_usb.c ****             if (ep->xfer_len_db > ep->maxpacket)
 403:Drivers/STM32G4xx_HAL_Driver/Src/stm32g4xx_ll_usb.c ****             {
 404:Drivers/STM32G4xx_HAL_Driver/Src/stm32g4xx_ll_usb.c ****               ep->xfer_len_db -= len;
 405:Drivers/STM32G4xx_HAL_Driver/Src/stm32g4xx_ll_usb.c ****             }
 406:Drivers/STM32G4xx_HAL_Driver/Src/stm32g4xx_ll_usb.c ****             else
 407:Drivers/STM32G4xx_HAL_Driver/Src/stm32g4xx_ll_usb.c ****             {
 408:Drivers/STM32G4xx_HAL_Driver/Src/stm32g4xx_ll_usb.c ****               len = ep->xfer_len_db;
 409:Drivers/STM32G4xx_HAL_Driver/Src/stm32g4xx_ll_usb.c ****               ep->xfer_len_db = 0U;
 410:Drivers/STM32G4xx_HAL_Driver/Src/stm32g4xx_ll_usb.c ****             }
 411:Drivers/STM32G4xx_HAL_Driver/Src/stm32g4xx_ll_usb.c **** 
 412:Drivers/STM32G4xx_HAL_Driver/Src/stm32g4xx_ll_usb.c ****             /* Set the Double buffer counter for pmabuffer0 */
 413:Drivers/STM32G4xx_HAL_Driver/Src/stm32g4xx_ll_usb.c ****             PCD_SET_EP_DBUF0_CNT(USBx, ep->num, ep->is_in, len);
 414:Drivers/STM32G4xx_HAL_Driver/Src/stm32g4xx_ll_usb.c ****             pmabuffer = ep->pmaaddr0;
 415:Drivers/STM32G4xx_HAL_Driver/Src/stm32g4xx_ll_usb.c **** 
 416:Drivers/STM32G4xx_HAL_Driver/Src/stm32g4xx_ll_usb.c ****             /* Write the user buffer to USB PMA */
 417:Drivers/STM32G4xx_HAL_Driver/Src/stm32g4xx_ll_usb.c ****             USB_WritePMA(USBx, ep->xfer_buff, pmabuffer, (uint16_t)len);
 418:Drivers/STM32G4xx_HAL_Driver/Src/stm32g4xx_ll_usb.c ****           }
 419:Drivers/STM32G4xx_HAL_Driver/Src/stm32g4xx_ll_usb.c ****           else
 420:Drivers/STM32G4xx_HAL_Driver/Src/stm32g4xx_ll_usb.c ****           {
 421:Drivers/STM32G4xx_HAL_Driver/Src/stm32g4xx_ll_usb.c ****             /* Set the Double buffer counter for pmabuffer0 */
 422:Drivers/STM32G4xx_HAL_Driver/Src/stm32g4xx_ll_usb.c ****             PCD_SET_EP_DBUF0_CNT(USBx, ep->num, ep->is_in, len);
 423:Drivers/STM32G4xx_HAL_Driver/Src/stm32g4xx_ll_usb.c ****             pmabuffer = ep->pmaaddr0;
 424:Drivers/STM32G4xx_HAL_Driver/Src/stm32g4xx_ll_usb.c **** 
 425:Drivers/STM32G4xx_HAL_Driver/Src/stm32g4xx_ll_usb.c ****             /* Write the user buffer to USB PMA */
 426:Drivers/STM32G4xx_HAL_Driver/Src/stm32g4xx_ll_usb.c ****             USB_WritePMA(USBx, ep->xfer_buff, pmabuffer, (uint16_t)len);
 427:Drivers/STM32G4xx_HAL_Driver/Src/stm32g4xx_ll_usb.c ****             ep->xfer_buff += len;
 428:Drivers/STM32G4xx_HAL_Driver/Src/stm32g4xx_ll_usb.c **** 
 429:Drivers/STM32G4xx_HAL_Driver/Src/stm32g4xx_ll_usb.c ****             if (ep->xfer_len_db > ep->maxpacket)
 430:Drivers/STM32G4xx_HAL_Driver/Src/stm32g4xx_ll_usb.c ****             {
 431:Drivers/STM32G4xx_HAL_Driver/Src/stm32g4xx_ll_usb.c ****               ep->xfer_len_db -= len;
 432:Drivers/STM32G4xx_HAL_Driver/Src/stm32g4xx_ll_usb.c ****             }
 433:Drivers/STM32G4xx_HAL_Driver/Src/stm32g4xx_ll_usb.c ****             else
ARM GAS  C:\Users\Jack2bs\AppData\Local\Temp\ccBBPckb.s 			page 37


 434:Drivers/STM32G4xx_HAL_Driver/Src/stm32g4xx_ll_usb.c ****             {
 435:Drivers/STM32G4xx_HAL_Driver/Src/stm32g4xx_ll_usb.c ****               len = ep->xfer_len_db;
 436:Drivers/STM32G4xx_HAL_Driver/Src/stm32g4xx_ll_usb.c ****               ep->xfer_len_db = 0U;
 437:Drivers/STM32G4xx_HAL_Driver/Src/stm32g4xx_ll_usb.c ****             }
 438:Drivers/STM32G4xx_HAL_Driver/Src/stm32g4xx_ll_usb.c **** 
 439:Drivers/STM32G4xx_HAL_Driver/Src/stm32g4xx_ll_usb.c ****             /* Set the Double buffer counter for pmabuffer1 */
 440:Drivers/STM32G4xx_HAL_Driver/Src/stm32g4xx_ll_usb.c ****             PCD_SET_EP_DBUF1_CNT(USBx, ep->num, ep->is_in, len);
 441:Drivers/STM32G4xx_HAL_Driver/Src/stm32g4xx_ll_usb.c ****             pmabuffer = ep->pmaaddr1;
 442:Drivers/STM32G4xx_HAL_Driver/Src/stm32g4xx_ll_usb.c **** 
 443:Drivers/STM32G4xx_HAL_Driver/Src/stm32g4xx_ll_usb.c ****             /* Write the user buffer to USB PMA */
 444:Drivers/STM32G4xx_HAL_Driver/Src/stm32g4xx_ll_usb.c ****             USB_WritePMA(USBx, ep->xfer_buff, pmabuffer, (uint16_t)len);
 445:Drivers/STM32G4xx_HAL_Driver/Src/stm32g4xx_ll_usb.c ****           }
 446:Drivers/STM32G4xx_HAL_Driver/Src/stm32g4xx_ll_usb.c ****         }
 447:Drivers/STM32G4xx_HAL_Driver/Src/stm32g4xx_ll_usb.c ****         /* auto Switch to single buffer mode when transfer <Mps no need to manage in double buffer 
 448:Drivers/STM32G4xx_HAL_Driver/Src/stm32g4xx_ll_usb.c ****         else
 449:Drivers/STM32G4xx_HAL_Driver/Src/stm32g4xx_ll_usb.c ****         {
 450:Drivers/STM32G4xx_HAL_Driver/Src/stm32g4xx_ll_usb.c ****           len = ep->xfer_len_db;
 451:Drivers/STM32G4xx_HAL_Driver/Src/stm32g4xx_ll_usb.c **** 
 452:Drivers/STM32G4xx_HAL_Driver/Src/stm32g4xx_ll_usb.c ****           /* disable double buffer mode */
 453:Drivers/STM32G4xx_HAL_Driver/Src/stm32g4xx_ll_usb.c ****           PCD_CLEAR_EP_DBUF(USBx, ep->num);
 454:Drivers/STM32G4xx_HAL_Driver/Src/stm32g4xx_ll_usb.c **** 
 455:Drivers/STM32G4xx_HAL_Driver/Src/stm32g4xx_ll_usb.c ****           /* Set Tx count with nbre of byte to be transmitted */
 456:Drivers/STM32G4xx_HAL_Driver/Src/stm32g4xx_ll_usb.c ****           PCD_SET_EP_TX_CNT(USBx, ep->num, len);
 457:Drivers/STM32G4xx_HAL_Driver/Src/stm32g4xx_ll_usb.c ****           pmabuffer = ep->pmaaddr0;
 458:Drivers/STM32G4xx_HAL_Driver/Src/stm32g4xx_ll_usb.c **** 
 459:Drivers/STM32G4xx_HAL_Driver/Src/stm32g4xx_ll_usb.c ****           /* Write the user buffer to USB PMA */
 460:Drivers/STM32G4xx_HAL_Driver/Src/stm32g4xx_ll_usb.c ****           USB_WritePMA(USBx, ep->xfer_buff, pmabuffer, (uint16_t)len);
 461:Drivers/STM32G4xx_HAL_Driver/Src/stm32g4xx_ll_usb.c ****         }
 462:Drivers/STM32G4xx_HAL_Driver/Src/stm32g4xx_ll_usb.c ****       }/* end if bulk double buffer */
 463:Drivers/STM32G4xx_HAL_Driver/Src/stm32g4xx_ll_usb.c **** 
 464:Drivers/STM32G4xx_HAL_Driver/Src/stm32g4xx_ll_usb.c ****       /* manage isochronous double buffer IN mode */
 465:Drivers/STM32G4xx_HAL_Driver/Src/stm32g4xx_ll_usb.c ****       else
 466:Drivers/STM32G4xx_HAL_Driver/Src/stm32g4xx_ll_usb.c ****       {
 467:Drivers/STM32G4xx_HAL_Driver/Src/stm32g4xx_ll_usb.c ****         /* enable double buffer */
 468:Drivers/STM32G4xx_HAL_Driver/Src/stm32g4xx_ll_usb.c ****         PCD_SET_EP_DBUF(USBx, ep->num);
 469:Drivers/STM32G4xx_HAL_Driver/Src/stm32g4xx_ll_usb.c **** 
 470:Drivers/STM32G4xx_HAL_Driver/Src/stm32g4xx_ll_usb.c ****         /* each Time to write in PMA xfer_len_db will */
 471:Drivers/STM32G4xx_HAL_Driver/Src/stm32g4xx_ll_usb.c ****         ep->xfer_len_db -= len;
 472:Drivers/STM32G4xx_HAL_Driver/Src/stm32g4xx_ll_usb.c **** 
 473:Drivers/STM32G4xx_HAL_Driver/Src/stm32g4xx_ll_usb.c ****         /* Fill the data buffer */
 474:Drivers/STM32G4xx_HAL_Driver/Src/stm32g4xx_ll_usb.c ****         if ((PCD_GET_ENDPOINT(USBx, ep->num) & USB_EP_DTOG_TX) != 0U)
 475:Drivers/STM32G4xx_HAL_Driver/Src/stm32g4xx_ll_usb.c ****         {
 476:Drivers/STM32G4xx_HAL_Driver/Src/stm32g4xx_ll_usb.c ****           /* Set the Double buffer counter for pmabuffer1 */
 477:Drivers/STM32G4xx_HAL_Driver/Src/stm32g4xx_ll_usb.c ****           PCD_SET_EP_DBUF1_CNT(USBx, ep->num, ep->is_in, len);
 478:Drivers/STM32G4xx_HAL_Driver/Src/stm32g4xx_ll_usb.c ****           pmabuffer = ep->pmaaddr1;
 479:Drivers/STM32G4xx_HAL_Driver/Src/stm32g4xx_ll_usb.c **** 
 480:Drivers/STM32G4xx_HAL_Driver/Src/stm32g4xx_ll_usb.c ****           /* Write the user buffer to USB PMA */
 481:Drivers/STM32G4xx_HAL_Driver/Src/stm32g4xx_ll_usb.c ****           USB_WritePMA(USBx, ep->xfer_buff, pmabuffer, (uint16_t)len);
 482:Drivers/STM32G4xx_HAL_Driver/Src/stm32g4xx_ll_usb.c ****           ep->xfer_buff += len;
 483:Drivers/STM32G4xx_HAL_Driver/Src/stm32g4xx_ll_usb.c **** 
 484:Drivers/STM32G4xx_HAL_Driver/Src/stm32g4xx_ll_usb.c ****           if (ep->xfer_len_db > ep->maxpacket)
 485:Drivers/STM32G4xx_HAL_Driver/Src/stm32g4xx_ll_usb.c ****           {
 486:Drivers/STM32G4xx_HAL_Driver/Src/stm32g4xx_ll_usb.c ****             ep->xfer_len_db -= len;
 487:Drivers/STM32G4xx_HAL_Driver/Src/stm32g4xx_ll_usb.c ****           }
 488:Drivers/STM32G4xx_HAL_Driver/Src/stm32g4xx_ll_usb.c ****           else
 489:Drivers/STM32G4xx_HAL_Driver/Src/stm32g4xx_ll_usb.c ****           {
 490:Drivers/STM32G4xx_HAL_Driver/Src/stm32g4xx_ll_usb.c ****             len = ep->xfer_len_db;
ARM GAS  C:\Users\Jack2bs\AppData\Local\Temp\ccBBPckb.s 			page 38


 491:Drivers/STM32G4xx_HAL_Driver/Src/stm32g4xx_ll_usb.c ****             ep->xfer_len_db = 0U;
 492:Drivers/STM32G4xx_HAL_Driver/Src/stm32g4xx_ll_usb.c ****           }
 493:Drivers/STM32G4xx_HAL_Driver/Src/stm32g4xx_ll_usb.c **** 
 494:Drivers/STM32G4xx_HAL_Driver/Src/stm32g4xx_ll_usb.c ****           if (len > 0U)
 495:Drivers/STM32G4xx_HAL_Driver/Src/stm32g4xx_ll_usb.c ****           {
 496:Drivers/STM32G4xx_HAL_Driver/Src/stm32g4xx_ll_usb.c ****             /* Set the Double buffer counter for pmabuffer0 */
 497:Drivers/STM32G4xx_HAL_Driver/Src/stm32g4xx_ll_usb.c ****             PCD_SET_EP_DBUF0_CNT(USBx, ep->num, ep->is_in, len);
 498:Drivers/STM32G4xx_HAL_Driver/Src/stm32g4xx_ll_usb.c ****             pmabuffer = ep->pmaaddr0;
 499:Drivers/STM32G4xx_HAL_Driver/Src/stm32g4xx_ll_usb.c **** 
 500:Drivers/STM32G4xx_HAL_Driver/Src/stm32g4xx_ll_usb.c ****             /* Write the user buffer to USB PMA */
 501:Drivers/STM32G4xx_HAL_Driver/Src/stm32g4xx_ll_usb.c ****             USB_WritePMA(USBx, ep->xfer_buff, pmabuffer, (uint16_t)len);
 502:Drivers/STM32G4xx_HAL_Driver/Src/stm32g4xx_ll_usb.c ****           }
 503:Drivers/STM32G4xx_HAL_Driver/Src/stm32g4xx_ll_usb.c ****         }
 504:Drivers/STM32G4xx_HAL_Driver/Src/stm32g4xx_ll_usb.c ****         else
 505:Drivers/STM32G4xx_HAL_Driver/Src/stm32g4xx_ll_usb.c ****         {
 506:Drivers/STM32G4xx_HAL_Driver/Src/stm32g4xx_ll_usb.c ****           /* Set the Double buffer counter for pmabuffer0 */
 507:Drivers/STM32G4xx_HAL_Driver/Src/stm32g4xx_ll_usb.c ****           PCD_SET_EP_DBUF0_CNT(USBx, ep->num, ep->is_in, len);
 508:Drivers/STM32G4xx_HAL_Driver/Src/stm32g4xx_ll_usb.c ****           pmabuffer = ep->pmaaddr0;
 509:Drivers/STM32G4xx_HAL_Driver/Src/stm32g4xx_ll_usb.c **** 
 510:Drivers/STM32G4xx_HAL_Driver/Src/stm32g4xx_ll_usb.c ****           /* Write the user buffer to USB PMA */
 511:Drivers/STM32G4xx_HAL_Driver/Src/stm32g4xx_ll_usb.c ****           USB_WritePMA(USBx, ep->xfer_buff, pmabuffer, (uint16_t)len);
 512:Drivers/STM32G4xx_HAL_Driver/Src/stm32g4xx_ll_usb.c ****           ep->xfer_buff += len;
 513:Drivers/STM32G4xx_HAL_Driver/Src/stm32g4xx_ll_usb.c **** 
 514:Drivers/STM32G4xx_HAL_Driver/Src/stm32g4xx_ll_usb.c ****           if (ep->xfer_len_db > ep->maxpacket)
 515:Drivers/STM32G4xx_HAL_Driver/Src/stm32g4xx_ll_usb.c ****           {
 516:Drivers/STM32G4xx_HAL_Driver/Src/stm32g4xx_ll_usb.c ****             ep->xfer_len_db -= len;
 517:Drivers/STM32G4xx_HAL_Driver/Src/stm32g4xx_ll_usb.c ****           }
 518:Drivers/STM32G4xx_HAL_Driver/Src/stm32g4xx_ll_usb.c ****           else
 519:Drivers/STM32G4xx_HAL_Driver/Src/stm32g4xx_ll_usb.c ****           {
 520:Drivers/STM32G4xx_HAL_Driver/Src/stm32g4xx_ll_usb.c ****             len = ep->xfer_len_db;
 521:Drivers/STM32G4xx_HAL_Driver/Src/stm32g4xx_ll_usb.c ****             ep->xfer_len_db = 0U;
 522:Drivers/STM32G4xx_HAL_Driver/Src/stm32g4xx_ll_usb.c ****           }
 523:Drivers/STM32G4xx_HAL_Driver/Src/stm32g4xx_ll_usb.c **** 
 524:Drivers/STM32G4xx_HAL_Driver/Src/stm32g4xx_ll_usb.c ****           if (len > 0U)
 525:Drivers/STM32G4xx_HAL_Driver/Src/stm32g4xx_ll_usb.c ****           {
 526:Drivers/STM32G4xx_HAL_Driver/Src/stm32g4xx_ll_usb.c ****             /* Set the Double buffer counter for pmabuffer1 */
 527:Drivers/STM32G4xx_HAL_Driver/Src/stm32g4xx_ll_usb.c ****             PCD_SET_EP_DBUF1_CNT(USBx, ep->num, ep->is_in, len);
 528:Drivers/STM32G4xx_HAL_Driver/Src/stm32g4xx_ll_usb.c ****             pmabuffer = ep->pmaaddr1;
 529:Drivers/STM32G4xx_HAL_Driver/Src/stm32g4xx_ll_usb.c **** 
 530:Drivers/STM32G4xx_HAL_Driver/Src/stm32g4xx_ll_usb.c ****             /* Write the user buffer to USB PMA */
 531:Drivers/STM32G4xx_HAL_Driver/Src/stm32g4xx_ll_usb.c ****             USB_WritePMA(USBx, ep->xfer_buff, pmabuffer, (uint16_t)len);
 532:Drivers/STM32G4xx_HAL_Driver/Src/stm32g4xx_ll_usb.c ****           }
 533:Drivers/STM32G4xx_HAL_Driver/Src/stm32g4xx_ll_usb.c ****         }
 534:Drivers/STM32G4xx_HAL_Driver/Src/stm32g4xx_ll_usb.c ****       }
 535:Drivers/STM32G4xx_HAL_Driver/Src/stm32g4xx_ll_usb.c ****     }
 536:Drivers/STM32G4xx_HAL_Driver/Src/stm32g4xx_ll_usb.c **** 
 537:Drivers/STM32G4xx_HAL_Driver/Src/stm32g4xx_ll_usb.c ****     PCD_SET_EP_TX_STATUS(USBx, ep->num, USB_EP_TX_VALID);
 538:Drivers/STM32G4xx_HAL_Driver/Src/stm32g4xx_ll_usb.c ****   }
 539:Drivers/STM32G4xx_HAL_Driver/Src/stm32g4xx_ll_usb.c ****   else /* OUT endpoint */
 540:Drivers/STM32G4xx_HAL_Driver/Src/stm32g4xx_ll_usb.c ****   {
 541:Drivers/STM32G4xx_HAL_Driver/Src/stm32g4xx_ll_usb.c ****     if (ep->doublebuffer == 0U)
 542:Drivers/STM32G4xx_HAL_Driver/Src/stm32g4xx_ll_usb.c ****     {
 543:Drivers/STM32G4xx_HAL_Driver/Src/stm32g4xx_ll_usb.c ****       /* Multi packet transfer */
 544:Drivers/STM32G4xx_HAL_Driver/Src/stm32g4xx_ll_usb.c ****       if (ep->xfer_len > ep->maxpacket)
 545:Drivers/STM32G4xx_HAL_Driver/Src/stm32g4xx_ll_usb.c ****       {
 546:Drivers/STM32G4xx_HAL_Driver/Src/stm32g4xx_ll_usb.c ****         len = ep->maxpacket;
 547:Drivers/STM32G4xx_HAL_Driver/Src/stm32g4xx_ll_usb.c ****         ep->xfer_len -= len;
ARM GAS  C:\Users\Jack2bs\AppData\Local\Temp\ccBBPckb.s 			page 39


 548:Drivers/STM32G4xx_HAL_Driver/Src/stm32g4xx_ll_usb.c ****       }
 549:Drivers/STM32G4xx_HAL_Driver/Src/stm32g4xx_ll_usb.c ****       else
 550:Drivers/STM32G4xx_HAL_Driver/Src/stm32g4xx_ll_usb.c ****       {
 551:Drivers/STM32G4xx_HAL_Driver/Src/stm32g4xx_ll_usb.c ****         len = ep->xfer_len;
 552:Drivers/STM32G4xx_HAL_Driver/Src/stm32g4xx_ll_usb.c ****         ep->xfer_len = 0U;
 553:Drivers/STM32G4xx_HAL_Driver/Src/stm32g4xx_ll_usb.c ****       }
 554:Drivers/STM32G4xx_HAL_Driver/Src/stm32g4xx_ll_usb.c ****       /* configure and validate Rx endpoint */
 555:Drivers/STM32G4xx_HAL_Driver/Src/stm32g4xx_ll_usb.c ****       PCD_SET_EP_RX_CNT(USBx, ep->num, len);
 556:Drivers/STM32G4xx_HAL_Driver/Src/stm32g4xx_ll_usb.c ****     }
 557:Drivers/STM32G4xx_HAL_Driver/Src/stm32g4xx_ll_usb.c ****     else
 558:Drivers/STM32G4xx_HAL_Driver/Src/stm32g4xx_ll_usb.c ****     {
 559:Drivers/STM32G4xx_HAL_Driver/Src/stm32g4xx_ll_usb.c ****       /* First Transfer Coming From HAL_PCD_EP_Receive & From ISR */
 560:Drivers/STM32G4xx_HAL_Driver/Src/stm32g4xx_ll_usb.c ****       /* Set the Double buffer counter */
 561:Drivers/STM32G4xx_HAL_Driver/Src/stm32g4xx_ll_usb.c ****       if (ep->type == EP_TYPE_BULK)
 562:Drivers/STM32G4xx_HAL_Driver/Src/stm32g4xx_ll_usb.c ****       {
 563:Drivers/STM32G4xx_HAL_Driver/Src/stm32g4xx_ll_usb.c ****         PCD_SET_EP_DBUF_CNT(USBx, ep->num, ep->is_in, ep->maxpacket);
 564:Drivers/STM32G4xx_HAL_Driver/Src/stm32g4xx_ll_usb.c **** 
 565:Drivers/STM32G4xx_HAL_Driver/Src/stm32g4xx_ll_usb.c ****         /* Coming from ISR */
 566:Drivers/STM32G4xx_HAL_Driver/Src/stm32g4xx_ll_usb.c ****         if (ep->xfer_count != 0U)
 567:Drivers/STM32G4xx_HAL_Driver/Src/stm32g4xx_ll_usb.c ****         {
 568:Drivers/STM32G4xx_HAL_Driver/Src/stm32g4xx_ll_usb.c ****           /* update last value to check if there is blocking state */
 569:Drivers/STM32G4xx_HAL_Driver/Src/stm32g4xx_ll_usb.c ****           wEPVal = PCD_GET_ENDPOINT(USBx, ep->num);
 570:Drivers/STM32G4xx_HAL_Driver/Src/stm32g4xx_ll_usb.c **** 
 571:Drivers/STM32G4xx_HAL_Driver/Src/stm32g4xx_ll_usb.c ****           /*Blocking State */
 572:Drivers/STM32G4xx_HAL_Driver/Src/stm32g4xx_ll_usb.c ****           if ((((wEPVal & USB_EP_DTOG_RX) != 0U) && ((wEPVal & USB_EP_DTOG_TX) != 0U)) ||
 573:Drivers/STM32G4xx_HAL_Driver/Src/stm32g4xx_ll_usb.c ****               (((wEPVal & USB_EP_DTOG_RX) == 0U) && ((wEPVal & USB_EP_DTOG_TX) == 0U)))
 574:Drivers/STM32G4xx_HAL_Driver/Src/stm32g4xx_ll_usb.c ****           {
 575:Drivers/STM32G4xx_HAL_Driver/Src/stm32g4xx_ll_usb.c ****             PCD_FreeUserBuffer(USBx, ep->num, 0U);
 576:Drivers/STM32G4xx_HAL_Driver/Src/stm32g4xx_ll_usb.c ****           }
 577:Drivers/STM32G4xx_HAL_Driver/Src/stm32g4xx_ll_usb.c ****         }
 578:Drivers/STM32G4xx_HAL_Driver/Src/stm32g4xx_ll_usb.c ****       }
 579:Drivers/STM32G4xx_HAL_Driver/Src/stm32g4xx_ll_usb.c ****       /* iso out double */
 580:Drivers/STM32G4xx_HAL_Driver/Src/stm32g4xx_ll_usb.c ****       else if (ep->type == EP_TYPE_ISOC)
 581:Drivers/STM32G4xx_HAL_Driver/Src/stm32g4xx_ll_usb.c ****       {
 582:Drivers/STM32G4xx_HAL_Driver/Src/stm32g4xx_ll_usb.c ****         /* Multi packet transfer */
 583:Drivers/STM32G4xx_HAL_Driver/Src/stm32g4xx_ll_usb.c ****         if (ep->xfer_len > ep->maxpacket)
 584:Drivers/STM32G4xx_HAL_Driver/Src/stm32g4xx_ll_usb.c ****         {
 585:Drivers/STM32G4xx_HAL_Driver/Src/stm32g4xx_ll_usb.c ****           len = ep->maxpacket;
 586:Drivers/STM32G4xx_HAL_Driver/Src/stm32g4xx_ll_usb.c ****           ep->xfer_len -= len;
 587:Drivers/STM32G4xx_HAL_Driver/Src/stm32g4xx_ll_usb.c ****         }
 588:Drivers/STM32G4xx_HAL_Driver/Src/stm32g4xx_ll_usb.c ****         else
 589:Drivers/STM32G4xx_HAL_Driver/Src/stm32g4xx_ll_usb.c ****         {
 590:Drivers/STM32G4xx_HAL_Driver/Src/stm32g4xx_ll_usb.c ****           len = ep->xfer_len;
 591:Drivers/STM32G4xx_HAL_Driver/Src/stm32g4xx_ll_usb.c ****           ep->xfer_len = 0U;
 592:Drivers/STM32G4xx_HAL_Driver/Src/stm32g4xx_ll_usb.c ****         }
 593:Drivers/STM32G4xx_HAL_Driver/Src/stm32g4xx_ll_usb.c ****         PCD_SET_EP_DBUF_CNT(USBx, ep->num, ep->is_in, len);
 594:Drivers/STM32G4xx_HAL_Driver/Src/stm32g4xx_ll_usb.c ****       }
 595:Drivers/STM32G4xx_HAL_Driver/Src/stm32g4xx_ll_usb.c ****       else
 596:Drivers/STM32G4xx_HAL_Driver/Src/stm32g4xx_ll_usb.c ****       {
 597:Drivers/STM32G4xx_HAL_Driver/Src/stm32g4xx_ll_usb.c ****         return HAL_ERROR;
 598:Drivers/STM32G4xx_HAL_Driver/Src/stm32g4xx_ll_usb.c ****       }
 599:Drivers/STM32G4xx_HAL_Driver/Src/stm32g4xx_ll_usb.c ****     }
 600:Drivers/STM32G4xx_HAL_Driver/Src/stm32g4xx_ll_usb.c **** 
 601:Drivers/STM32G4xx_HAL_Driver/Src/stm32g4xx_ll_usb.c ****     PCD_SET_EP_RX_STATUS(USBx, ep->num, USB_EP_RX_VALID);
 602:Drivers/STM32G4xx_HAL_Driver/Src/stm32g4xx_ll_usb.c ****   }
 603:Drivers/STM32G4xx_HAL_Driver/Src/stm32g4xx_ll_usb.c **** 
 604:Drivers/STM32G4xx_HAL_Driver/Src/stm32g4xx_ll_usb.c ****   return HAL_OK;
ARM GAS  C:\Users\Jack2bs\AppData\Local\Temp\ccBBPckb.s 			page 40


 605:Drivers/STM32G4xx_HAL_Driver/Src/stm32g4xx_ll_usb.c **** }
 606:Drivers/STM32G4xx_HAL_Driver/Src/stm32g4xx_ll_usb.c **** 
 607:Drivers/STM32G4xx_HAL_Driver/Src/stm32g4xx_ll_usb.c **** 
 608:Drivers/STM32G4xx_HAL_Driver/Src/stm32g4xx_ll_usb.c **** /**
 609:Drivers/STM32G4xx_HAL_Driver/Src/stm32g4xx_ll_usb.c ****   * @brief  USB_EPSetStall set a stall condition over an EP
 610:Drivers/STM32G4xx_HAL_Driver/Src/stm32g4xx_ll_usb.c ****   * @param  USBx Selected device
 611:Drivers/STM32G4xx_HAL_Driver/Src/stm32g4xx_ll_usb.c ****   * @param  ep pointer to endpoint structure
 612:Drivers/STM32G4xx_HAL_Driver/Src/stm32g4xx_ll_usb.c ****   * @retval HAL status
 613:Drivers/STM32G4xx_HAL_Driver/Src/stm32g4xx_ll_usb.c ****   */
 614:Drivers/STM32G4xx_HAL_Driver/Src/stm32g4xx_ll_usb.c **** HAL_StatusTypeDef USB_EPSetStall(USB_TypeDef *USBx, USB_EPTypeDef *ep)
 615:Drivers/STM32G4xx_HAL_Driver/Src/stm32g4xx_ll_usb.c **** {
 1357              		.loc 1 615 1 is_stmt 1 view -0
 1358              		.cfi_startproc
 1359              		@ args = 0, pretend = 0, frame = 0
 1360              		@ frame_needed = 0, uses_anonymous_args = 0
 1361              		@ link register save eliminated.
 616:Drivers/STM32G4xx_HAL_Driver/Src/stm32g4xx_ll_usb.c ****   if (ep->is_in != 0U)
 1362              		.loc 1 616 3 view .LVU475
 1363              		.loc 1 616 9 is_stmt 0 view .LVU476
 1364 0000 4B78     		ldrb	r3, [r1, #1]	@ zero_extendqisi2
 1365              		.loc 1 616 6 view .LVU477
 1366 0002 8BB1     		cbz	r3, .L47
 617:Drivers/STM32G4xx_HAL_Driver/Src/stm32g4xx_ll_usb.c ****   {
 618:Drivers/STM32G4xx_HAL_Driver/Src/stm32g4xx_ll_usb.c ****     PCD_SET_EP_TX_STATUS(USBx, ep->num, USB_EP_TX_STALL);
 1367              		.loc 1 618 5 is_stmt 1 view .LVU478
 1368              	.LBB52:
 1369              		.loc 1 618 5 view .LVU479
 1370              		.loc 1 618 5 view .LVU480
 1371 0004 0A78     		ldrb	r2, [r1]	@ zero_extendqisi2
 1372 0006 30F82230 		ldrh	r3, [r0, r2, lsl #2]
 1373 000a 9BB2     		uxth	r3, r3
 1374 000c 23F4E043 		bic	r3, r3, #28672
 1375 0010 23F04003 		bic	r3, r3, #64
 1376              	.LVL146:
 1377              		.loc 1 618 5 view .LVU481
 1378              		.loc 1 618 5 view .LVU482
 1379 0014 83F01003 		eor	r3, r3, #16
 1380              	.LVL147:
 1381              		.loc 1 618 5 view .LVU483
 1382              		.loc 1 618 5 view .LVU484
 1383 0018 43F40043 		orr	r3, r3, #32768
 1384              	.LVL148:
 1385              		.loc 1 618 5 is_stmt 0 view .LVU485
 1386 001c 43F08003 		orr	r3, r3, #128
 1387 0020 20F82230 		strh	r3, [r0, r2, lsl #2]	@ movhi
 1388              	.LBE52:
 1389              		.loc 1 618 5 is_stmt 1 view .LVU486
 1390              	.L48:
 619:Drivers/STM32G4xx_HAL_Driver/Src/stm32g4xx_ll_usb.c ****   }
 620:Drivers/STM32G4xx_HAL_Driver/Src/stm32g4xx_ll_usb.c ****   else
 621:Drivers/STM32G4xx_HAL_Driver/Src/stm32g4xx_ll_usb.c ****   {
 622:Drivers/STM32G4xx_HAL_Driver/Src/stm32g4xx_ll_usb.c ****     PCD_SET_EP_RX_STATUS(USBx, ep->num, USB_EP_RX_STALL);
 1391              		.loc 1 622 5 discriminator 7 view .LVU487
 623:Drivers/STM32G4xx_HAL_Driver/Src/stm32g4xx_ll_usb.c ****   }
 624:Drivers/STM32G4xx_HAL_Driver/Src/stm32g4xx_ll_usb.c **** 
 625:Drivers/STM32G4xx_HAL_Driver/Src/stm32g4xx_ll_usb.c ****   return HAL_OK;
 1392              		.loc 1 625 3 discriminator 7 view .LVU488
ARM GAS  C:\Users\Jack2bs\AppData\Local\Temp\ccBBPckb.s 			page 41


 626:Drivers/STM32G4xx_HAL_Driver/Src/stm32g4xx_ll_usb.c **** }
 1393              		.loc 1 626 1 is_stmt 0 discriminator 7 view .LVU489
 1394 0024 0020     		movs	r0, #0
 1395              	.LVL149:
 1396              		.loc 1 626 1 discriminator 7 view .LVU490
 1397 0026 7047     		bx	lr
 1398              	.LVL150:
 1399              	.L47:
 622:Drivers/STM32G4xx_HAL_Driver/Src/stm32g4xx_ll_usb.c ****   }
 1400              		.loc 1 622 5 is_stmt 1 view .LVU491
 1401              	.LBB53:
 622:Drivers/STM32G4xx_HAL_Driver/Src/stm32g4xx_ll_usb.c ****   }
 1402              		.loc 1 622 5 view .LVU492
 622:Drivers/STM32G4xx_HAL_Driver/Src/stm32g4xx_ll_usb.c ****   }
 1403              		.loc 1 622 5 view .LVU493
 1404 0028 0A78     		ldrb	r2, [r1]	@ zero_extendqisi2
 1405 002a 30F82230 		ldrh	r3, [r0, r2, lsl #2]
 1406 002e 9BB2     		uxth	r3, r3
 1407 0030 23F48043 		bic	r3, r3, #16384
 1408 0034 23F07003 		bic	r3, r3, #112
 1409              	.LVL151:
 622:Drivers/STM32G4xx_HAL_Driver/Src/stm32g4xx_ll_usb.c ****   }
 1410              		.loc 1 622 5 view .LVU494
 622:Drivers/STM32G4xx_HAL_Driver/Src/stm32g4xx_ll_usb.c ****   }
 1411              		.loc 1 622 5 view .LVU495
 1412 0038 83F48053 		eor	r3, r3, #4096
 1413              	.LVL152:
 622:Drivers/STM32G4xx_HAL_Driver/Src/stm32g4xx_ll_usb.c ****   }
 1414              		.loc 1 622 5 view .LVU496
 622:Drivers/STM32G4xx_HAL_Driver/Src/stm32g4xx_ll_usb.c ****   }
 1415              		.loc 1 622 5 view .LVU497
 1416 003c 43F40043 		orr	r3, r3, #32768
 1417              	.LVL153:
 622:Drivers/STM32G4xx_HAL_Driver/Src/stm32g4xx_ll_usb.c ****   }
 1418              		.loc 1 622 5 is_stmt 0 view .LVU498
 1419 0040 43F08003 		orr	r3, r3, #128
 1420 0044 20F82230 		strh	r3, [r0, r2, lsl #2]	@ movhi
 1421 0048 ECE7     		b	.L48
 1422              	.LBE53:
 1423              		.cfi_endproc
 1424              	.LFE140:
 1426              		.section	.text.USB_EPClearStall,"ax",%progbits
 1427              		.align	1
 1428              		.global	USB_EPClearStall
 1429              		.syntax unified
 1430              		.thumb
 1431              		.thumb_func
 1432              		.fpu fpv4-sp-d16
 1434              	USB_EPClearStall:
 1435              	.LVL154:
 1436              	.LFB141:
 627:Drivers/STM32G4xx_HAL_Driver/Src/stm32g4xx_ll_usb.c **** 
 628:Drivers/STM32G4xx_HAL_Driver/Src/stm32g4xx_ll_usb.c **** /**
 629:Drivers/STM32G4xx_HAL_Driver/Src/stm32g4xx_ll_usb.c ****   * @brief  USB_EPClearStall Clear a stall condition over an EP
 630:Drivers/STM32G4xx_HAL_Driver/Src/stm32g4xx_ll_usb.c ****   * @param  USBx Selected device
 631:Drivers/STM32G4xx_HAL_Driver/Src/stm32g4xx_ll_usb.c ****   * @param  ep pointer to endpoint structure
 632:Drivers/STM32G4xx_HAL_Driver/Src/stm32g4xx_ll_usb.c ****   * @retval HAL status
ARM GAS  C:\Users\Jack2bs\AppData\Local\Temp\ccBBPckb.s 			page 42


 633:Drivers/STM32G4xx_HAL_Driver/Src/stm32g4xx_ll_usb.c ****   */
 634:Drivers/STM32G4xx_HAL_Driver/Src/stm32g4xx_ll_usb.c **** HAL_StatusTypeDef USB_EPClearStall(USB_TypeDef *USBx, USB_EPTypeDef *ep)
 635:Drivers/STM32G4xx_HAL_Driver/Src/stm32g4xx_ll_usb.c **** {
 1437              		.loc 1 635 1 is_stmt 1 view -0
 1438              		.cfi_startproc
 1439              		@ args = 0, pretend = 0, frame = 0
 1440              		@ frame_needed = 0, uses_anonymous_args = 0
 1441              		@ link register save eliminated.
 636:Drivers/STM32G4xx_HAL_Driver/Src/stm32g4xx_ll_usb.c ****   if (ep->doublebuffer == 0U)
 1442              		.loc 1 636 3 view .LVU500
 1443              		.loc 1 636 9 is_stmt 0 view .LVU501
 1444 0000 0B7B     		ldrb	r3, [r1, #12]	@ zero_extendqisi2
 1445              		.loc 1 636 6 view .LVU502
 1446 0002 002B     		cmp	r3, #0
 1447 0004 4BD1     		bne	.L50
 637:Drivers/STM32G4xx_HAL_Driver/Src/stm32g4xx_ll_usb.c ****   {
 638:Drivers/STM32G4xx_HAL_Driver/Src/stm32g4xx_ll_usb.c ****     if (ep->is_in != 0U)
 1448              		.loc 1 638 5 is_stmt 1 view .LVU503
 1449              		.loc 1 638 11 is_stmt 0 view .LVU504
 1450 0006 4B78     		ldrb	r3, [r1, #1]	@ zero_extendqisi2
 1451              		.loc 1 638 8 view .LVU505
 1452 0008 33B3     		cbz	r3, .L51
 639:Drivers/STM32G4xx_HAL_Driver/Src/stm32g4xx_ll_usb.c ****     {
 640:Drivers/STM32G4xx_HAL_Driver/Src/stm32g4xx_ll_usb.c ****       PCD_CLEAR_TX_DTOG(USBx, ep->num);
 1453              		.loc 1 640 7 is_stmt 1 view .LVU506
 1454              	.LBB54:
 1455              		.loc 1 640 7 view .LVU507
 1456              		.loc 1 640 7 view .LVU508
 1457 000a 0A78     		ldrb	r2, [r1]	@ zero_extendqisi2
 1458 000c 30F82230 		ldrh	r3, [r0, r2, lsl #2]
 1459              	.LVL155:
 1460              		.loc 1 640 7 view .LVU509
 1461 0010 13F0400F 		tst	r3, #64
 1462 0014 0CD0     		beq	.L52
 1463              		.loc 1 640 7 discriminator 1 view .LVU510
 1464              	.LBB55:
 1465              		.loc 1 640 7 discriminator 1 view .LVU511
 1466              		.loc 1 640 7 discriminator 1 view .LVU512
 1467 0016 30F82230 		ldrh	r3, [r0, r2, lsl #2]
 1468              	.LVL156:
 1469              		.loc 1 640 7 is_stmt 0 discriminator 1 view .LVU513
 1470 001a 9BB2     		uxth	r3, r3
 1471 001c 23F4E043 		bic	r3, r3, #28672
 1472 0020 23F07003 		bic	r3, r3, #112
 1473              	.LVL157:
 1474              		.loc 1 640 7 is_stmt 1 discriminator 1 view .LVU514
 1475 0024 43F40043 		orr	r3, r3, #32768
 1476              	.LVL158:
 1477              		.loc 1 640 7 is_stmt 0 discriminator 1 view .LVU515
 1478 0028 43F0C003 		orr	r3, r3, #192
 1479 002c 20F82230 		strh	r3, [r0, r2, lsl #2]	@ movhi
 1480              	.L52:
 1481              		.loc 1 640 7 discriminator 1 view .LVU516
 1482              	.LBE55:
 1483              		.loc 1 640 7 is_stmt 1 discriminator 3 view .LVU517
 1484              	.LBE54:
 1485              		.loc 1 640 7 discriminator 3 view .LVU518
ARM GAS  C:\Users\Jack2bs\AppData\Local\Temp\ccBBPckb.s 			page 43


 641:Drivers/STM32G4xx_HAL_Driver/Src/stm32g4xx_ll_usb.c **** 
 642:Drivers/STM32G4xx_HAL_Driver/Src/stm32g4xx_ll_usb.c ****       if (ep->type != EP_TYPE_ISOC)
 1486              		.loc 1 642 7 discriminator 3 view .LVU519
 1487              		.loc 1 642 13 is_stmt 0 discriminator 3 view .LVU520
 1488 0030 CB78     		ldrb	r3, [r1, #3]	@ zero_extendqisi2
 1489              		.loc 1 642 10 discriminator 3 view .LVU521
 1490 0032 012B     		cmp	r3, #1
 1491 0034 33D0     		beq	.L50
 643:Drivers/STM32G4xx_HAL_Driver/Src/stm32g4xx_ll_usb.c ****       {
 644:Drivers/STM32G4xx_HAL_Driver/Src/stm32g4xx_ll_usb.c ****         /* Configure NAK status for the Endpoint */
 645:Drivers/STM32G4xx_HAL_Driver/Src/stm32g4xx_ll_usb.c ****         PCD_SET_EP_TX_STATUS(USBx, ep->num, USB_EP_TX_NAK);
 1492              		.loc 1 645 9 is_stmt 1 view .LVU522
 1493              	.LBB56:
 1494              		.loc 1 645 9 view .LVU523
 1495              		.loc 1 645 9 view .LVU524
 1496 0036 0A78     		ldrb	r2, [r1]	@ zero_extendqisi2
 1497 0038 30F82230 		ldrh	r3, [r0, r2, lsl #2]
 1498 003c 9BB2     		uxth	r3, r3
 1499 003e 23F4E043 		bic	r3, r3, #28672
 1500 0042 23F04003 		bic	r3, r3, #64
 1501              	.LVL159:
 1502              		.loc 1 645 9 view .LVU525
 1503              		.loc 1 645 9 view .LVU526
 1504              		.loc 1 645 9 view .LVU527
 1505 0046 83F02003 		eor	r3, r3, #32
 1506              	.LVL160:
 1507              		.loc 1 645 9 view .LVU528
 1508 004a 43F40043 		orr	r3, r3, #32768
 1509              	.LVL161:
 1510              		.loc 1 645 9 is_stmt 0 view .LVU529
 1511 004e 43F08003 		orr	r3, r3, #128
 1512 0052 20F82230 		strh	r3, [r0, r2, lsl #2]	@ movhi
 1513 0056 22E0     		b	.L50
 1514              	.L51:
 1515              		.loc 1 645 9 view .LVU530
 1516              	.LBE56:
 646:Drivers/STM32G4xx_HAL_Driver/Src/stm32g4xx_ll_usb.c ****       }
 647:Drivers/STM32G4xx_HAL_Driver/Src/stm32g4xx_ll_usb.c ****     }
 648:Drivers/STM32G4xx_HAL_Driver/Src/stm32g4xx_ll_usb.c ****     else
 649:Drivers/STM32G4xx_HAL_Driver/Src/stm32g4xx_ll_usb.c ****     {
 650:Drivers/STM32G4xx_HAL_Driver/Src/stm32g4xx_ll_usb.c ****       PCD_CLEAR_RX_DTOG(USBx, ep->num);
 1517              		.loc 1 650 7 is_stmt 1 view .LVU531
 1518              	.LBB57:
 1519              		.loc 1 650 7 view .LVU532
 1520              		.loc 1 650 7 view .LVU533
 1521 0058 0A78     		ldrb	r2, [r1]	@ zero_extendqisi2
 1522 005a 30F82230 		ldrh	r3, [r0, r2, lsl #2]
 1523              	.LVL162:
 1524              		.loc 1 650 7 view .LVU534
 1525 005e 13F4804F 		tst	r3, #16384
 1526 0062 0CD0     		beq	.L53
 1527              		.loc 1 650 7 discriminator 1 view .LVU535
 1528              	.LBB58:
 1529              		.loc 1 650 7 discriminator 1 view .LVU536
 1530              		.loc 1 650 7 discriminator 1 view .LVU537
 1531 0064 30F82230 		ldrh	r3, [r0, r2, lsl #2]
 1532              	.LVL163:
ARM GAS  C:\Users\Jack2bs\AppData\Local\Temp\ccBBPckb.s 			page 44


 1533              		.loc 1 650 7 is_stmt 0 discriminator 1 view .LVU538
 1534 0068 9BB2     		uxth	r3, r3
 1535 006a 23F4E043 		bic	r3, r3, #28672
 1536 006e 23F07003 		bic	r3, r3, #112
 1537              	.LVL164:
 1538              		.loc 1 650 7 is_stmt 1 discriminator 1 view .LVU539
 1539 0072 43F44043 		orr	r3, r3, #49152
 1540              	.LVL165:
 1541              		.loc 1 650 7 is_stmt 0 discriminator 1 view .LVU540
 1542 0076 43F08003 		orr	r3, r3, #128
 1543 007a 20F82230 		strh	r3, [r0, r2, lsl #2]	@ movhi
 1544              	.L53:
 1545              		.loc 1 650 7 discriminator 1 view .LVU541
 1546              	.LBE58:
 1547              		.loc 1 650 7 is_stmt 1 discriminator 3 view .LVU542
 1548              	.LBE57:
 1549              		.loc 1 650 7 discriminator 3 view .LVU543
 651:Drivers/STM32G4xx_HAL_Driver/Src/stm32g4xx_ll_usb.c **** 
 652:Drivers/STM32G4xx_HAL_Driver/Src/stm32g4xx_ll_usb.c ****       /* Configure VALID status for the Endpoint */
 653:Drivers/STM32G4xx_HAL_Driver/Src/stm32g4xx_ll_usb.c ****       PCD_SET_EP_RX_STATUS(USBx, ep->num, USB_EP_RX_VALID);
 1550              		.loc 1 653 7 discriminator 3 view .LVU544
 1551              	.LBB59:
 1552              		.loc 1 653 7 discriminator 3 view .LVU545
 1553              		.loc 1 653 7 discriminator 3 view .LVU546
 1554 007e 0A78     		ldrb	r2, [r1]	@ zero_extendqisi2
 1555 0080 30F82230 		ldrh	r3, [r0, r2, lsl #2]
 1556 0084 9BB2     		uxth	r3, r3
 1557 0086 23F48043 		bic	r3, r3, #16384
 1558 008a 23F07003 		bic	r3, r3, #112
 1559              	.LVL166:
 1560              		.loc 1 653 7 discriminator 3 view .LVU547
 1561              		.loc 1 653 7 discriminator 3 view .LVU548
 1562              		.loc 1 653 7 discriminator 3 view .LVU549
 1563              		.loc 1 653 7 discriminator 3 view .LVU550
 1564 008e 83F44053 		eor	r3, r3, #12288
 1565              	.LVL167:
 1566              		.loc 1 653 7 discriminator 3 view .LVU551
 1567 0092 43F40043 		orr	r3, r3, #32768
 1568              	.LVL168:
 1569              		.loc 1 653 7 is_stmt 0 discriminator 3 view .LVU552
 1570 0096 43F08003 		orr	r3, r3, #128
 1571 009a 20F82230 		strh	r3, [r0, r2, lsl #2]	@ movhi
 1572              	.L50:
 1573              		.loc 1 653 7 discriminator 3 view .LVU553
 1574              	.LBE59:
 1575              		.loc 1 653 7 is_stmt 1 discriminator 7 view .LVU554
 654:Drivers/STM32G4xx_HAL_Driver/Src/stm32g4xx_ll_usb.c ****     }
 655:Drivers/STM32G4xx_HAL_Driver/Src/stm32g4xx_ll_usb.c ****   }
 656:Drivers/STM32G4xx_HAL_Driver/Src/stm32g4xx_ll_usb.c **** 
 657:Drivers/STM32G4xx_HAL_Driver/Src/stm32g4xx_ll_usb.c ****   return HAL_OK;
 1576              		.loc 1 657 3 discriminator 7 view .LVU555
 658:Drivers/STM32G4xx_HAL_Driver/Src/stm32g4xx_ll_usb.c **** }
 1577              		.loc 1 658 1 is_stmt 0 discriminator 7 view .LVU556
 1578 009e 0020     		movs	r0, #0
 1579              	.LVL169:
 1580              		.loc 1 658 1 discriminator 7 view .LVU557
 1581 00a0 7047     		bx	lr
ARM GAS  C:\Users\Jack2bs\AppData\Local\Temp\ccBBPckb.s 			page 45


 1582              		.cfi_endproc
 1583              	.LFE141:
 1585              		.section	.text.USB_StopDevice,"ax",%progbits
 1586              		.align	1
 1587              		.global	USB_StopDevice
 1588              		.syntax unified
 1589              		.thumb
 1590              		.thumb_func
 1591              		.fpu fpv4-sp-d16
 1593              	USB_StopDevice:
 1594              	.LVL170:
 1595              	.LFB142:
 659:Drivers/STM32G4xx_HAL_Driver/Src/stm32g4xx_ll_usb.c **** #endif
 660:Drivers/STM32G4xx_HAL_Driver/Src/stm32g4xx_ll_usb.c **** 
 661:Drivers/STM32G4xx_HAL_Driver/Src/stm32g4xx_ll_usb.c **** /**
 662:Drivers/STM32G4xx_HAL_Driver/Src/stm32g4xx_ll_usb.c ****   * @brief  USB_StopDevice Stop the usb device mode
 663:Drivers/STM32G4xx_HAL_Driver/Src/stm32g4xx_ll_usb.c ****   * @param  USBx Selected device
 664:Drivers/STM32G4xx_HAL_Driver/Src/stm32g4xx_ll_usb.c ****   * @retval HAL status
 665:Drivers/STM32G4xx_HAL_Driver/Src/stm32g4xx_ll_usb.c ****   */
 666:Drivers/STM32G4xx_HAL_Driver/Src/stm32g4xx_ll_usb.c **** HAL_StatusTypeDef USB_StopDevice(USB_TypeDef *USBx)
 667:Drivers/STM32G4xx_HAL_Driver/Src/stm32g4xx_ll_usb.c **** {
 1596              		.loc 1 667 1 is_stmt 1 view -0
 1597              		.cfi_startproc
 1598              		@ args = 0, pretend = 0, frame = 0
 1599              		@ frame_needed = 0, uses_anonymous_args = 0
 1600              		@ link register save eliminated.
 1601              		.loc 1 667 1 is_stmt 0 view .LVU559
 1602 0000 0346     		mov	r3, r0
 668:Drivers/STM32G4xx_HAL_Driver/Src/stm32g4xx_ll_usb.c ****   /* disable all interrupts and force USB reset */
 669:Drivers/STM32G4xx_HAL_Driver/Src/stm32g4xx_ll_usb.c ****   USBx->CNTR = (uint16_t)USB_CNTR_FRES;
 1603              		.loc 1 669 3 is_stmt 1 view .LVU560
 1604              		.loc 1 669 14 is_stmt 0 view .LVU561
 1605 0002 0122     		movs	r2, #1
 1606 0004 A0F84020 		strh	r2, [r0, #64]	@ movhi
 670:Drivers/STM32G4xx_HAL_Driver/Src/stm32g4xx_ll_usb.c **** 
 671:Drivers/STM32G4xx_HAL_Driver/Src/stm32g4xx_ll_usb.c ****   /* clear interrupt status register */
 672:Drivers/STM32G4xx_HAL_Driver/Src/stm32g4xx_ll_usb.c ****   USBx->ISTR = 0U;
 1607              		.loc 1 672 3 is_stmt 1 view .LVU562
 1608              		.loc 1 672 14 is_stmt 0 view .LVU563
 1609 0008 0020     		movs	r0, #0
 1610              	.LVL171:
 1611              		.loc 1 672 14 view .LVU564
 1612 000a A3F84400 		strh	r0, [r3, #68]	@ movhi
 673:Drivers/STM32G4xx_HAL_Driver/Src/stm32g4xx_ll_usb.c **** 
 674:Drivers/STM32G4xx_HAL_Driver/Src/stm32g4xx_ll_usb.c ****   /* switch-off device */
 675:Drivers/STM32G4xx_HAL_Driver/Src/stm32g4xx_ll_usb.c ****   USBx->CNTR = (uint16_t)(USB_CNTR_FRES | USB_CNTR_PDWN);
 1613              		.loc 1 675 3 is_stmt 1 view .LVU565
 1614              		.loc 1 675 14 is_stmt 0 view .LVU566
 1615 000e 0322     		movs	r2, #3
 1616 0010 A3F84020 		strh	r2, [r3, #64]	@ movhi
 676:Drivers/STM32G4xx_HAL_Driver/Src/stm32g4xx_ll_usb.c **** 
 677:Drivers/STM32G4xx_HAL_Driver/Src/stm32g4xx_ll_usb.c ****   return HAL_OK;
 1617              		.loc 1 677 3 is_stmt 1 view .LVU567
 678:Drivers/STM32G4xx_HAL_Driver/Src/stm32g4xx_ll_usb.c **** }
 1618              		.loc 1 678 1 is_stmt 0 view .LVU568
 1619 0014 7047     		bx	lr
 1620              		.cfi_endproc
ARM GAS  C:\Users\Jack2bs\AppData\Local\Temp\ccBBPckb.s 			page 46


 1621              	.LFE142:
 1623              		.section	.text.USB_SetDevAddress,"ax",%progbits
 1624              		.align	1
 1625              		.global	USB_SetDevAddress
 1626              		.syntax unified
 1627              		.thumb
 1628              		.thumb_func
 1629              		.fpu fpv4-sp-d16
 1631              	USB_SetDevAddress:
 1632              	.LVL172:
 1633              	.LFB143:
 679:Drivers/STM32G4xx_HAL_Driver/Src/stm32g4xx_ll_usb.c **** 
 680:Drivers/STM32G4xx_HAL_Driver/Src/stm32g4xx_ll_usb.c **** /**
 681:Drivers/STM32G4xx_HAL_Driver/Src/stm32g4xx_ll_usb.c ****   * @brief  USB_SetDevAddress Stop the usb device mode
 682:Drivers/STM32G4xx_HAL_Driver/Src/stm32g4xx_ll_usb.c ****   * @param  USBx Selected device
 683:Drivers/STM32G4xx_HAL_Driver/Src/stm32g4xx_ll_usb.c ****   * @param  address new device address to be assigned
 684:Drivers/STM32G4xx_HAL_Driver/Src/stm32g4xx_ll_usb.c ****   *          This parameter can be a value from 0 to 255
 685:Drivers/STM32G4xx_HAL_Driver/Src/stm32g4xx_ll_usb.c ****   * @retval HAL status
 686:Drivers/STM32G4xx_HAL_Driver/Src/stm32g4xx_ll_usb.c ****   */
 687:Drivers/STM32G4xx_HAL_Driver/Src/stm32g4xx_ll_usb.c **** HAL_StatusTypeDef  USB_SetDevAddress(USB_TypeDef *USBx, uint8_t address)
 688:Drivers/STM32G4xx_HAL_Driver/Src/stm32g4xx_ll_usb.c **** {
 1634              		.loc 1 688 1 is_stmt 1 view -0
 1635              		.cfi_startproc
 1636              		@ args = 0, pretend = 0, frame = 0
 1637              		@ frame_needed = 0, uses_anonymous_args = 0
 1638              		@ link register save eliminated.
 689:Drivers/STM32G4xx_HAL_Driver/Src/stm32g4xx_ll_usb.c ****   if (address == 0U)
 1639              		.loc 1 689 3 view .LVU570
 1640              		.loc 1 689 6 is_stmt 0 view .LVU571
 1641 0000 11B9     		cbnz	r1, .L56
 690:Drivers/STM32G4xx_HAL_Driver/Src/stm32g4xx_ll_usb.c ****   {
 691:Drivers/STM32G4xx_HAL_Driver/Src/stm32g4xx_ll_usb.c ****     /* set device address and enable function */
 692:Drivers/STM32G4xx_HAL_Driver/Src/stm32g4xx_ll_usb.c ****     USBx->DADDR = (uint16_t)USB_DADDR_EF;
 1642              		.loc 1 692 5 is_stmt 1 view .LVU572
 1643              		.loc 1 692 17 is_stmt 0 view .LVU573
 1644 0002 8023     		movs	r3, #128
 1645 0004 A0F84C30 		strh	r3, [r0, #76]	@ movhi
 1646              	.L56:
 693:Drivers/STM32G4xx_HAL_Driver/Src/stm32g4xx_ll_usb.c ****   }
 694:Drivers/STM32G4xx_HAL_Driver/Src/stm32g4xx_ll_usb.c **** 
 695:Drivers/STM32G4xx_HAL_Driver/Src/stm32g4xx_ll_usb.c ****   return HAL_OK;
 1647              		.loc 1 695 3 is_stmt 1 view .LVU574
 696:Drivers/STM32G4xx_HAL_Driver/Src/stm32g4xx_ll_usb.c **** }
 1648              		.loc 1 696 1 is_stmt 0 view .LVU575
 1649 0008 0020     		movs	r0, #0
 1650              	.LVL173:
 1651              		.loc 1 696 1 view .LVU576
 1652 000a 7047     		bx	lr
 1653              		.cfi_endproc
 1654              	.LFE143:
 1656              		.section	.text.USB_DevConnect,"ax",%progbits
 1657              		.align	1
 1658              		.global	USB_DevConnect
 1659              		.syntax unified
 1660              		.thumb
 1661              		.thumb_func
 1662              		.fpu fpv4-sp-d16
ARM GAS  C:\Users\Jack2bs\AppData\Local\Temp\ccBBPckb.s 			page 47


 1664              	USB_DevConnect:
 1665              	.LVL174:
 1666              	.LFB144:
 697:Drivers/STM32G4xx_HAL_Driver/Src/stm32g4xx_ll_usb.c **** 
 698:Drivers/STM32G4xx_HAL_Driver/Src/stm32g4xx_ll_usb.c **** /**
 699:Drivers/STM32G4xx_HAL_Driver/Src/stm32g4xx_ll_usb.c ****   * @brief  USB_DevConnect Connect the USB device by enabling the pull-up/pull-down
 700:Drivers/STM32G4xx_HAL_Driver/Src/stm32g4xx_ll_usb.c ****   * @param  USBx Selected device
 701:Drivers/STM32G4xx_HAL_Driver/Src/stm32g4xx_ll_usb.c ****   * @retval HAL status
 702:Drivers/STM32G4xx_HAL_Driver/Src/stm32g4xx_ll_usb.c ****   */
 703:Drivers/STM32G4xx_HAL_Driver/Src/stm32g4xx_ll_usb.c **** HAL_StatusTypeDef  USB_DevConnect(USB_TypeDef *USBx)
 704:Drivers/STM32G4xx_HAL_Driver/Src/stm32g4xx_ll_usb.c **** {
 1667              		.loc 1 704 1 is_stmt 1 view -0
 1668              		.cfi_startproc
 1669              		@ args = 0, pretend = 0, frame = 0
 1670              		@ frame_needed = 0, uses_anonymous_args = 0
 1671              		@ link register save eliminated.
 705:Drivers/STM32G4xx_HAL_Driver/Src/stm32g4xx_ll_usb.c ****   /* Enabling DP Pull-UP bit to Connect internal PU resistor on USB DP line */
 706:Drivers/STM32G4xx_HAL_Driver/Src/stm32g4xx_ll_usb.c ****   USBx->BCDR |= (uint16_t)USB_BCDR_DPPU;
 1672              		.loc 1 706 3 view .LVU578
 1673              		.loc 1 706 14 is_stmt 0 view .LVU579
 1674 0000 B0F85830 		ldrh	r3, [r0, #88]
 1675 0004 6FEA4343 		mvn	r3, r3, lsl #17
 1676 0008 6FEA5343 		mvn	r3, r3, lsr #17
 1677 000c 9BB2     		uxth	r3, r3
 1678 000e A0F85830 		strh	r3, [r0, #88]	@ movhi
 707:Drivers/STM32G4xx_HAL_Driver/Src/stm32g4xx_ll_usb.c **** 
 708:Drivers/STM32G4xx_HAL_Driver/Src/stm32g4xx_ll_usb.c ****   return HAL_OK;
 1679              		.loc 1 708 3 is_stmt 1 view .LVU580
 709:Drivers/STM32G4xx_HAL_Driver/Src/stm32g4xx_ll_usb.c **** }
 1680              		.loc 1 709 1 is_stmt 0 view .LVU581
 1681 0012 0020     		movs	r0, #0
 1682              	.LVL175:
 1683              		.loc 1 709 1 view .LVU582
 1684 0014 7047     		bx	lr
 1685              		.cfi_endproc
 1686              	.LFE144:
 1688              		.section	.text.USB_DevDisconnect,"ax",%progbits
 1689              		.align	1
 1690              		.global	USB_DevDisconnect
 1691              		.syntax unified
 1692              		.thumb
 1693              		.thumb_func
 1694              		.fpu fpv4-sp-d16
 1696              	USB_DevDisconnect:
 1697              	.LVL176:
 1698              	.LFB145:
 710:Drivers/STM32G4xx_HAL_Driver/Src/stm32g4xx_ll_usb.c **** 
 711:Drivers/STM32G4xx_HAL_Driver/Src/stm32g4xx_ll_usb.c **** /**
 712:Drivers/STM32G4xx_HAL_Driver/Src/stm32g4xx_ll_usb.c ****   * @brief  USB_DevDisconnect Disconnect the USB device by disabling the pull-up/pull-down
 713:Drivers/STM32G4xx_HAL_Driver/Src/stm32g4xx_ll_usb.c ****   * @param  USBx Selected device
 714:Drivers/STM32G4xx_HAL_Driver/Src/stm32g4xx_ll_usb.c ****   * @retval HAL status
 715:Drivers/STM32G4xx_HAL_Driver/Src/stm32g4xx_ll_usb.c ****   */
 716:Drivers/STM32G4xx_HAL_Driver/Src/stm32g4xx_ll_usb.c **** HAL_StatusTypeDef  USB_DevDisconnect(USB_TypeDef *USBx)
 717:Drivers/STM32G4xx_HAL_Driver/Src/stm32g4xx_ll_usb.c **** {
 1699              		.loc 1 717 1 is_stmt 1 view -0
 1700              		.cfi_startproc
 1701              		@ args = 0, pretend = 0, frame = 0
ARM GAS  C:\Users\Jack2bs\AppData\Local\Temp\ccBBPckb.s 			page 48


 1702              		@ frame_needed = 0, uses_anonymous_args = 0
 1703              		@ link register save eliminated.
 718:Drivers/STM32G4xx_HAL_Driver/Src/stm32g4xx_ll_usb.c ****   /* Disable DP Pull-Up bit to disconnect the Internal PU resistor on USB DP line */
 719:Drivers/STM32G4xx_HAL_Driver/Src/stm32g4xx_ll_usb.c ****   USBx->BCDR &= (uint16_t)(~(USB_BCDR_DPPU));
 1704              		.loc 1 719 3 view .LVU584
 1705              		.loc 1 719 14 is_stmt 0 view .LVU585
 1706 0000 B0F85830 		ldrh	r3, [r0, #88]
 1707 0004 C3F30E03 		ubfx	r3, r3, #0, #15
 1708 0008 A0F85830 		strh	r3, [r0, #88]	@ movhi
 720:Drivers/STM32G4xx_HAL_Driver/Src/stm32g4xx_ll_usb.c **** 
 721:Drivers/STM32G4xx_HAL_Driver/Src/stm32g4xx_ll_usb.c ****   return HAL_OK;
 1709              		.loc 1 721 3 is_stmt 1 view .LVU586
 722:Drivers/STM32G4xx_HAL_Driver/Src/stm32g4xx_ll_usb.c **** }
 1710              		.loc 1 722 1 is_stmt 0 view .LVU587
 1711 000c 0020     		movs	r0, #0
 1712              	.LVL177:
 1713              		.loc 1 722 1 view .LVU588
 1714 000e 7047     		bx	lr
 1715              		.cfi_endproc
 1716              	.LFE145:
 1718              		.section	.text.USB_ReadInterrupts,"ax",%progbits
 1719              		.align	1
 1720              		.global	USB_ReadInterrupts
 1721              		.syntax unified
 1722              		.thumb
 1723              		.thumb_func
 1724              		.fpu fpv4-sp-d16
 1726              	USB_ReadInterrupts:
 1727              	.LVL178:
 1728              	.LFB146:
 723:Drivers/STM32G4xx_HAL_Driver/Src/stm32g4xx_ll_usb.c **** 
 724:Drivers/STM32G4xx_HAL_Driver/Src/stm32g4xx_ll_usb.c **** /**
 725:Drivers/STM32G4xx_HAL_Driver/Src/stm32g4xx_ll_usb.c ****   * @brief  USB_ReadInterrupts return the global USB interrupt status
 726:Drivers/STM32G4xx_HAL_Driver/Src/stm32g4xx_ll_usb.c ****   * @param  USBx Selected device
 727:Drivers/STM32G4xx_HAL_Driver/Src/stm32g4xx_ll_usb.c ****   * @retval HAL status
 728:Drivers/STM32G4xx_HAL_Driver/Src/stm32g4xx_ll_usb.c ****   */
 729:Drivers/STM32G4xx_HAL_Driver/Src/stm32g4xx_ll_usb.c **** uint32_t  USB_ReadInterrupts(USB_TypeDef *USBx)
 730:Drivers/STM32G4xx_HAL_Driver/Src/stm32g4xx_ll_usb.c **** {
 1729              		.loc 1 730 1 is_stmt 1 view -0
 1730              		.cfi_startproc
 1731              		@ args = 0, pretend = 0, frame = 0
 1732              		@ frame_needed = 0, uses_anonymous_args = 0
 1733              		@ link register save eliminated.
 731:Drivers/STM32G4xx_HAL_Driver/Src/stm32g4xx_ll_usb.c ****   uint32_t tmpreg;
 1734              		.loc 1 731 3 view .LVU590
 732:Drivers/STM32G4xx_HAL_Driver/Src/stm32g4xx_ll_usb.c **** 
 733:Drivers/STM32G4xx_HAL_Driver/Src/stm32g4xx_ll_usb.c ****   tmpreg = USBx->ISTR;
 1735              		.loc 1 733 3 view .LVU591
 1736              		.loc 1 733 16 is_stmt 0 view .LVU592
 1737 0000 B0F84400 		ldrh	r0, [r0, #68]
 1738              	.LVL179:
 734:Drivers/STM32G4xx_HAL_Driver/Src/stm32g4xx_ll_usb.c ****   return tmpreg;
 1739              		.loc 1 734 3 is_stmt 1 view .LVU593
 735:Drivers/STM32G4xx_HAL_Driver/Src/stm32g4xx_ll_usb.c **** }
 1740              		.loc 1 735 1 is_stmt 0 view .LVU594
 1741 0004 80B2     		uxth	r0, r0
 1742              	.LVL180:
ARM GAS  C:\Users\Jack2bs\AppData\Local\Temp\ccBBPckb.s 			page 49


 1743              		.loc 1 735 1 view .LVU595
 1744 0006 7047     		bx	lr
 1745              		.cfi_endproc
 1746              	.LFE146:
 1748              		.section	.text.USB_ActivateRemoteWakeup,"ax",%progbits
 1749              		.align	1
 1750              		.global	USB_ActivateRemoteWakeup
 1751              		.syntax unified
 1752              		.thumb
 1753              		.thumb_func
 1754              		.fpu fpv4-sp-d16
 1756              	USB_ActivateRemoteWakeup:
 1757              	.LVL181:
 1758              	.LFB147:
 736:Drivers/STM32G4xx_HAL_Driver/Src/stm32g4xx_ll_usb.c **** 
 737:Drivers/STM32G4xx_HAL_Driver/Src/stm32g4xx_ll_usb.c **** /**
 738:Drivers/STM32G4xx_HAL_Driver/Src/stm32g4xx_ll_usb.c ****   * @brief  USB_ActivateRemoteWakeup : active remote wakeup signalling
 739:Drivers/STM32G4xx_HAL_Driver/Src/stm32g4xx_ll_usb.c ****   * @param  USBx Selected device
 740:Drivers/STM32G4xx_HAL_Driver/Src/stm32g4xx_ll_usb.c ****   * @retval HAL status
 741:Drivers/STM32G4xx_HAL_Driver/Src/stm32g4xx_ll_usb.c ****   */
 742:Drivers/STM32G4xx_HAL_Driver/Src/stm32g4xx_ll_usb.c **** HAL_StatusTypeDef USB_ActivateRemoteWakeup(USB_TypeDef *USBx)
 743:Drivers/STM32G4xx_HAL_Driver/Src/stm32g4xx_ll_usb.c **** {
 1759              		.loc 1 743 1 is_stmt 1 view -0
 1760              		.cfi_startproc
 1761              		@ args = 0, pretend = 0, frame = 0
 1762              		@ frame_needed = 0, uses_anonymous_args = 0
 1763              		@ link register save eliminated.
 744:Drivers/STM32G4xx_HAL_Driver/Src/stm32g4xx_ll_usb.c ****   USBx->CNTR |= (uint16_t)USB_CNTR_RESUME;
 1764              		.loc 1 744 3 view .LVU597
 1765              		.loc 1 744 14 is_stmt 0 view .LVU598
 1766 0000 B0F84030 		ldrh	r3, [r0, #64]
 1767 0004 9BB2     		uxth	r3, r3
 1768 0006 43F01003 		orr	r3, r3, #16
 1769 000a A0F84030 		strh	r3, [r0, #64]	@ movhi
 745:Drivers/STM32G4xx_HAL_Driver/Src/stm32g4xx_ll_usb.c **** 
 746:Drivers/STM32G4xx_HAL_Driver/Src/stm32g4xx_ll_usb.c ****   return HAL_OK;
 1770              		.loc 1 746 3 is_stmt 1 view .LVU599
 747:Drivers/STM32G4xx_HAL_Driver/Src/stm32g4xx_ll_usb.c **** }
 1771              		.loc 1 747 1 is_stmt 0 view .LVU600
 1772 000e 0020     		movs	r0, #0
 1773              	.LVL182:
 1774              		.loc 1 747 1 view .LVU601
 1775 0010 7047     		bx	lr
 1776              		.cfi_endproc
 1777              	.LFE147:
 1779              		.section	.text.USB_DeActivateRemoteWakeup,"ax",%progbits
 1780              		.align	1
 1781              		.global	USB_DeActivateRemoteWakeup
 1782              		.syntax unified
 1783              		.thumb
 1784              		.thumb_func
 1785              		.fpu fpv4-sp-d16
 1787              	USB_DeActivateRemoteWakeup:
 1788              	.LVL183:
 1789              	.LFB148:
 748:Drivers/STM32G4xx_HAL_Driver/Src/stm32g4xx_ll_usb.c **** 
 749:Drivers/STM32G4xx_HAL_Driver/Src/stm32g4xx_ll_usb.c **** /**
ARM GAS  C:\Users\Jack2bs\AppData\Local\Temp\ccBBPckb.s 			page 50


 750:Drivers/STM32G4xx_HAL_Driver/Src/stm32g4xx_ll_usb.c ****   * @brief  USB_DeActivateRemoteWakeup de-active remote wakeup signalling
 751:Drivers/STM32G4xx_HAL_Driver/Src/stm32g4xx_ll_usb.c ****   * @param  USBx Selected device
 752:Drivers/STM32G4xx_HAL_Driver/Src/stm32g4xx_ll_usb.c ****   * @retval HAL status
 753:Drivers/STM32G4xx_HAL_Driver/Src/stm32g4xx_ll_usb.c ****   */
 754:Drivers/STM32G4xx_HAL_Driver/Src/stm32g4xx_ll_usb.c **** HAL_StatusTypeDef USB_DeActivateRemoteWakeup(USB_TypeDef *USBx)
 755:Drivers/STM32G4xx_HAL_Driver/Src/stm32g4xx_ll_usb.c **** {
 1790              		.loc 1 755 1 is_stmt 1 view -0
 1791              		.cfi_startproc
 1792              		@ args = 0, pretend = 0, frame = 0
 1793              		@ frame_needed = 0, uses_anonymous_args = 0
 1794              		@ link register save eliminated.
 756:Drivers/STM32G4xx_HAL_Driver/Src/stm32g4xx_ll_usb.c ****   USBx->CNTR &= (uint16_t)(~USB_CNTR_RESUME);
 1795              		.loc 1 756 3 view .LVU603
 1796              		.loc 1 756 14 is_stmt 0 view .LVU604
 1797 0000 B0F84030 		ldrh	r3, [r0, #64]
 1798 0004 9BB2     		uxth	r3, r3
 1799 0006 23F01003 		bic	r3, r3, #16
 1800 000a 9BB2     		uxth	r3, r3
 1801 000c A0F84030 		strh	r3, [r0, #64]	@ movhi
 757:Drivers/STM32G4xx_HAL_Driver/Src/stm32g4xx_ll_usb.c **** 
 758:Drivers/STM32G4xx_HAL_Driver/Src/stm32g4xx_ll_usb.c ****   return HAL_OK;
 1802              		.loc 1 758 3 is_stmt 1 view .LVU605
 759:Drivers/STM32G4xx_HAL_Driver/Src/stm32g4xx_ll_usb.c **** }
 1803              		.loc 1 759 1 is_stmt 0 view .LVU606
 1804 0010 0020     		movs	r0, #0
 1805              	.LVL184:
 1806              		.loc 1 759 1 view .LVU607
 1807 0012 7047     		bx	lr
 1808              		.cfi_endproc
 1809              	.LFE148:
 1811              		.section	.text.USB_WritePMA,"ax",%progbits
 1812              		.align	1
 1813              		.global	USB_WritePMA
 1814              		.syntax unified
 1815              		.thumb
 1816              		.thumb_func
 1817              		.fpu fpv4-sp-d16
 1819              	USB_WritePMA:
 1820              	.LVL185:
 1821              	.LFB149:
 760:Drivers/STM32G4xx_HAL_Driver/Src/stm32g4xx_ll_usb.c **** 
 761:Drivers/STM32G4xx_HAL_Driver/Src/stm32g4xx_ll_usb.c **** /**
 762:Drivers/STM32G4xx_HAL_Driver/Src/stm32g4xx_ll_usb.c ****   * @brief Copy a buffer from user memory area to packet memory area (PMA)
 763:Drivers/STM32G4xx_HAL_Driver/Src/stm32g4xx_ll_usb.c ****   * @param   USBx USB peripheral instance register address.
 764:Drivers/STM32G4xx_HAL_Driver/Src/stm32g4xx_ll_usb.c ****   * @param   pbUsrBuf pointer to user memory area.
 765:Drivers/STM32G4xx_HAL_Driver/Src/stm32g4xx_ll_usb.c ****   * @param   wPMABufAddr address into PMA.
 766:Drivers/STM32G4xx_HAL_Driver/Src/stm32g4xx_ll_usb.c ****   * @param   wNBytes no. of bytes to be copied.
 767:Drivers/STM32G4xx_HAL_Driver/Src/stm32g4xx_ll_usb.c ****   * @retval None
 768:Drivers/STM32G4xx_HAL_Driver/Src/stm32g4xx_ll_usb.c ****   */
 769:Drivers/STM32G4xx_HAL_Driver/Src/stm32g4xx_ll_usb.c **** void USB_WritePMA(USB_TypeDef *USBx, uint8_t *pbUsrBuf, uint16_t wPMABufAddr, uint16_t wNBytes)
 770:Drivers/STM32G4xx_HAL_Driver/Src/stm32g4xx_ll_usb.c **** {
 1822              		.loc 1 770 1 is_stmt 1 view -0
 1823              		.cfi_startproc
 1824              		@ args = 0, pretend = 0, frame = 0
 1825              		@ frame_needed = 0, uses_anonymous_args = 0
 1826              		@ link register save eliminated.
 1827              		.loc 1 770 1 is_stmt 0 view .LVU609
ARM GAS  C:\Users\Jack2bs\AppData\Local\Temp\ccBBPckb.s 			page 51


 1828 0000 10B4     		push	{r4}
 1829              	.LCFI5:
 1830              		.cfi_def_cfa_offset 4
 1831              		.cfi_offset 4, -4
 771:Drivers/STM32G4xx_HAL_Driver/Src/stm32g4xx_ll_usb.c ****   uint32_t n = ((uint32_t)wNBytes + 1U) >> 1;
 1832              		.loc 1 771 3 is_stmt 1 view .LVU610
 1833              		.loc 1 771 35 is_stmt 0 view .LVU611
 1834 0002 5C1C     		adds	r4, r3, #1
 1835              		.loc 1 771 12 view .LVU612
 1836 0004 6408     		lsrs	r4, r4, #1
 1837              	.LVL186:
 772:Drivers/STM32G4xx_HAL_Driver/Src/stm32g4xx_ll_usb.c ****   uint32_t BaseAddr = (uint32_t)USBx;
 1838              		.loc 1 772 3 is_stmt 1 view .LVU613
 773:Drivers/STM32G4xx_HAL_Driver/Src/stm32g4xx_ll_usb.c ****   uint32_t i, temp1, temp2;
 1839              		.loc 1 773 3 view .LVU614
 774:Drivers/STM32G4xx_HAL_Driver/Src/stm32g4xx_ll_usb.c ****   __IO uint16_t *pdwVal;
 1840              		.loc 1 774 3 view .LVU615
 775:Drivers/STM32G4xx_HAL_Driver/Src/stm32g4xx_ll_usb.c ****   uint8_t *pBuf = pbUsrBuf;
 1841              		.loc 1 775 3 view .LVU616
 776:Drivers/STM32G4xx_HAL_Driver/Src/stm32g4xx_ll_usb.c **** 
 777:Drivers/STM32G4xx_HAL_Driver/Src/stm32g4xx_ll_usb.c ****   pdwVal = (__IO uint16_t *)(BaseAddr + 0x400U + ((uint32_t)wPMABufAddr * PMA_ACCESS));
 1842              		.loc 1 777 3 view .LVU617
 1843              		.loc 1 777 48 is_stmt 0 view .LVU618
 1844 0006 0244     		add	r2, r2, r0
 1845              	.LVL187:
 1846              		.loc 1 777 48 view .LVU619
 1847 0008 02F58062 		add	r2, r2, #1024
 1848              	.LVL188:
 778:Drivers/STM32G4xx_HAL_Driver/Src/stm32g4xx_ll_usb.c **** 
 779:Drivers/STM32G4xx_HAL_Driver/Src/stm32g4xx_ll_usb.c ****   for (i = n; i != 0U; i--)
 1849              		.loc 1 779 3 is_stmt 1 view .LVU620
 1850              		.loc 1 779 3 is_stmt 0 view .LVU621
 1851 000c 07E0     		b	.L63
 1852              	.LVL189:
 1853              	.L64:
 780:Drivers/STM32G4xx_HAL_Driver/Src/stm32g4xx_ll_usb.c ****   {
 781:Drivers/STM32G4xx_HAL_Driver/Src/stm32g4xx_ll_usb.c ****     temp1 = *pBuf;
 1854              		.loc 1 781 5 is_stmt 1 discriminator 3 view .LVU622
 1855              		.loc 1 781 13 is_stmt 0 discriminator 3 view .LVU623
 1856 000e 0B78     		ldrb	r3, [r1]	@ zero_extendqisi2
 1857              	.LVL190:
 782:Drivers/STM32G4xx_HAL_Driver/Src/stm32g4xx_ll_usb.c ****     pBuf++;
 1858              		.loc 1 782 5 is_stmt 1 discriminator 3 view .LVU624
 783:Drivers/STM32G4xx_HAL_Driver/Src/stm32g4xx_ll_usb.c ****     temp2 = temp1 | ((uint16_t)((uint16_t) *pBuf << 8));
 1859              		.loc 1 783 5 discriminator 3 view .LVU625
 1860              		.loc 1 783 44 is_stmt 0 discriminator 3 view .LVU626
 1861 0010 4878     		ldrb	r0, [r1, #1]	@ zero_extendqisi2
 1862              	.LVL191:
 784:Drivers/STM32G4xx_HAL_Driver/Src/stm32g4xx_ll_usb.c ****     *pdwVal = (uint16_t)temp2;
 1863              		.loc 1 784 5 is_stmt 1 discriminator 3 view .LVU627
 1864              		.loc 1 784 15 is_stmt 0 discriminator 3 view .LVU628
 1865 0012 43EA0023 		orr	r3, r3, r0, lsl #8
 1866              	.LVL192:
 1867              		.loc 1 784 13 discriminator 3 view .LVU629
 1868 0016 22F8023B 		strh	r3, [r2], #2	@ movhi
 1869              	.LVL193:
 785:Drivers/STM32G4xx_HAL_Driver/Src/stm32g4xx_ll_usb.c ****     pdwVal++;
ARM GAS  C:\Users\Jack2bs\AppData\Local\Temp\ccBBPckb.s 			page 52


 1870              		.loc 1 785 5 is_stmt 1 discriminator 3 view .LVU630
 786:Drivers/STM32G4xx_HAL_Driver/Src/stm32g4xx_ll_usb.c **** 
 787:Drivers/STM32G4xx_HAL_Driver/Src/stm32g4xx_ll_usb.c **** #if PMA_ACCESS > 1U
 788:Drivers/STM32G4xx_HAL_Driver/Src/stm32g4xx_ll_usb.c ****     pdwVal++;
 789:Drivers/STM32G4xx_HAL_Driver/Src/stm32g4xx_ll_usb.c **** #endif
 790:Drivers/STM32G4xx_HAL_Driver/Src/stm32g4xx_ll_usb.c **** 
 791:Drivers/STM32G4xx_HAL_Driver/Src/stm32g4xx_ll_usb.c ****     pBuf++;
 1871              		.loc 1 791 5 discriminator 3 view .LVU631
 1872              		.loc 1 791 9 is_stmt 0 discriminator 3 view .LVU632
 1873 001a 0231     		adds	r1, r1, #2
 1874              	.LVL194:
 779:Drivers/STM32G4xx_HAL_Driver/Src/stm32g4xx_ll_usb.c ****   {
 1875              		.loc 1 779 24 is_stmt 1 discriminator 3 view .LVU633
 779:Drivers/STM32G4xx_HAL_Driver/Src/stm32g4xx_ll_usb.c ****   {
 1876              		.loc 1 779 25 is_stmt 0 discriminator 3 view .LVU634
 1877 001c 013C     		subs	r4, r4, #1
 1878              	.LVL195:
 1879              	.L63:
 779:Drivers/STM32G4xx_HAL_Driver/Src/stm32g4xx_ll_usb.c ****   {
 1880              		.loc 1 779 15 is_stmt 1 discriminator 1 view .LVU635
 779:Drivers/STM32G4xx_HAL_Driver/Src/stm32g4xx_ll_usb.c ****   {
 1881              		.loc 1 779 3 is_stmt 0 discriminator 1 view .LVU636
 1882 001e 002C     		cmp	r4, #0
 1883 0020 F5D1     		bne	.L64
 792:Drivers/STM32G4xx_HAL_Driver/Src/stm32g4xx_ll_usb.c ****   }
 793:Drivers/STM32G4xx_HAL_Driver/Src/stm32g4xx_ll_usb.c **** }
 1884              		.loc 1 793 1 view .LVU637
 1885 0022 5DF8044B 		ldr	r4, [sp], #4
 1886              	.LCFI6:
 1887              		.cfi_restore 4
 1888              		.cfi_def_cfa_offset 0
 1889              	.LVL196:
 1890              		.loc 1 793 1 view .LVU638
 1891 0026 7047     		bx	lr
 1892              		.cfi_endproc
 1893              	.LFE149:
 1895              		.section	.text.USB_EPStartXfer,"ax",%progbits
 1896              		.align	1
 1897              		.global	USB_EPStartXfer
 1898              		.syntax unified
 1899              		.thumb
 1900              		.thumb_func
 1901              		.fpu fpv4-sp-d16
 1903              	USB_EPStartXfer:
 1904              	.LVL197:
 1905              	.LFB139:
 354:Drivers/STM32G4xx_HAL_Driver/Src/stm32g4xx_ll_usb.c ****   uint32_t len;
 1906              		.loc 1 354 1 is_stmt 1 view -0
 1907              		.cfi_startproc
 1908              		@ args = 0, pretend = 0, frame = 0
 1909              		@ frame_needed = 0, uses_anonymous_args = 0
 354:Drivers/STM32G4xx_HAL_Driver/Src/stm32g4xx_ll_usb.c ****   uint32_t len;
 1910              		.loc 1 354 1 is_stmt 0 view .LVU640
 1911 0000 70B5     		push	{r4, r5, r6, lr}
 1912              	.LCFI7:
 1913              		.cfi_def_cfa_offset 16
 1914              		.cfi_offset 4, -16
ARM GAS  C:\Users\Jack2bs\AppData\Local\Temp\ccBBPckb.s 			page 53


 1915              		.cfi_offset 5, -12
 1916              		.cfi_offset 6, -8
 1917              		.cfi_offset 14, -4
 1918 0002 0546     		mov	r5, r0
 1919 0004 0C46     		mov	r4, r1
 355:Drivers/STM32G4xx_HAL_Driver/Src/stm32g4xx_ll_usb.c ****   uint16_t pmabuffer;
 1920              		.loc 1 355 3 is_stmt 1 view .LVU641
 356:Drivers/STM32G4xx_HAL_Driver/Src/stm32g4xx_ll_usb.c ****   uint16_t wEPVal;
 1921              		.loc 1 356 3 view .LVU642
 357:Drivers/STM32G4xx_HAL_Driver/Src/stm32g4xx_ll_usb.c **** 
 1922              		.loc 1 357 3 view .LVU643
 360:Drivers/STM32G4xx_HAL_Driver/Src/stm32g4xx_ll_usb.c ****   {
 1923              		.loc 1 360 3 view .LVU644
 360:Drivers/STM32G4xx_HAL_Driver/Src/stm32g4xx_ll_usb.c ****   {
 1924              		.loc 1 360 9 is_stmt 0 view .LVU645
 1925 0006 4B78     		ldrb	r3, [r1, #1]	@ zero_extendqisi2
 360:Drivers/STM32G4xx_HAL_Driver/Src/stm32g4xx_ll_usb.c ****   {
 1926              		.loc 1 360 6 view .LVU646
 1927 0008 012B     		cmp	r3, #1
 1928 000a 37D0     		beq	.L165
 541:Drivers/STM32G4xx_HAL_Driver/Src/stm32g4xx_ll_usb.c ****     {
 1929              		.loc 1 541 5 is_stmt 1 view .LVU647
 541:Drivers/STM32G4xx_HAL_Driver/Src/stm32g4xx_ll_usb.c ****     {
 1930              		.loc 1 541 11 is_stmt 0 view .LVU648
 1931 000c 0A7B     		ldrb	r2, [r1, #12]	@ zero_extendqisi2
 541:Drivers/STM32G4xx_HAL_Driver/Src/stm32g4xx_ll_usb.c ****     {
 1932              		.loc 1 541 8 view .LVU649
 1933 000e 002A     		cmp	r2, #0
 1934 0010 40F02683 		bne	.L130
 544:Drivers/STM32G4xx_HAL_Driver/Src/stm32g4xx_ll_usb.c ****       {
 1935              		.loc 1 544 7 is_stmt 1 view .LVU650
 544:Drivers/STM32G4xx_HAL_Driver/Src/stm32g4xx_ll_usb.c ****       {
 1936              		.loc 1 544 13 is_stmt 0 view .LVU651
 1937 0014 8B69     		ldr	r3, [r1, #24]
 544:Drivers/STM32G4xx_HAL_Driver/Src/stm32g4xx_ll_usb.c ****       {
 1938              		.loc 1 544 28 view .LVU652
 1939 0016 0A69     		ldr	r2, [r1, #16]
 544:Drivers/STM32G4xx_HAL_Driver/Src/stm32g4xx_ll_usb.c ****       {
 1940              		.loc 1 544 10 view .LVU653
 1941 0018 9342     		cmp	r3, r2
 1942 001a 40F20483 		bls	.L131
 546:Drivers/STM32G4xx_HAL_Driver/Src/stm32g4xx_ll_usb.c ****         ep->xfer_len -= len;
 1943              		.loc 1 546 9 is_stmt 1 view .LVU654
 1944              	.LVL198:
 547:Drivers/STM32G4xx_HAL_Driver/Src/stm32g4xx_ll_usb.c ****       }
 1945              		.loc 1 547 9 view .LVU655
 547:Drivers/STM32G4xx_HAL_Driver/Src/stm32g4xx_ll_usb.c ****       }
 1946              		.loc 1 547 22 is_stmt 0 view .LVU656
 1947 001e 9B1A     		subs	r3, r3, r2
 1948 0020 8B61     		str	r3, [r1, #24]
 1949              	.L132:
 555:Drivers/STM32G4xx_HAL_Driver/Src/stm32g4xx_ll_usb.c ****     }
 1950              		.loc 1 555 7 is_stmt 1 view .LVU657
 1951              	.LBB60:
 555:Drivers/STM32G4xx_HAL_Driver/Src/stm32g4xx_ll_usb.c ****     }
 1952              		.loc 1 555 7 view .LVU658
 1953              	.LVL199:
ARM GAS  C:\Users\Jack2bs\AppData\Local\Temp\ccBBPckb.s 			page 54


 555:Drivers/STM32G4xx_HAL_Driver/Src/stm32g4xx_ll_usb.c ****     }
 1954              		.loc 1 555 7 view .LVU659
 555:Drivers/STM32G4xx_HAL_Driver/Src/stm32g4xx_ll_usb.c ****     }
 1955              		.loc 1 555 7 view .LVU660
 1956 0022 B5F85030 		ldrh	r3, [r5, #80]
 1957 0026 15FA83F3 		uxtah	r3, r5, r3
 1958              	.LVL200:
 555:Drivers/STM32G4xx_HAL_Driver/Src/stm32g4xx_ll_usb.c ****     }
 1959              		.loc 1 555 7 view .LVU661
 1960 002a 2178     		ldrb	r1, [r4]	@ zero_extendqisi2
 1961              	.LVL201:
 555:Drivers/STM32G4xx_HAL_Driver/Src/stm32g4xx_ll_usb.c ****     }
 1962              		.loc 1 555 7 is_stmt 0 view .LVU662
 1963 002c 03EBC103 		add	r3, r3, r1, lsl #3
 1964              	.LVL202:
 555:Drivers/STM32G4xx_HAL_Driver/Src/stm32g4xx_ll_usb.c ****     }
 1965              		.loc 1 555 7 is_stmt 1 view .LVU663
 1966              	.LBB61:
 555:Drivers/STM32G4xx_HAL_Driver/Src/stm32g4xx_ll_usb.c ****     }
 1967              		.loc 1 555 7 view .LVU664
 555:Drivers/STM32G4xx_HAL_Driver/Src/stm32g4xx_ll_usb.c ****     }
 1968              		.loc 1 555 7 view .LVU665
 1969 0030 002A     		cmp	r2, #0
 1970 0032 40F0FC82 		bne	.L133
 555:Drivers/STM32G4xx_HAL_Driver/Src/stm32g4xx_ll_usb.c ****     }
 1971              		.loc 1 555 7 discriminator 1 view .LVU666
 1972 0036 B3F80624 		ldrh	r2, [r3, #1030]
 1973              	.LVL203:
 555:Drivers/STM32G4xx_HAL_Driver/Src/stm32g4xx_ll_usb.c ****     }
 1974              		.loc 1 555 7 is_stmt 0 discriminator 1 view .LVU667
 1975 003a 92B2     		uxth	r2, r2
 1976 003c 22F4F842 		bic	r2, r2, #31744
 1977 0040 92B2     		uxth	r2, r2
 1978 0042 A3F80624 		strh	r2, [r3, #1030]	@ movhi
 555:Drivers/STM32G4xx_HAL_Driver/Src/stm32g4xx_ll_usb.c ****     }
 1979              		.loc 1 555 7 is_stmt 1 discriminator 1 view .LVU668
 1980 0046 B3F80624 		ldrh	r2, [r3, #1030]
 1981 004a 6FEA4242 		mvn	r2, r2, lsl #17
 1982 004e 6FEA5242 		mvn	r2, r2, lsr #17
 1983 0052 92B2     		uxth	r2, r2
 1984 0054 A3F80624 		strh	r2, [r3, #1030]	@ movhi
 1985              	.LVL204:
 1986              	.L134:
 555:Drivers/STM32G4xx_HAL_Driver/Src/stm32g4xx_ll_usb.c ****     }
 1987              		.loc 1 555 7 is_stmt 0 discriminator 1 view .LVU669
 1988              	.LBE61:
 1989              	.LBE60:
 601:Drivers/STM32G4xx_HAL_Driver/Src/stm32g4xx_ll_usb.c ****   }
 1990              		.loc 1 601 5 is_stmt 1 view .LVU670
 1991              	.LBB63:
 601:Drivers/STM32G4xx_HAL_Driver/Src/stm32g4xx_ll_usb.c ****   }
 1992              		.loc 1 601 5 view .LVU671
 601:Drivers/STM32G4xx_HAL_Driver/Src/stm32g4xx_ll_usb.c ****   }
 1993              		.loc 1 601 5 view .LVU672
 1994 0058 2278     		ldrb	r2, [r4]	@ zero_extendqisi2
 1995 005a 35F82230 		ldrh	r3, [r5, r2, lsl #2]
 1996 005e 9BB2     		uxth	r3, r3
ARM GAS  C:\Users\Jack2bs\AppData\Local\Temp\ccBBPckb.s 			page 55


 1997 0060 23F48043 		bic	r3, r3, #16384
 1998 0064 23F07003 		bic	r3, r3, #112
 1999              	.LVL205:
 601:Drivers/STM32G4xx_HAL_Driver/Src/stm32g4xx_ll_usb.c ****   }
 2000              		.loc 1 601 5 view .LVU673
 601:Drivers/STM32G4xx_HAL_Driver/Src/stm32g4xx_ll_usb.c ****   }
 2001              		.loc 1 601 5 view .LVU674
 601:Drivers/STM32G4xx_HAL_Driver/Src/stm32g4xx_ll_usb.c ****   }
 2002              		.loc 1 601 5 view .LVU675
 601:Drivers/STM32G4xx_HAL_Driver/Src/stm32g4xx_ll_usb.c ****   }
 2003              		.loc 1 601 5 view .LVU676
 2004 0068 83F44053 		eor	r3, r3, #12288
 2005              	.LVL206:
 601:Drivers/STM32G4xx_HAL_Driver/Src/stm32g4xx_ll_usb.c ****   }
 2006              		.loc 1 601 5 view .LVU677
 2007 006c 43F40043 		orr	r3, r3, #32768
 2008              	.LVL207:
 601:Drivers/STM32G4xx_HAL_Driver/Src/stm32g4xx_ll_usb.c ****   }
 2009              		.loc 1 601 5 is_stmt 0 view .LVU678
 2010 0070 43F08003 		orr	r3, r3, #128
 2011 0074 25F82230 		strh	r3, [r5, r2, lsl #2]	@ movhi
 2012              	.LBE63:
 604:Drivers/STM32G4xx_HAL_Driver/Src/stm32g4xx_ll_usb.c **** }
 2013              		.loc 1 604 10 view .LVU679
 2014 0078 0020     		movs	r0, #0
 2015              	.L129:
 605:Drivers/STM32G4xx_HAL_Driver/Src/stm32g4xx_ll_usb.c **** 
 2016              		.loc 1 605 1 view .LVU680
 2017 007a 70BD     		pop	{r4, r5, r6, pc}
 2018              	.LVL208:
 2019              	.L165:
 363:Drivers/STM32G4xx_HAL_Driver/Src/stm32g4xx_ll_usb.c ****     {
 2020              		.loc 1 363 5 is_stmt 1 view .LVU681
 363:Drivers/STM32G4xx_HAL_Driver/Src/stm32g4xx_ll_usb.c ****     {
 2021              		.loc 1 363 11 is_stmt 0 view .LVU682
 2022 007c 8E69     		ldr	r6, [r1, #24]
 363:Drivers/STM32G4xx_HAL_Driver/Src/stm32g4xx_ll_usb.c ****     {
 2023              		.loc 1 363 26 view .LVU683
 2024 007e 0A69     		ldr	r2, [r1, #16]
 363:Drivers/STM32G4xx_HAL_Driver/Src/stm32g4xx_ll_usb.c ****     {
 2025              		.loc 1 363 8 view .LVU684
 2026 0080 9642     		cmp	r6, r2
 2027 0082 00D9     		bls	.L68
 365:Drivers/STM32G4xx_HAL_Driver/Src/stm32g4xx_ll_usb.c ****     }
 2028              		.loc 1 365 11 view .LVU685
 2029 0084 1646     		mov	r6, r2
 2030              	.L68:
 2031              	.LVL209:
 373:Drivers/STM32G4xx_HAL_Driver/Src/stm32g4xx_ll_usb.c ****     {
 2032              		.loc 1 373 5 is_stmt 1 view .LVU686
 373:Drivers/STM32G4xx_HAL_Driver/Src/stm32g4xx_ll_usb.c ****     {
 2033              		.loc 1 373 11 is_stmt 0 view .LVU687
 2034 0086 237B     		ldrb	r3, [r4, #12]	@ zero_extendqisi2
 373:Drivers/STM32G4xx_HAL_Driver/Src/stm32g4xx_ll_usb.c ****     {
 2035              		.loc 1 373 8 view .LVU688
 2036 0088 002B     		cmp	r3, #0
 2037 008a 39D0     		beq	.L166
ARM GAS  C:\Users\Jack2bs\AppData\Local\Temp\ccBBPckb.s 			page 56


 381:Drivers/STM32G4xx_HAL_Driver/Src/stm32g4xx_ll_usb.c ****       {
 2038              		.loc 1 381 7 is_stmt 1 view .LVU689
 381:Drivers/STM32G4xx_HAL_Driver/Src/stm32g4xx_ll_usb.c ****       {
 2039              		.loc 1 381 13 is_stmt 0 view .LVU690
 2040 008c E378     		ldrb	r3, [r4, #3]	@ zero_extendqisi2
 381:Drivers/STM32G4xx_HAL_Driver/Src/stm32g4xx_ll_usb.c ****       {
 2041              		.loc 1 381 10 view .LVU691
 2042 008e 022B     		cmp	r3, #2
 2043 0090 58D0     		beq	.L167
 468:Drivers/STM32G4xx_HAL_Driver/Src/stm32g4xx_ll_usb.c **** 
 2044              		.loc 1 468 9 is_stmt 1 view .LVU692
 2045              	.LBB64:
 468:Drivers/STM32G4xx_HAL_Driver/Src/stm32g4xx_ll_usb.c **** 
 2046              		.loc 1 468 9 view .LVU693
 468:Drivers/STM32G4xx_HAL_Driver/Src/stm32g4xx_ll_usb.c **** 
 2047              		.loc 1 468 9 view .LVU694
 2048 0092 2278     		ldrb	r2, [r4]	@ zero_extendqisi2
 2049 0094 35F82230 		ldrh	r3, [r5, r2, lsl #2]
 2050 0098 9BB2     		uxth	r3, r3
 2051 009a 23F4E043 		bic	r3, r3, #28672
 2052 009e 23F07003 		bic	r3, r3, #112
 2053              	.LVL210:
 468:Drivers/STM32G4xx_HAL_Driver/Src/stm32g4xx_ll_usb.c **** 
 2054              		.loc 1 468 9 view .LVU695
 2055 00a2 43F40143 		orr	r3, r3, #33024
 2056              	.LVL211:
 468:Drivers/STM32G4xx_HAL_Driver/Src/stm32g4xx_ll_usb.c **** 
 2057              		.loc 1 468 9 is_stmt 0 view .LVU696
 2058 00a6 43F08003 		orr	r3, r3, #128
 2059 00aa 25F82230 		strh	r3, [r5, r2, lsl #2]	@ movhi
 2060              	.LBE64:
 468:Drivers/STM32G4xx_HAL_Driver/Src/stm32g4xx_ll_usb.c **** 
 2061              		.loc 1 468 9 is_stmt 1 view .LVU697
 471:Drivers/STM32G4xx_HAL_Driver/Src/stm32g4xx_ll_usb.c **** 
 2062              		.loc 1 471 9 view .LVU698
 471:Drivers/STM32G4xx_HAL_Driver/Src/stm32g4xx_ll_usb.c **** 
 2063              		.loc 1 471 25 is_stmt 0 view .LVU699
 2064 00ae 236A     		ldr	r3, [r4, #32]
 2065 00b0 9B1B     		subs	r3, r3, r6
 2066 00b2 2362     		str	r3, [r4, #32]
 474:Drivers/STM32G4xx_HAL_Driver/Src/stm32g4xx_ll_usb.c ****         {
 2067              		.loc 1 474 9 is_stmt 1 view .LVU700
 474:Drivers/STM32G4xx_HAL_Driver/Src/stm32g4xx_ll_usb.c ****         {
 2068              		.loc 1 474 14 is_stmt 0 view .LVU701
 2069 00b4 2378     		ldrb	r3, [r4]	@ zero_extendqisi2
 2070 00b6 35F82320 		ldrh	r2, [r5, r3, lsl #2]
 474:Drivers/STM32G4xx_HAL_Driver/Src/stm32g4xx_ll_usb.c ****         {
 2071              		.loc 1 474 12 view .LVU702
 2072 00ba 12F0400F 		tst	r2, #64
 2073 00be 00F02682 		beq	.L102
 477:Drivers/STM32G4xx_HAL_Driver/Src/stm32g4xx_ll_usb.c ****           pmabuffer = ep->pmaaddr1;
 2074              		.loc 1 477 11 is_stmt 1 view .LVU703
 2075              	.LBB65:
 477:Drivers/STM32G4xx_HAL_Driver/Src/stm32g4xx_ll_usb.c ****           pmabuffer = ep->pmaaddr1;
 2076              		.loc 1 477 11 view .LVU704
 2077              	.LVL212:
 477:Drivers/STM32G4xx_HAL_Driver/Src/stm32g4xx_ll_usb.c ****           pmabuffer = ep->pmaaddr1;
ARM GAS  C:\Users\Jack2bs\AppData\Local\Temp\ccBBPckb.s 			page 57


 2078              		.loc 1 477 11 view .LVU705
 477:Drivers/STM32G4xx_HAL_Driver/Src/stm32g4xx_ll_usb.c ****           pmabuffer = ep->pmaaddr1;
 2079              		.loc 1 477 11 view .LVU706
 2080 00c2 6278     		ldrb	r2, [r4, #1]	@ zero_extendqisi2
 2081 00c4 002A     		cmp	r2, #0
 2082 00c6 40F0CA81 		bne	.L103
 477:Drivers/STM32G4xx_HAL_Driver/Src/stm32g4xx_ll_usb.c ****           pmabuffer = ep->pmaaddr1;
 2083              		.loc 1 477 11 discriminator 1 view .LVU707
 2084              	.LBB66:
 477:Drivers/STM32G4xx_HAL_Driver/Src/stm32g4xx_ll_usb.c ****           pmabuffer = ep->pmaaddr1;
 2085              		.loc 1 477 11 discriminator 1 view .LVU708
 2086              	.LVL213:
 477:Drivers/STM32G4xx_HAL_Driver/Src/stm32g4xx_ll_usb.c ****           pmabuffer = ep->pmaaddr1;
 2087              		.loc 1 477 11 discriminator 1 view .LVU709
 477:Drivers/STM32G4xx_HAL_Driver/Src/stm32g4xx_ll_usb.c ****           pmabuffer = ep->pmaaddr1;
 2088              		.loc 1 477 11 discriminator 1 view .LVU710
 2089 00ca B5F85020 		ldrh	r2, [r5, #80]
 2090 00ce 15FA82F2 		uxtah	r2, r5, r2
 2091              	.LVL214:
 477:Drivers/STM32G4xx_HAL_Driver/Src/stm32g4xx_ll_usb.c ****           pmabuffer = ep->pmaaddr1;
 2092              		.loc 1 477 11 discriminator 1 view .LVU711
 2093 00d2 02EBC303 		add	r3, r2, r3, lsl #3
 2094              	.LVL215:
 477:Drivers/STM32G4xx_HAL_Driver/Src/stm32g4xx_ll_usb.c ****           pmabuffer = ep->pmaaddr1;
 2095              		.loc 1 477 11 discriminator 1 view .LVU712
 2096              	.LBB67:
 477:Drivers/STM32G4xx_HAL_Driver/Src/stm32g4xx_ll_usb.c ****           pmabuffer = ep->pmaaddr1;
 2097              		.loc 1 477 11 discriminator 1 view .LVU713
 477:Drivers/STM32G4xx_HAL_Driver/Src/stm32g4xx_ll_usb.c ****           pmabuffer = ep->pmaaddr1;
 2098              		.loc 1 477 11 discriminator 1 view .LVU714
 2099 00d6 002E     		cmp	r6, #0
 2100 00d8 40F0A881 		bne	.L104
 477:Drivers/STM32G4xx_HAL_Driver/Src/stm32g4xx_ll_usb.c ****           pmabuffer = ep->pmaaddr1;
 2101              		.loc 1 477 11 discriminator 3 view .LVU715
 2102 00dc B3F80624 		ldrh	r2, [r3, #1030]
 2103              	.LVL216:
 477:Drivers/STM32G4xx_HAL_Driver/Src/stm32g4xx_ll_usb.c ****           pmabuffer = ep->pmaaddr1;
 2104              		.loc 1 477 11 is_stmt 0 discriminator 3 view .LVU716
 2105 00e0 92B2     		uxth	r2, r2
 2106 00e2 22F4F842 		bic	r2, r2, #31744
 2107 00e6 92B2     		uxth	r2, r2
 2108 00e8 A3F80624 		strh	r2, [r3, #1030]	@ movhi
 477:Drivers/STM32G4xx_HAL_Driver/Src/stm32g4xx_ll_usb.c ****           pmabuffer = ep->pmaaddr1;
 2109              		.loc 1 477 11 is_stmt 1 discriminator 3 view .LVU717
 2110 00ec B3F80624 		ldrh	r2, [r3, #1030]
 2111 00f0 6FEA4242 		mvn	r2, r2, lsl #17
 2112 00f4 6FEA5242 		mvn	r2, r2, lsr #17
 2113 00f8 92B2     		uxth	r2, r2
 2114 00fa A3F80624 		strh	r2, [r3, #1030]	@ movhi
 2115 00fe B0E1     		b	.L105
 2116              	.LVL217:
 2117              	.L166:
 477:Drivers/STM32G4xx_HAL_Driver/Src/stm32g4xx_ll_usb.c ****           pmabuffer = ep->pmaaddr1;
 2118              		.loc 1 477 11 is_stmt 0 discriminator 3 view .LVU718
 2119              	.LBE67:
 2120              	.LBE66:
 2121              	.LBE65:
ARM GAS  C:\Users\Jack2bs\AppData\Local\Temp\ccBBPckb.s 			page 58


 375:Drivers/STM32G4xx_HAL_Driver/Src/stm32g4xx_ll_usb.c ****       PCD_SET_EP_TX_CNT(USBx, ep->num, len);
 2122              		.loc 1 375 7 is_stmt 1 view .LVU719
 2123 0100 B6B2     		uxth	r6, r6
 2124              	.LVL218:
 375:Drivers/STM32G4xx_HAL_Driver/Src/stm32g4xx_ll_usb.c ****       PCD_SET_EP_TX_CNT(USBx, ep->num, len);
 2125              		.loc 1 375 7 is_stmt 0 view .LVU720
 2126 0102 3346     		mov	r3, r6
 2127 0104 E288     		ldrh	r2, [r4, #6]
 2128 0106 6169     		ldr	r1, [r4, #20]
 2129              	.LVL219:
 375:Drivers/STM32G4xx_HAL_Driver/Src/stm32g4xx_ll_usb.c ****       PCD_SET_EP_TX_CNT(USBx, ep->num, len);
 2130              		.loc 1 375 7 view .LVU721
 2131 0108 2846     		mov	r0, r5
 2132              	.LVL220:
 375:Drivers/STM32G4xx_HAL_Driver/Src/stm32g4xx_ll_usb.c ****       PCD_SET_EP_TX_CNT(USBx, ep->num, len);
 2133              		.loc 1 375 7 view .LVU722
 2134 010a FFF7FEFF 		bl	USB_WritePMA
 2135              	.LVL221:
 376:Drivers/STM32G4xx_HAL_Driver/Src/stm32g4xx_ll_usb.c ****     }
 2136              		.loc 1 376 7 is_stmt 1 view .LVU723
 2137              	.LBB70:
 376:Drivers/STM32G4xx_HAL_Driver/Src/stm32g4xx_ll_usb.c ****     }
 2138              		.loc 1 376 7 view .LVU724
 376:Drivers/STM32G4xx_HAL_Driver/Src/stm32g4xx_ll_usb.c ****     }
 2139              		.loc 1 376 7 view .LVU725
 376:Drivers/STM32G4xx_HAL_Driver/Src/stm32g4xx_ll_usb.c ****     }
 2140              		.loc 1 376 7 view .LVU726
 2141 010e B5F85030 		ldrh	r3, [r5, #80]
 2142 0112 15FA83F3 		uxtah	r3, r5, r3
 2143              	.LVL222:
 376:Drivers/STM32G4xx_HAL_Driver/Src/stm32g4xx_ll_usb.c ****     }
 2144              		.loc 1 376 7 view .LVU727
 2145 0116 2278     		ldrb	r2, [r4]	@ zero_extendqisi2
 2146 0118 03EBC203 		add	r3, r3, r2, lsl #3
 2147              	.LVL223:
 376:Drivers/STM32G4xx_HAL_Driver/Src/stm32g4xx_ll_usb.c ****     }
 2148              		.loc 1 376 7 view .LVU728
 2149 011c A3F80264 		strh	r6, [r3, #1026]	@ movhi
 2150              	.LBE70:
 376:Drivers/STM32G4xx_HAL_Driver/Src/stm32g4xx_ll_usb.c ****     }
 2151              		.loc 1 376 7 view .LVU729
 2152              	.LVL224:
 2153              	.L70:
 537:Drivers/STM32G4xx_HAL_Driver/Src/stm32g4xx_ll_usb.c ****   }
 2154              		.loc 1 537 5 view .LVU730
 2155              	.LBB71:
 537:Drivers/STM32G4xx_HAL_Driver/Src/stm32g4xx_ll_usb.c ****   }
 2156              		.loc 1 537 5 view .LVU731
 537:Drivers/STM32G4xx_HAL_Driver/Src/stm32g4xx_ll_usb.c ****   }
 2157              		.loc 1 537 5 view .LVU732
 2158 0120 2278     		ldrb	r2, [r4]	@ zero_extendqisi2
 2159 0122 35F82230 		ldrh	r3, [r5, r2, lsl #2]
 2160 0126 9BB2     		uxth	r3, r3
 2161 0128 23F4E043 		bic	r3, r3, #28672
 2162 012c 23F04003 		bic	r3, r3, #64
 2163              	.LVL225:
 537:Drivers/STM32G4xx_HAL_Driver/Src/stm32g4xx_ll_usb.c ****   }
ARM GAS  C:\Users\Jack2bs\AppData\Local\Temp\ccBBPckb.s 			page 59


 2164              		.loc 1 537 5 view .LVU733
 537:Drivers/STM32G4xx_HAL_Driver/Src/stm32g4xx_ll_usb.c ****   }
 2165              		.loc 1 537 5 view .LVU734
 537:Drivers/STM32G4xx_HAL_Driver/Src/stm32g4xx_ll_usb.c ****   }
 2166              		.loc 1 537 5 view .LVU735
 537:Drivers/STM32G4xx_HAL_Driver/Src/stm32g4xx_ll_usb.c ****   }
 2167              		.loc 1 537 5 view .LVU736
 2168 0130 83F03003 		eor	r3, r3, #48
 2169              	.LVL226:
 537:Drivers/STM32G4xx_HAL_Driver/Src/stm32g4xx_ll_usb.c ****   }
 2170              		.loc 1 537 5 view .LVU737
 2171 0134 43F40043 		orr	r3, r3, #32768
 2172              	.LVL227:
 537:Drivers/STM32G4xx_HAL_Driver/Src/stm32g4xx_ll_usb.c ****   }
 2173              		.loc 1 537 5 is_stmt 0 view .LVU738
 2174 0138 43F08003 		orr	r3, r3, #128
 2175 013c 25F82230 		strh	r3, [r5, r2, lsl #2]	@ movhi
 2176              	.LBE71:
 537:Drivers/STM32G4xx_HAL_Driver/Src/stm32g4xx_ll_usb.c ****   }
 2177              		.loc 1 537 5 is_stmt 1 view .LVU739
 604:Drivers/STM32G4xx_HAL_Driver/Src/stm32g4xx_ll_usb.c **** }
 2178              		.loc 1 604 10 is_stmt 0 view .LVU740
 2179 0140 0020     		movs	r0, #0
 2180 0142 9AE7     		b	.L129
 2181              	.LVL228:
 2182              	.L167:
 383:Drivers/STM32G4xx_HAL_Driver/Src/stm32g4xx_ll_usb.c ****         {
 2183              		.loc 1 383 9 is_stmt 1 view .LVU741
 383:Drivers/STM32G4xx_HAL_Driver/Src/stm32g4xx_ll_usb.c ****         {
 2184              		.loc 1 383 15 is_stmt 0 view .LVU742
 2185 0144 236A     		ldr	r3, [r4, #32]
 383:Drivers/STM32G4xx_HAL_Driver/Src/stm32g4xx_ll_usb.c ****         {
 2186              		.loc 1 383 12 view .LVU743
 2187 0146 9A42     		cmp	r2, r3
 2188 0148 80F05281 		bcs	.L72
 386:Drivers/STM32G4xx_HAL_Driver/Src/stm32g4xx_ll_usb.c **** 
 2189              		.loc 1 386 11 is_stmt 1 view .LVU744
 2190              	.LBB72:
 386:Drivers/STM32G4xx_HAL_Driver/Src/stm32g4xx_ll_usb.c **** 
 2191              		.loc 1 386 11 view .LVU745
 386:Drivers/STM32G4xx_HAL_Driver/Src/stm32g4xx_ll_usb.c **** 
 2192              		.loc 1 386 11 view .LVU746
 2193 014c 2278     		ldrb	r2, [r4]	@ zero_extendqisi2
 2194 014e 35F82230 		ldrh	r3, [r5, r2, lsl #2]
 2195 0152 9BB2     		uxth	r3, r3
 2196 0154 23F4E043 		bic	r3, r3, #28672
 2197 0158 23F07003 		bic	r3, r3, #112
 2198              	.LVL229:
 386:Drivers/STM32G4xx_HAL_Driver/Src/stm32g4xx_ll_usb.c **** 
 2199              		.loc 1 386 11 view .LVU747
 2200 015c 43F40143 		orr	r3, r3, #33024
 2201              	.LVL230:
 386:Drivers/STM32G4xx_HAL_Driver/Src/stm32g4xx_ll_usb.c **** 
 2202              		.loc 1 386 11 is_stmt 0 view .LVU748
 2203 0160 43F08003 		orr	r3, r3, #128
 2204 0164 25F82230 		strh	r3, [r5, r2, lsl #2]	@ movhi
 2205              	.LBE72:
ARM GAS  C:\Users\Jack2bs\AppData\Local\Temp\ccBBPckb.s 			page 60


 386:Drivers/STM32G4xx_HAL_Driver/Src/stm32g4xx_ll_usb.c **** 
 2206              		.loc 1 386 11 is_stmt 1 view .LVU749
 389:Drivers/STM32G4xx_HAL_Driver/Src/stm32g4xx_ll_usb.c **** 
 2207              		.loc 1 389 11 view .LVU750
 389:Drivers/STM32G4xx_HAL_Driver/Src/stm32g4xx_ll_usb.c **** 
 2208              		.loc 1 389 27 is_stmt 0 view .LVU751
 2209 0168 236A     		ldr	r3, [r4, #32]
 2210 016a 9B1B     		subs	r3, r3, r6
 2211 016c 2362     		str	r3, [r4, #32]
 392:Drivers/STM32G4xx_HAL_Driver/Src/stm32g4xx_ll_usb.c ****           {
 2212              		.loc 1 392 11 is_stmt 1 view .LVU752
 392:Drivers/STM32G4xx_HAL_Driver/Src/stm32g4xx_ll_usb.c ****           {
 2213              		.loc 1 392 16 is_stmt 0 view .LVU753
 2214 016e 2378     		ldrb	r3, [r4]	@ zero_extendqisi2
 2215 0170 35F82320 		ldrh	r2, [r5, r3, lsl #2]
 392:Drivers/STM32G4xx_HAL_Driver/Src/stm32g4xx_ll_usb.c ****           {
 2216              		.loc 1 392 14 view .LVU754
 2217 0174 12F0400F 		tst	r2, #64
 2218 0178 00F09D80 		beq	.L73
 395:Drivers/STM32G4xx_HAL_Driver/Src/stm32g4xx_ll_usb.c ****             pmabuffer = ep->pmaaddr1;
 2219              		.loc 1 395 13 is_stmt 1 view .LVU755
 2220              	.LBB73:
 395:Drivers/STM32G4xx_HAL_Driver/Src/stm32g4xx_ll_usb.c ****             pmabuffer = ep->pmaaddr1;
 2221              		.loc 1 395 13 view .LVU756
 2222              	.LVL231:
 395:Drivers/STM32G4xx_HAL_Driver/Src/stm32g4xx_ll_usb.c ****             pmabuffer = ep->pmaaddr1;
 2223              		.loc 1 395 13 view .LVU757
 395:Drivers/STM32G4xx_HAL_Driver/Src/stm32g4xx_ll_usb.c ****             pmabuffer = ep->pmaaddr1;
 2224              		.loc 1 395 13 view .LVU758
 2225 017c 6278     		ldrb	r2, [r4, #1]	@ zero_extendqisi2
 2226 017e 8ABB     		cbnz	r2, .L74
 395:Drivers/STM32G4xx_HAL_Driver/Src/stm32g4xx_ll_usb.c ****             pmabuffer = ep->pmaaddr1;
 2227              		.loc 1 395 13 discriminator 1 view .LVU759
 2228              	.LBB74:
 395:Drivers/STM32G4xx_HAL_Driver/Src/stm32g4xx_ll_usb.c ****             pmabuffer = ep->pmaaddr1;
 2229              		.loc 1 395 13 discriminator 1 view .LVU760
 2230              	.LVL232:
 395:Drivers/STM32G4xx_HAL_Driver/Src/stm32g4xx_ll_usb.c ****             pmabuffer = ep->pmaaddr1;
 2231              		.loc 1 395 13 discriminator 1 view .LVU761
 395:Drivers/STM32G4xx_HAL_Driver/Src/stm32g4xx_ll_usb.c ****             pmabuffer = ep->pmaaddr1;
 2232              		.loc 1 395 13 discriminator 1 view .LVU762
 2233 0180 B5F85020 		ldrh	r2, [r5, #80]
 2234 0184 15FA82F2 		uxtah	r2, r5, r2
 2235              	.LVL233:
 395:Drivers/STM32G4xx_HAL_Driver/Src/stm32g4xx_ll_usb.c ****             pmabuffer = ep->pmaaddr1;
 2236              		.loc 1 395 13 discriminator 1 view .LVU763
 2237 0188 02EBC303 		add	r3, r2, r3, lsl #3
 2238              	.LVL234:
 395:Drivers/STM32G4xx_HAL_Driver/Src/stm32g4xx_ll_usb.c ****             pmabuffer = ep->pmaaddr1;
 2239              		.loc 1 395 13 discriminator 1 view .LVU764
 2240              	.LBB75:
 395:Drivers/STM32G4xx_HAL_Driver/Src/stm32g4xx_ll_usb.c ****             pmabuffer = ep->pmaaddr1;
 2241              		.loc 1 395 13 discriminator 1 view .LVU765
 395:Drivers/STM32G4xx_HAL_Driver/Src/stm32g4xx_ll_usb.c ****             pmabuffer = ep->pmaaddr1;
 2242              		.loc 1 395 13 discriminator 1 view .LVU766
 2243 018c 8EB9     		cbnz	r6, .L75
 395:Drivers/STM32G4xx_HAL_Driver/Src/stm32g4xx_ll_usb.c ****             pmabuffer = ep->pmaaddr1;
ARM GAS  C:\Users\Jack2bs\AppData\Local\Temp\ccBBPckb.s 			page 61


 2244              		.loc 1 395 13 discriminator 3 view .LVU767
 2245 018e B3F80624 		ldrh	r2, [r3, #1030]
 2246              	.LVL235:
 395:Drivers/STM32G4xx_HAL_Driver/Src/stm32g4xx_ll_usb.c ****             pmabuffer = ep->pmaaddr1;
 2247              		.loc 1 395 13 is_stmt 0 discriminator 3 view .LVU768
 2248 0192 92B2     		uxth	r2, r2
 2249 0194 22F4F842 		bic	r2, r2, #31744
 2250 0198 92B2     		uxth	r2, r2
 2251 019a A3F80624 		strh	r2, [r3, #1030]	@ movhi
 395:Drivers/STM32G4xx_HAL_Driver/Src/stm32g4xx_ll_usb.c ****             pmabuffer = ep->pmaaddr1;
 2252              		.loc 1 395 13 is_stmt 1 discriminator 3 view .LVU769
 2253 019e B3F80624 		ldrh	r2, [r3, #1030]
 2254 01a2 6FEA4242 		mvn	r2, r2, lsl #17
 2255 01a6 6FEA5242 		mvn	r2, r2, lsr #17
 2256 01aa 92B2     		uxth	r2, r2
 2257 01ac A3F80624 		strh	r2, [r3, #1030]	@ movhi
 2258 01b0 1AE0     		b	.L76
 2259              	.LVL236:
 2260              	.L75:
 395:Drivers/STM32G4xx_HAL_Driver/Src/stm32g4xx_ll_usb.c ****             pmabuffer = ep->pmaaddr1;
 2261              		.loc 1 395 13 discriminator 4 view .LVU770
 2262 01b2 3E2E     		cmp	r6, #62
 2263 01b4 09D8     		bhi	.L77
 395:Drivers/STM32G4xx_HAL_Driver/Src/stm32g4xx_ll_usb.c ****             pmabuffer = ep->pmaaddr1;
 2264              		.loc 1 395 13 discriminator 6 view .LVU771
 395:Drivers/STM32G4xx_HAL_Driver/Src/stm32g4xx_ll_usb.c ****             pmabuffer = ep->pmaaddr1;
 2265              		.loc 1 395 13 discriminator 6 view .LVU772
 2266 01b6 7208     		lsrs	r2, r6, #1
 2267              	.LVL237:
 395:Drivers/STM32G4xx_HAL_Driver/Src/stm32g4xx_ll_usb.c ****             pmabuffer = ep->pmaaddr1;
 2268              		.loc 1 395 13 discriminator 6 view .LVU773
 2269 01b8 16F0010F 		tst	r6, #1
 2270 01bc 00D0     		beq	.L78
 395:Drivers/STM32G4xx_HAL_Driver/Src/stm32g4xx_ll_usb.c ****             pmabuffer = ep->pmaaddr1;
 2271              		.loc 1 395 13 discriminator 8 view .LVU774
 2272 01be 0132     		adds	r2, r2, #1
 2273              	.LVL238:
 2274              	.L78:
 395:Drivers/STM32G4xx_HAL_Driver/Src/stm32g4xx_ll_usb.c ****             pmabuffer = ep->pmaaddr1;
 2275              		.loc 1 395 13 discriminator 10 view .LVU775
 2276 01c0 9202     		lsls	r2, r2, #10
 2277              	.LVL239:
 395:Drivers/STM32G4xx_HAL_Driver/Src/stm32g4xx_ll_usb.c ****             pmabuffer = ep->pmaaddr1;
 2278              		.loc 1 395 13 is_stmt 0 discriminator 10 view .LVU776
 2279 01c2 92B2     		uxth	r2, r2
 2280 01c4 A3F80624 		strh	r2, [r3, #1030]	@ movhi
 395:Drivers/STM32G4xx_HAL_Driver/Src/stm32g4xx_ll_usb.c ****             pmabuffer = ep->pmaaddr1;
 2281              		.loc 1 395 13 is_stmt 1 discriminator 10 view .LVU777
 2282 01c8 0EE0     		b	.L76
 2283              	.LVL240:
 2284              	.L77:
 395:Drivers/STM32G4xx_HAL_Driver/Src/stm32g4xx_ll_usb.c ****             pmabuffer = ep->pmaaddr1;
 2285              		.loc 1 395 13 discriminator 7 view .LVU778
 395:Drivers/STM32G4xx_HAL_Driver/Src/stm32g4xx_ll_usb.c ****             pmabuffer = ep->pmaaddr1;
 2286              		.loc 1 395 13 discriminator 7 view .LVU779
 2287 01ca 7209     		lsrs	r2, r6, #5
 2288              	.LVL241:
ARM GAS  C:\Users\Jack2bs\AppData\Local\Temp\ccBBPckb.s 			page 62


 395:Drivers/STM32G4xx_HAL_Driver/Src/stm32g4xx_ll_usb.c ****             pmabuffer = ep->pmaaddr1;
 2289              		.loc 1 395 13 discriminator 7 view .LVU780
 2290 01cc 16F01F0F 		tst	r6, #31
 2291 01d0 00D1     		bne	.L79
 395:Drivers/STM32G4xx_HAL_Driver/Src/stm32g4xx_ll_usb.c ****             pmabuffer = ep->pmaaddr1;
 2292              		.loc 1 395 13 discriminator 12 view .LVU781
 2293 01d2 013A     		subs	r2, r2, #1
 2294              	.LVL242:
 2295              	.L79:
 395:Drivers/STM32G4xx_HAL_Driver/Src/stm32g4xx_ll_usb.c ****             pmabuffer = ep->pmaaddr1;
 2296              		.loc 1 395 13 discriminator 14 view .LVU782
 2297 01d4 6FEAC262 		mvn	r2, r2, lsl #27
 2298              	.LVL243:
 395:Drivers/STM32G4xx_HAL_Driver/Src/stm32g4xx_ll_usb.c ****             pmabuffer = ep->pmaaddr1;
 2299              		.loc 1 395 13 is_stmt 0 discriminator 14 view .LVU783
 2300 01d8 6FEA5242 		mvn	r2, r2, lsr #17
 2301 01dc 92B2     		uxth	r2, r2
 2302 01de A3F80624 		strh	r2, [r3, #1030]	@ movhi
 2303 01e2 01E0     		b	.L76
 2304              	.LVL244:
 2305              	.L74:
 395:Drivers/STM32G4xx_HAL_Driver/Src/stm32g4xx_ll_usb.c ****             pmabuffer = ep->pmaaddr1;
 2306              		.loc 1 395 13 discriminator 14 view .LVU784
 2307              	.LBE75:
 2308              	.LBE74:
 395:Drivers/STM32G4xx_HAL_Driver/Src/stm32g4xx_ll_usb.c ****             pmabuffer = ep->pmaaddr1;
 2309              		.loc 1 395 13 is_stmt 1 discriminator 2 view .LVU785
 2310 01e4 012A     		cmp	r2, #1
 2311 01e6 2BD0     		beq	.L168
 2312              	.LVL245:
 2313              	.L76:
 395:Drivers/STM32G4xx_HAL_Driver/Src/stm32g4xx_ll_usb.c ****             pmabuffer = ep->pmaaddr1;
 2314              		.loc 1 395 13 is_stmt 0 discriminator 2 view .LVU786
 2315              	.LBE73:
 395:Drivers/STM32G4xx_HAL_Driver/Src/stm32g4xx_ll_usb.c ****             pmabuffer = ep->pmaaddr1;
 2316              		.loc 1 395 13 is_stmt 1 discriminator 18 view .LVU787
 396:Drivers/STM32G4xx_HAL_Driver/Src/stm32g4xx_ll_usb.c **** 
 2317              		.loc 1 396 13 discriminator 18 view .LVU788
 399:Drivers/STM32G4xx_HAL_Driver/Src/stm32g4xx_ll_usb.c ****             ep->xfer_buff += len;
 2318              		.loc 1 399 13 discriminator 18 view .LVU789
 2319 01e8 B3B2     		uxth	r3, r6
 2320 01ea 6289     		ldrh	r2, [r4, #10]
 2321 01ec 6169     		ldr	r1, [r4, #20]
 2322              	.LVL246:
 399:Drivers/STM32G4xx_HAL_Driver/Src/stm32g4xx_ll_usb.c ****             ep->xfer_buff += len;
 2323              		.loc 1 399 13 is_stmt 0 discriminator 18 view .LVU790
 2324 01ee 2846     		mov	r0, r5
 2325              	.LVL247:
 399:Drivers/STM32G4xx_HAL_Driver/Src/stm32g4xx_ll_usb.c ****             ep->xfer_buff += len;
 2326              		.loc 1 399 13 discriminator 18 view .LVU791
 2327 01f0 FFF7FEFF 		bl	USB_WritePMA
 2328              	.LVL248:
 400:Drivers/STM32G4xx_HAL_Driver/Src/stm32g4xx_ll_usb.c **** 
 2329              		.loc 1 400 13 is_stmt 1 discriminator 18 view .LVU792
 400:Drivers/STM32G4xx_HAL_Driver/Src/stm32g4xx_ll_usb.c **** 
 2330              		.loc 1 400 27 is_stmt 0 discriminator 18 view .LVU793
 2331 01f4 6369     		ldr	r3, [r4, #20]
ARM GAS  C:\Users\Jack2bs\AppData\Local\Temp\ccBBPckb.s 			page 63


 2332 01f6 3344     		add	r3, r3, r6
 2333 01f8 6361     		str	r3, [r4, #20]
 402:Drivers/STM32G4xx_HAL_Driver/Src/stm32g4xx_ll_usb.c ****             {
 2334              		.loc 1 402 13 is_stmt 1 discriminator 18 view .LVU794
 402:Drivers/STM32G4xx_HAL_Driver/Src/stm32g4xx_ll_usb.c ****             {
 2335              		.loc 1 402 19 is_stmt 0 discriminator 18 view .LVU795
 2336 01fa 236A     		ldr	r3, [r4, #32]
 402:Drivers/STM32G4xx_HAL_Driver/Src/stm32g4xx_ll_usb.c ****             {
 2337              		.loc 1 402 37 discriminator 18 view .LVU796
 2338 01fc 2269     		ldr	r2, [r4, #16]
 402:Drivers/STM32G4xx_HAL_Driver/Src/stm32g4xx_ll_usb.c ****             {
 2339              		.loc 1 402 16 discriminator 18 view .LVU797
 2340 01fe 9342     		cmp	r3, r2
 2341 0200 28D9     		bls	.L80
 404:Drivers/STM32G4xx_HAL_Driver/Src/stm32g4xx_ll_usb.c ****             }
 2342              		.loc 1 404 15 is_stmt 1 view .LVU798
 404:Drivers/STM32G4xx_HAL_Driver/Src/stm32g4xx_ll_usb.c ****             }
 2343              		.loc 1 404 31 is_stmt 0 view .LVU799
 2344 0202 9B1B     		subs	r3, r3, r6
 2345 0204 2362     		str	r3, [r4, #32]
 2346              	.L81:
 413:Drivers/STM32G4xx_HAL_Driver/Src/stm32g4xx_ll_usb.c ****             pmabuffer = ep->pmaaddr0;
 2347              		.loc 1 413 13 is_stmt 1 view .LVU800
 413:Drivers/STM32G4xx_HAL_Driver/Src/stm32g4xx_ll_usb.c ****             pmabuffer = ep->pmaaddr0;
 2348              		.loc 1 413 13 view .LVU801
 2349 0206 6378     		ldrb	r3, [r4, #1]	@ zero_extendqisi2
 2350 0208 002B     		cmp	r3, #0
 2351 020a 40D1     		bne	.L82
 413:Drivers/STM32G4xx_HAL_Driver/Src/stm32g4xx_ll_usb.c ****             pmabuffer = ep->pmaaddr0;
 2352              		.loc 1 413 13 discriminator 1 view .LVU802
 2353              	.LBB76:
 413:Drivers/STM32G4xx_HAL_Driver/Src/stm32g4xx_ll_usb.c ****             pmabuffer = ep->pmaaddr0;
 2354              		.loc 1 413 13 discriminator 1 view .LVU803
 2355              	.LVL249:
 413:Drivers/STM32G4xx_HAL_Driver/Src/stm32g4xx_ll_usb.c ****             pmabuffer = ep->pmaaddr0;
 2356              		.loc 1 413 13 discriminator 1 view .LVU804
 413:Drivers/STM32G4xx_HAL_Driver/Src/stm32g4xx_ll_usb.c ****             pmabuffer = ep->pmaaddr0;
 2357              		.loc 1 413 13 discriminator 1 view .LVU805
 2358 020c B5F85030 		ldrh	r3, [r5, #80]
 2359 0210 15FA83F3 		uxtah	r3, r5, r3
 2360              	.LVL250:
 413:Drivers/STM32G4xx_HAL_Driver/Src/stm32g4xx_ll_usb.c ****             pmabuffer = ep->pmaaddr0;
 2361              		.loc 1 413 13 discriminator 1 view .LVU806
 2362 0214 2278     		ldrb	r2, [r4]	@ zero_extendqisi2
 2363 0216 03EBC203 		add	r3, r3, r2, lsl #3
 2364              	.LVL251:
 413:Drivers/STM32G4xx_HAL_Driver/Src/stm32g4xx_ll_usb.c ****             pmabuffer = ep->pmaaddr0;
 2365              		.loc 1 413 13 discriminator 1 view .LVU807
 2366              	.LBB77:
 413:Drivers/STM32G4xx_HAL_Driver/Src/stm32g4xx_ll_usb.c ****             pmabuffer = ep->pmaaddr0;
 2367              		.loc 1 413 13 discriminator 1 view .LVU808
 413:Drivers/STM32G4xx_HAL_Driver/Src/stm32g4xx_ll_usb.c ****             pmabuffer = ep->pmaaddr0;
 2368              		.loc 1 413 13 discriminator 1 view .LVU809
 2369 021a FEB9     		cbnz	r6, .L83
 413:Drivers/STM32G4xx_HAL_Driver/Src/stm32g4xx_ll_usb.c ****             pmabuffer = ep->pmaaddr0;
 2370              		.loc 1 413 13 discriminator 3 view .LVU810
 2371 021c B3F80224 		ldrh	r2, [r3, #1026]
ARM GAS  C:\Users\Jack2bs\AppData\Local\Temp\ccBBPckb.s 			page 64


 2372 0220 92B2     		uxth	r2, r2
 2373 0222 22F4F842 		bic	r2, r2, #31744
 2374 0226 92B2     		uxth	r2, r2
 2375 0228 A3F80224 		strh	r2, [r3, #1026]	@ movhi
 413:Drivers/STM32G4xx_HAL_Driver/Src/stm32g4xx_ll_usb.c ****             pmabuffer = ep->pmaaddr0;
 2376              		.loc 1 413 13 discriminator 3 view .LVU811
 2377 022c B3F80224 		ldrh	r2, [r3, #1026]
 2378 0230 6FEA4242 		mvn	r2, r2, lsl #17
 2379 0234 6FEA5242 		mvn	r2, r2, lsr #17
 2380 0238 92B2     		uxth	r2, r2
 2381 023a A3F80224 		strh	r2, [r3, #1026]	@ movhi
 2382 023e 28E0     		b	.L84
 2383              	.LVL252:
 2384              	.L168:
 413:Drivers/STM32G4xx_HAL_Driver/Src/stm32g4xx_ll_usb.c ****             pmabuffer = ep->pmaaddr0;
 2385              		.loc 1 413 13 is_stmt 0 discriminator 3 view .LVU812
 2386              	.LBE77:
 2387              	.LBE76:
 2388              	.LBB79:
 395:Drivers/STM32G4xx_HAL_Driver/Src/stm32g4xx_ll_usb.c ****             pmabuffer = ep->pmaaddr1;
 2389              		.loc 1 395 13 is_stmt 1 discriminator 16 view .LVU813
 2390 0240 B5F85020 		ldrh	r2, [r5, #80]
 2391 0244 15FA82F2 		uxtah	r2, r5, r2
 2392              	.LVL253:
 395:Drivers/STM32G4xx_HAL_Driver/Src/stm32g4xx_ll_usb.c ****             pmabuffer = ep->pmaaddr1;
 2393              		.loc 1 395 13 discriminator 16 view .LVU814
 2394 0248 02EBC303 		add	r3, r2, r3, lsl #3
 2395              	.LVL254:
 395:Drivers/STM32G4xx_HAL_Driver/Src/stm32g4xx_ll_usb.c ****             pmabuffer = ep->pmaaddr1;
 2396              		.loc 1 395 13 discriminator 16 view .LVU815
 2397 024c B2B2     		uxth	r2, r6
 2398              	.LVL255:
 395:Drivers/STM32G4xx_HAL_Driver/Src/stm32g4xx_ll_usb.c ****             pmabuffer = ep->pmaaddr1;
 2399              		.loc 1 395 13 is_stmt 0 discriminator 16 view .LVU816
 2400 024e A3F80624 		strh	r2, [r3, #1030]	@ movhi
 2401 0252 C9E7     		b	.L76
 2402              	.LVL256:
 2403              	.L80:
 395:Drivers/STM32G4xx_HAL_Driver/Src/stm32g4xx_ll_usb.c ****             pmabuffer = ep->pmaaddr1;
 2404              		.loc 1 395 13 discriminator 16 view .LVU817
 2405              	.LBE79:
 408:Drivers/STM32G4xx_HAL_Driver/Src/stm32g4xx_ll_usb.c ****               ep->xfer_len_db = 0U;
 2406              		.loc 1 408 15 is_stmt 1 view .LVU818
 409:Drivers/STM32G4xx_HAL_Driver/Src/stm32g4xx_ll_usb.c ****             }
 2407              		.loc 1 409 15 view .LVU819
 409:Drivers/STM32G4xx_HAL_Driver/Src/stm32g4xx_ll_usb.c ****             }
 2408              		.loc 1 409 31 is_stmt 0 view .LVU820
 2409 0254 0022     		movs	r2, #0
 2410 0256 2262     		str	r2, [r4, #32]
 408:Drivers/STM32G4xx_HAL_Driver/Src/stm32g4xx_ll_usb.c ****               ep->xfer_len_db = 0U;
 2411              		.loc 1 408 19 view .LVU821
 2412 0258 1E46     		mov	r6, r3
 2413 025a D4E7     		b	.L81
 2414              	.LVL257:
 2415              	.L83:
 2416              	.LBB80:
 2417              	.LBB78:
ARM GAS  C:\Users\Jack2bs\AppData\Local\Temp\ccBBPckb.s 			page 65


 413:Drivers/STM32G4xx_HAL_Driver/Src/stm32g4xx_ll_usb.c ****             pmabuffer = ep->pmaaddr0;
 2418              		.loc 1 413 13 is_stmt 1 discriminator 4 view .LVU822
 2419 025c 3E2E     		cmp	r6, #62
 2420 025e 09D8     		bhi	.L85
 413:Drivers/STM32G4xx_HAL_Driver/Src/stm32g4xx_ll_usb.c ****             pmabuffer = ep->pmaaddr0;
 2421              		.loc 1 413 13 discriminator 6 view .LVU823
 413:Drivers/STM32G4xx_HAL_Driver/Src/stm32g4xx_ll_usb.c ****             pmabuffer = ep->pmaaddr0;
 2422              		.loc 1 413 13 discriminator 6 view .LVU824
 2423 0260 7208     		lsrs	r2, r6, #1
 2424              	.LVL258:
 413:Drivers/STM32G4xx_HAL_Driver/Src/stm32g4xx_ll_usb.c ****             pmabuffer = ep->pmaaddr0;
 2425              		.loc 1 413 13 discriminator 6 view .LVU825
 2426 0262 16F0010F 		tst	r6, #1
 2427 0266 00D0     		beq	.L86
 413:Drivers/STM32G4xx_HAL_Driver/Src/stm32g4xx_ll_usb.c ****             pmabuffer = ep->pmaaddr0;
 2428              		.loc 1 413 13 discriminator 8 view .LVU826
 2429 0268 0132     		adds	r2, r2, #1
 2430              	.LVL259:
 2431              	.L86:
 413:Drivers/STM32G4xx_HAL_Driver/Src/stm32g4xx_ll_usb.c ****             pmabuffer = ep->pmaaddr0;
 2432              		.loc 1 413 13 discriminator 10 view .LVU827
 2433 026a 9202     		lsls	r2, r2, #10
 2434              	.LVL260:
 413:Drivers/STM32G4xx_HAL_Driver/Src/stm32g4xx_ll_usb.c ****             pmabuffer = ep->pmaaddr0;
 2435              		.loc 1 413 13 is_stmt 0 discriminator 10 view .LVU828
 2436 026c 92B2     		uxth	r2, r2
 2437 026e A3F80224 		strh	r2, [r3, #1026]	@ movhi
 413:Drivers/STM32G4xx_HAL_Driver/Src/stm32g4xx_ll_usb.c ****             pmabuffer = ep->pmaaddr0;
 2438              		.loc 1 413 13 is_stmt 1 discriminator 10 view .LVU829
 2439 0272 0EE0     		b	.L84
 2440              	.L85:
 413:Drivers/STM32G4xx_HAL_Driver/Src/stm32g4xx_ll_usb.c ****             pmabuffer = ep->pmaaddr0;
 2441              		.loc 1 413 13 discriminator 7 view .LVU830
 413:Drivers/STM32G4xx_HAL_Driver/Src/stm32g4xx_ll_usb.c ****             pmabuffer = ep->pmaaddr0;
 2442              		.loc 1 413 13 discriminator 7 view .LVU831
 2443 0274 7209     		lsrs	r2, r6, #5
 2444              	.LVL261:
 413:Drivers/STM32G4xx_HAL_Driver/Src/stm32g4xx_ll_usb.c ****             pmabuffer = ep->pmaaddr0;
 2445              		.loc 1 413 13 discriminator 7 view .LVU832
 2446 0276 16F01F0F 		tst	r6, #31
 2447 027a 00D1     		bne	.L87
 413:Drivers/STM32G4xx_HAL_Driver/Src/stm32g4xx_ll_usb.c ****             pmabuffer = ep->pmaaddr0;
 2448              		.loc 1 413 13 discriminator 12 view .LVU833
 2449 027c 013A     		subs	r2, r2, #1
 2450              	.LVL262:
 2451              	.L87:
 413:Drivers/STM32G4xx_HAL_Driver/Src/stm32g4xx_ll_usb.c ****             pmabuffer = ep->pmaaddr0;
 2452              		.loc 1 413 13 discriminator 14 view .LVU834
 2453 027e 6FEAC262 		mvn	r2, r2, lsl #27
 2454              	.LVL263:
 413:Drivers/STM32G4xx_HAL_Driver/Src/stm32g4xx_ll_usb.c ****             pmabuffer = ep->pmaaddr0;
 2455              		.loc 1 413 13 is_stmt 0 discriminator 14 view .LVU835
 2456 0282 6FEA5242 		mvn	r2, r2, lsr #17
 2457 0286 92B2     		uxth	r2, r2
 2458 0288 A3F80224 		strh	r2, [r3, #1026]	@ movhi
 2459 028c 01E0     		b	.L84
 2460              	.LVL264:
ARM GAS  C:\Users\Jack2bs\AppData\Local\Temp\ccBBPckb.s 			page 66


 2461              	.L82:
 413:Drivers/STM32G4xx_HAL_Driver/Src/stm32g4xx_ll_usb.c ****             pmabuffer = ep->pmaaddr0;
 2462              		.loc 1 413 13 discriminator 14 view .LVU836
 2463              	.LBE78:
 2464              	.LBE80:
 413:Drivers/STM32G4xx_HAL_Driver/Src/stm32g4xx_ll_usb.c ****             pmabuffer = ep->pmaaddr0;
 2465              		.loc 1 413 13 is_stmt 1 discriminator 2 view .LVU837
 2466 028e 012B     		cmp	r3, #1
 2467 0290 06D0     		beq	.L169
 2468              	.L84:
 413:Drivers/STM32G4xx_HAL_Driver/Src/stm32g4xx_ll_usb.c ****             pmabuffer = ep->pmaaddr0;
 2469              		.loc 1 413 13 discriminator 18 view .LVU838
 413:Drivers/STM32G4xx_HAL_Driver/Src/stm32g4xx_ll_usb.c ****             pmabuffer = ep->pmaaddr0;
 2470              		.loc 1 413 13 discriminator 18 view .LVU839
 414:Drivers/STM32G4xx_HAL_Driver/Src/stm32g4xx_ll_usb.c **** 
 2471              		.loc 1 414 13 discriminator 18 view .LVU840
 2472              	.LVL265:
 417:Drivers/STM32G4xx_HAL_Driver/Src/stm32g4xx_ll_usb.c ****           }
 2473              		.loc 1 417 13 discriminator 18 view .LVU841
 2474 0292 B3B2     		uxth	r3, r6
 2475 0294 2289     		ldrh	r2, [r4, #8]
 2476 0296 6169     		ldr	r1, [r4, #20]
 2477 0298 2846     		mov	r0, r5
 2478 029a FFF7FEFF 		bl	USB_WritePMA
 2479              	.LVL266:
 417:Drivers/STM32G4xx_HAL_Driver/Src/stm32g4xx_ll_usb.c ****           }
 2480              		.loc 1 417 13 is_stmt 0 discriminator 18 view .LVU842
 2481 029e 3FE7     		b	.L70
 2482              	.L169:
 413:Drivers/STM32G4xx_HAL_Driver/Src/stm32g4xx_ll_usb.c ****             pmabuffer = ep->pmaaddr0;
 2483              		.loc 1 413 13 is_stmt 1 discriminator 16 view .LVU843
 2484              	.LBB81:
 413:Drivers/STM32G4xx_HAL_Driver/Src/stm32g4xx_ll_usb.c ****             pmabuffer = ep->pmaaddr0;
 2485              		.loc 1 413 13 discriminator 16 view .LVU844
 2486              	.LVL267:
 413:Drivers/STM32G4xx_HAL_Driver/Src/stm32g4xx_ll_usb.c ****             pmabuffer = ep->pmaaddr0;
 2487              		.loc 1 413 13 discriminator 16 view .LVU845
 413:Drivers/STM32G4xx_HAL_Driver/Src/stm32g4xx_ll_usb.c ****             pmabuffer = ep->pmaaddr0;
 2488              		.loc 1 413 13 discriminator 16 view .LVU846
 2489 02a0 B5F85030 		ldrh	r3, [r5, #80]
 2490 02a4 15FA83F3 		uxtah	r3, r5, r3
 2491              	.LVL268:
 413:Drivers/STM32G4xx_HAL_Driver/Src/stm32g4xx_ll_usb.c ****             pmabuffer = ep->pmaaddr0;
 2492              		.loc 1 413 13 discriminator 16 view .LVU847
 2493 02a8 2278     		ldrb	r2, [r4]	@ zero_extendqisi2
 2494 02aa 03EBC203 		add	r3, r3, r2, lsl #3
 2495              	.LVL269:
 413:Drivers/STM32G4xx_HAL_Driver/Src/stm32g4xx_ll_usb.c ****             pmabuffer = ep->pmaaddr0;
 2496              		.loc 1 413 13 discriminator 16 view .LVU848
 2497 02ae B2B2     		uxth	r2, r6
 2498 02b0 A3F80224 		strh	r2, [r3, #1026]	@ movhi
 2499 02b4 EDE7     		b	.L84
 2500              	.LVL270:
 2501              	.L73:
 413:Drivers/STM32G4xx_HAL_Driver/Src/stm32g4xx_ll_usb.c ****             pmabuffer = ep->pmaaddr0;
 2502              		.loc 1 413 13 is_stmt 0 discriminator 16 view .LVU849
 2503              	.LBE81:
ARM GAS  C:\Users\Jack2bs\AppData\Local\Temp\ccBBPckb.s 			page 67


 422:Drivers/STM32G4xx_HAL_Driver/Src/stm32g4xx_ll_usb.c ****             pmabuffer = ep->pmaaddr0;
 2504              		.loc 1 422 13 is_stmt 1 view .LVU850
 422:Drivers/STM32G4xx_HAL_Driver/Src/stm32g4xx_ll_usb.c ****             pmabuffer = ep->pmaaddr0;
 2505              		.loc 1 422 13 view .LVU851
 2506 02b6 6278     		ldrb	r2, [r4, #1]	@ zero_extendqisi2
 2507 02b8 8ABB     		cbnz	r2, .L88
 422:Drivers/STM32G4xx_HAL_Driver/Src/stm32g4xx_ll_usb.c ****             pmabuffer = ep->pmaaddr0;
 2508              		.loc 1 422 13 discriminator 1 view .LVU852
 2509              	.LBB82:
 422:Drivers/STM32G4xx_HAL_Driver/Src/stm32g4xx_ll_usb.c ****             pmabuffer = ep->pmaaddr0;
 2510              		.loc 1 422 13 discriminator 1 view .LVU853
 2511              	.LVL271:
 422:Drivers/STM32G4xx_HAL_Driver/Src/stm32g4xx_ll_usb.c ****             pmabuffer = ep->pmaaddr0;
 2512              		.loc 1 422 13 discriminator 1 view .LVU854
 422:Drivers/STM32G4xx_HAL_Driver/Src/stm32g4xx_ll_usb.c ****             pmabuffer = ep->pmaaddr0;
 2513              		.loc 1 422 13 discriminator 1 view .LVU855
 2514 02ba B5F85020 		ldrh	r2, [r5, #80]
 2515 02be 15FA82F2 		uxtah	r2, r5, r2
 2516              	.LVL272:
 422:Drivers/STM32G4xx_HAL_Driver/Src/stm32g4xx_ll_usb.c ****             pmabuffer = ep->pmaaddr0;
 2517              		.loc 1 422 13 discriminator 1 view .LVU856
 2518 02c2 02EBC303 		add	r3, r2, r3, lsl #3
 2519              	.LVL273:
 422:Drivers/STM32G4xx_HAL_Driver/Src/stm32g4xx_ll_usb.c ****             pmabuffer = ep->pmaaddr0;
 2520              		.loc 1 422 13 discriminator 1 view .LVU857
 2521              	.LBB83:
 422:Drivers/STM32G4xx_HAL_Driver/Src/stm32g4xx_ll_usb.c ****             pmabuffer = ep->pmaaddr0;
 2522              		.loc 1 422 13 discriminator 1 view .LVU858
 422:Drivers/STM32G4xx_HAL_Driver/Src/stm32g4xx_ll_usb.c ****             pmabuffer = ep->pmaaddr0;
 2523              		.loc 1 422 13 discriminator 1 view .LVU859
 2524 02c6 8EB9     		cbnz	r6, .L89
 422:Drivers/STM32G4xx_HAL_Driver/Src/stm32g4xx_ll_usb.c ****             pmabuffer = ep->pmaaddr0;
 2525              		.loc 1 422 13 discriminator 3 view .LVU860
 2526 02c8 B3F80224 		ldrh	r2, [r3, #1026]
 2527              	.LVL274:
 422:Drivers/STM32G4xx_HAL_Driver/Src/stm32g4xx_ll_usb.c ****             pmabuffer = ep->pmaaddr0;
 2528              		.loc 1 422 13 is_stmt 0 discriminator 3 view .LVU861
 2529 02cc 92B2     		uxth	r2, r2
 2530 02ce 22F4F842 		bic	r2, r2, #31744
 2531 02d2 92B2     		uxth	r2, r2
 2532 02d4 A3F80224 		strh	r2, [r3, #1026]	@ movhi
 422:Drivers/STM32G4xx_HAL_Driver/Src/stm32g4xx_ll_usb.c ****             pmabuffer = ep->pmaaddr0;
 2533              		.loc 1 422 13 is_stmt 1 discriminator 3 view .LVU862
 2534 02d8 B3F80224 		ldrh	r2, [r3, #1026]
 2535 02dc 6FEA4242 		mvn	r2, r2, lsl #17
 2536 02e0 6FEA5242 		mvn	r2, r2, lsr #17
 2537 02e4 92B2     		uxth	r2, r2
 2538 02e6 A3F80224 		strh	r2, [r3, #1026]	@ movhi
 2539 02ea 1AE0     		b	.L90
 2540              	.LVL275:
 2541              	.L89:
 422:Drivers/STM32G4xx_HAL_Driver/Src/stm32g4xx_ll_usb.c ****             pmabuffer = ep->pmaaddr0;
 2542              		.loc 1 422 13 discriminator 4 view .LVU863
 2543 02ec 3E2E     		cmp	r6, #62
 2544 02ee 09D8     		bhi	.L91
 422:Drivers/STM32G4xx_HAL_Driver/Src/stm32g4xx_ll_usb.c ****             pmabuffer = ep->pmaaddr0;
 2545              		.loc 1 422 13 discriminator 6 view .LVU864
ARM GAS  C:\Users\Jack2bs\AppData\Local\Temp\ccBBPckb.s 			page 68


 422:Drivers/STM32G4xx_HAL_Driver/Src/stm32g4xx_ll_usb.c ****             pmabuffer = ep->pmaaddr0;
 2546              		.loc 1 422 13 discriminator 6 view .LVU865
 2547 02f0 7208     		lsrs	r2, r6, #1
 2548              	.LVL276:
 422:Drivers/STM32G4xx_HAL_Driver/Src/stm32g4xx_ll_usb.c ****             pmabuffer = ep->pmaaddr0;
 2549              		.loc 1 422 13 discriminator 6 view .LVU866
 2550 02f2 16F0010F 		tst	r6, #1
 2551 02f6 00D0     		beq	.L92
 422:Drivers/STM32G4xx_HAL_Driver/Src/stm32g4xx_ll_usb.c ****             pmabuffer = ep->pmaaddr0;
 2552              		.loc 1 422 13 discriminator 8 view .LVU867
 2553 02f8 0132     		adds	r2, r2, #1
 2554              	.LVL277:
 2555              	.L92:
 422:Drivers/STM32G4xx_HAL_Driver/Src/stm32g4xx_ll_usb.c ****             pmabuffer = ep->pmaaddr0;
 2556              		.loc 1 422 13 discriminator 10 view .LVU868
 2557 02fa 9202     		lsls	r2, r2, #10
 2558              	.LVL278:
 422:Drivers/STM32G4xx_HAL_Driver/Src/stm32g4xx_ll_usb.c ****             pmabuffer = ep->pmaaddr0;
 2559              		.loc 1 422 13 is_stmt 0 discriminator 10 view .LVU869
 2560 02fc 92B2     		uxth	r2, r2
 2561 02fe A3F80224 		strh	r2, [r3, #1026]	@ movhi
 422:Drivers/STM32G4xx_HAL_Driver/Src/stm32g4xx_ll_usb.c ****             pmabuffer = ep->pmaaddr0;
 2562              		.loc 1 422 13 is_stmt 1 discriminator 10 view .LVU870
 2563 0302 0EE0     		b	.L90
 2564              	.LVL279:
 2565              	.L91:
 422:Drivers/STM32G4xx_HAL_Driver/Src/stm32g4xx_ll_usb.c ****             pmabuffer = ep->pmaaddr0;
 2566              		.loc 1 422 13 discriminator 7 view .LVU871
 422:Drivers/STM32G4xx_HAL_Driver/Src/stm32g4xx_ll_usb.c ****             pmabuffer = ep->pmaaddr0;
 2567              		.loc 1 422 13 discriminator 7 view .LVU872
 2568 0304 7209     		lsrs	r2, r6, #5
 2569              	.LVL280:
 422:Drivers/STM32G4xx_HAL_Driver/Src/stm32g4xx_ll_usb.c ****             pmabuffer = ep->pmaaddr0;
 2570              		.loc 1 422 13 discriminator 7 view .LVU873
 2571 0306 16F01F0F 		tst	r6, #31
 2572 030a 00D1     		bne	.L93
 422:Drivers/STM32G4xx_HAL_Driver/Src/stm32g4xx_ll_usb.c ****             pmabuffer = ep->pmaaddr0;
 2573              		.loc 1 422 13 discriminator 12 view .LVU874
 2574 030c 013A     		subs	r2, r2, #1
 2575              	.LVL281:
 2576              	.L93:
 422:Drivers/STM32G4xx_HAL_Driver/Src/stm32g4xx_ll_usb.c ****             pmabuffer = ep->pmaaddr0;
 2577              		.loc 1 422 13 discriminator 14 view .LVU875
 2578 030e 6FEAC262 		mvn	r2, r2, lsl #27
 2579              	.LVL282:
 422:Drivers/STM32G4xx_HAL_Driver/Src/stm32g4xx_ll_usb.c ****             pmabuffer = ep->pmaaddr0;
 2580              		.loc 1 422 13 is_stmt 0 discriminator 14 view .LVU876
 2581 0312 6FEA5242 		mvn	r2, r2, lsr #17
 2582 0316 92B2     		uxth	r2, r2
 2583 0318 A3F80224 		strh	r2, [r3, #1026]	@ movhi
 2584 031c 01E0     		b	.L90
 2585              	.LVL283:
 2586              	.L88:
 422:Drivers/STM32G4xx_HAL_Driver/Src/stm32g4xx_ll_usb.c ****             pmabuffer = ep->pmaaddr0;
 2587              		.loc 1 422 13 discriminator 14 view .LVU877
 2588              	.LBE83:
 2589              	.LBE82:
ARM GAS  C:\Users\Jack2bs\AppData\Local\Temp\ccBBPckb.s 			page 69


 422:Drivers/STM32G4xx_HAL_Driver/Src/stm32g4xx_ll_usb.c ****             pmabuffer = ep->pmaaddr0;
 2590              		.loc 1 422 13 is_stmt 1 discriminator 2 view .LVU878
 2591 031e 012A     		cmp	r2, #1
 2592 0320 2BD0     		beq	.L170
 2593              	.L90:
 422:Drivers/STM32G4xx_HAL_Driver/Src/stm32g4xx_ll_usb.c ****             pmabuffer = ep->pmaaddr0;
 2594              		.loc 1 422 13 discriminator 18 view .LVU879
 422:Drivers/STM32G4xx_HAL_Driver/Src/stm32g4xx_ll_usb.c ****             pmabuffer = ep->pmaaddr0;
 2595              		.loc 1 422 13 discriminator 18 view .LVU880
 423:Drivers/STM32G4xx_HAL_Driver/Src/stm32g4xx_ll_usb.c **** 
 2596              		.loc 1 423 13 discriminator 18 view .LVU881
 2597              	.LVL284:
 426:Drivers/STM32G4xx_HAL_Driver/Src/stm32g4xx_ll_usb.c ****             ep->xfer_buff += len;
 2598              		.loc 1 426 13 discriminator 18 view .LVU882
 2599 0322 B3B2     		uxth	r3, r6
 2600 0324 2289     		ldrh	r2, [r4, #8]
 2601 0326 6169     		ldr	r1, [r4, #20]
 2602              	.LVL285:
 426:Drivers/STM32G4xx_HAL_Driver/Src/stm32g4xx_ll_usb.c ****             ep->xfer_buff += len;
 2603              		.loc 1 426 13 is_stmt 0 discriminator 18 view .LVU883
 2604 0328 2846     		mov	r0, r5
 2605              	.LVL286:
 426:Drivers/STM32G4xx_HAL_Driver/Src/stm32g4xx_ll_usb.c ****             ep->xfer_buff += len;
 2606              		.loc 1 426 13 discriminator 18 view .LVU884
 2607 032a FFF7FEFF 		bl	USB_WritePMA
 2608              	.LVL287:
 427:Drivers/STM32G4xx_HAL_Driver/Src/stm32g4xx_ll_usb.c **** 
 2609              		.loc 1 427 13 is_stmt 1 discriminator 18 view .LVU885
 427:Drivers/STM32G4xx_HAL_Driver/Src/stm32g4xx_ll_usb.c **** 
 2610              		.loc 1 427 27 is_stmt 0 discriminator 18 view .LVU886
 2611 032e 6369     		ldr	r3, [r4, #20]
 2612 0330 3344     		add	r3, r3, r6
 2613 0332 6361     		str	r3, [r4, #20]
 429:Drivers/STM32G4xx_HAL_Driver/Src/stm32g4xx_ll_usb.c ****             {
 2614              		.loc 1 429 13 is_stmt 1 discriminator 18 view .LVU887
 429:Drivers/STM32G4xx_HAL_Driver/Src/stm32g4xx_ll_usb.c ****             {
 2615              		.loc 1 429 19 is_stmt 0 discriminator 18 view .LVU888
 2616 0334 236A     		ldr	r3, [r4, #32]
 429:Drivers/STM32G4xx_HAL_Driver/Src/stm32g4xx_ll_usb.c ****             {
 2617              		.loc 1 429 37 discriminator 18 view .LVU889
 2618 0336 2269     		ldr	r2, [r4, #16]
 429:Drivers/STM32G4xx_HAL_Driver/Src/stm32g4xx_ll_usb.c ****             {
 2619              		.loc 1 429 16 discriminator 18 view .LVU890
 2620 0338 9342     		cmp	r3, r2
 2621 033a 28D9     		bls	.L94
 431:Drivers/STM32G4xx_HAL_Driver/Src/stm32g4xx_ll_usb.c ****             }
 2622              		.loc 1 431 15 is_stmt 1 view .LVU891
 431:Drivers/STM32G4xx_HAL_Driver/Src/stm32g4xx_ll_usb.c ****             }
 2623              		.loc 1 431 31 is_stmt 0 view .LVU892
 2624 033c 9B1B     		subs	r3, r3, r6
 2625 033e 2362     		str	r3, [r4, #32]
 2626              	.L95:
 440:Drivers/STM32G4xx_HAL_Driver/Src/stm32g4xx_ll_usb.c ****             pmabuffer = ep->pmaaddr1;
 2627              		.loc 1 440 13 is_stmt 1 view .LVU893
 2628              	.LBB84:
 440:Drivers/STM32G4xx_HAL_Driver/Src/stm32g4xx_ll_usb.c ****             pmabuffer = ep->pmaaddr1;
 2629              		.loc 1 440 13 view .LVU894
ARM GAS  C:\Users\Jack2bs\AppData\Local\Temp\ccBBPckb.s 			page 70


 2630              	.LVL288:
 440:Drivers/STM32G4xx_HAL_Driver/Src/stm32g4xx_ll_usb.c ****             pmabuffer = ep->pmaaddr1;
 2631              		.loc 1 440 13 view .LVU895
 440:Drivers/STM32G4xx_HAL_Driver/Src/stm32g4xx_ll_usb.c ****             pmabuffer = ep->pmaaddr1;
 2632              		.loc 1 440 13 view .LVU896
 2633 0340 6378     		ldrb	r3, [r4, #1]	@ zero_extendqisi2
 2634 0342 002B     		cmp	r3, #0
 2635 0344 40D1     		bne	.L96
 440:Drivers/STM32G4xx_HAL_Driver/Src/stm32g4xx_ll_usb.c ****             pmabuffer = ep->pmaaddr1;
 2636              		.loc 1 440 13 discriminator 1 view .LVU897
 2637              	.LBB85:
 440:Drivers/STM32G4xx_HAL_Driver/Src/stm32g4xx_ll_usb.c ****             pmabuffer = ep->pmaaddr1;
 2638              		.loc 1 440 13 discriminator 1 view .LVU898
 2639              	.LVL289:
 440:Drivers/STM32G4xx_HAL_Driver/Src/stm32g4xx_ll_usb.c ****             pmabuffer = ep->pmaaddr1;
 2640              		.loc 1 440 13 discriminator 1 view .LVU899
 440:Drivers/STM32G4xx_HAL_Driver/Src/stm32g4xx_ll_usb.c ****             pmabuffer = ep->pmaaddr1;
 2641              		.loc 1 440 13 discriminator 1 view .LVU900
 2642 0346 B5F85030 		ldrh	r3, [r5, #80]
 2643 034a 15FA83F3 		uxtah	r3, r5, r3
 2644              	.LVL290:
 440:Drivers/STM32G4xx_HAL_Driver/Src/stm32g4xx_ll_usb.c ****             pmabuffer = ep->pmaaddr1;
 2645              		.loc 1 440 13 discriminator 1 view .LVU901
 2646 034e 2278     		ldrb	r2, [r4]	@ zero_extendqisi2
 2647 0350 03EBC203 		add	r3, r3, r2, lsl #3
 2648              	.LVL291:
 440:Drivers/STM32G4xx_HAL_Driver/Src/stm32g4xx_ll_usb.c ****             pmabuffer = ep->pmaaddr1;
 2649              		.loc 1 440 13 discriminator 1 view .LVU902
 2650              	.LBB86:
 440:Drivers/STM32G4xx_HAL_Driver/Src/stm32g4xx_ll_usb.c ****             pmabuffer = ep->pmaaddr1;
 2651              		.loc 1 440 13 discriminator 1 view .LVU903
 440:Drivers/STM32G4xx_HAL_Driver/Src/stm32g4xx_ll_usb.c ****             pmabuffer = ep->pmaaddr1;
 2652              		.loc 1 440 13 discriminator 1 view .LVU904
 2653 0354 FEB9     		cbnz	r6, .L97
 440:Drivers/STM32G4xx_HAL_Driver/Src/stm32g4xx_ll_usb.c ****             pmabuffer = ep->pmaaddr1;
 2654              		.loc 1 440 13 discriminator 3 view .LVU905
 2655 0356 B3F80624 		ldrh	r2, [r3, #1030]
 2656 035a 92B2     		uxth	r2, r2
 2657 035c 22F4F842 		bic	r2, r2, #31744
 2658 0360 92B2     		uxth	r2, r2
 2659 0362 A3F80624 		strh	r2, [r3, #1030]	@ movhi
 440:Drivers/STM32G4xx_HAL_Driver/Src/stm32g4xx_ll_usb.c ****             pmabuffer = ep->pmaaddr1;
 2660              		.loc 1 440 13 discriminator 3 view .LVU906
 2661 0366 B3F80624 		ldrh	r2, [r3, #1030]
 2662 036a 6FEA4242 		mvn	r2, r2, lsl #17
 2663 036e 6FEA5242 		mvn	r2, r2, lsr #17
 2664 0372 92B2     		uxth	r2, r2
 2665 0374 A3F80624 		strh	r2, [r3, #1030]	@ movhi
 2666 0378 28E0     		b	.L98
 2667              	.LVL292:
 2668              	.L170:
 440:Drivers/STM32G4xx_HAL_Driver/Src/stm32g4xx_ll_usb.c ****             pmabuffer = ep->pmaaddr1;
 2669              		.loc 1 440 13 is_stmt 0 discriminator 3 view .LVU907
 2670              	.LBE86:
 2671              	.LBE85:
 2672              	.LBE84:
 422:Drivers/STM32G4xx_HAL_Driver/Src/stm32g4xx_ll_usb.c ****             pmabuffer = ep->pmaaddr0;
ARM GAS  C:\Users\Jack2bs\AppData\Local\Temp\ccBBPckb.s 			page 71


 2673              		.loc 1 422 13 is_stmt 1 discriminator 16 view .LVU908
 2674              	.LBB89:
 422:Drivers/STM32G4xx_HAL_Driver/Src/stm32g4xx_ll_usb.c ****             pmabuffer = ep->pmaaddr0;
 2675              		.loc 1 422 13 discriminator 16 view .LVU909
 422:Drivers/STM32G4xx_HAL_Driver/Src/stm32g4xx_ll_usb.c ****             pmabuffer = ep->pmaaddr0;
 2676              		.loc 1 422 13 discriminator 16 view .LVU910
 422:Drivers/STM32G4xx_HAL_Driver/Src/stm32g4xx_ll_usb.c ****             pmabuffer = ep->pmaaddr0;
 2677              		.loc 1 422 13 discriminator 16 view .LVU911
 2678 037a B5F85020 		ldrh	r2, [r5, #80]
 2679 037e 15FA82F2 		uxtah	r2, r5, r2
 2680              	.LVL293:
 422:Drivers/STM32G4xx_HAL_Driver/Src/stm32g4xx_ll_usb.c ****             pmabuffer = ep->pmaaddr0;
 2681              		.loc 1 422 13 discriminator 16 view .LVU912
 2682 0382 02EBC303 		add	r3, r2, r3, lsl #3
 2683              	.LVL294:
 422:Drivers/STM32G4xx_HAL_Driver/Src/stm32g4xx_ll_usb.c ****             pmabuffer = ep->pmaaddr0;
 2684              		.loc 1 422 13 discriminator 16 view .LVU913
 2685 0386 B2B2     		uxth	r2, r6
 2686              	.LVL295:
 422:Drivers/STM32G4xx_HAL_Driver/Src/stm32g4xx_ll_usb.c ****             pmabuffer = ep->pmaaddr0;
 2687              		.loc 1 422 13 is_stmt 0 discriminator 16 view .LVU914
 2688 0388 A3F80224 		strh	r2, [r3, #1026]	@ movhi
 2689 038c C9E7     		b	.L90
 2690              	.LVL296:
 2691              	.L94:
 422:Drivers/STM32G4xx_HAL_Driver/Src/stm32g4xx_ll_usb.c ****             pmabuffer = ep->pmaaddr0;
 2692              		.loc 1 422 13 discriminator 16 view .LVU915
 2693              	.LBE89:
 435:Drivers/STM32G4xx_HAL_Driver/Src/stm32g4xx_ll_usb.c ****               ep->xfer_len_db = 0U;
 2694              		.loc 1 435 15 is_stmt 1 view .LVU916
 436:Drivers/STM32G4xx_HAL_Driver/Src/stm32g4xx_ll_usb.c ****             }
 2695              		.loc 1 436 15 view .LVU917
 436:Drivers/STM32G4xx_HAL_Driver/Src/stm32g4xx_ll_usb.c ****             }
 2696              		.loc 1 436 31 is_stmt 0 view .LVU918
 2697 038e 0022     		movs	r2, #0
 2698 0390 2262     		str	r2, [r4, #32]
 435:Drivers/STM32G4xx_HAL_Driver/Src/stm32g4xx_ll_usb.c ****               ep->xfer_len_db = 0U;
 2699              		.loc 1 435 19 view .LVU919
 2700 0392 1E46     		mov	r6, r3
 2701 0394 D4E7     		b	.L95
 2702              	.LVL297:
 2703              	.L97:
 2704              	.LBB90:
 2705              	.LBB88:
 2706              	.LBB87:
 440:Drivers/STM32G4xx_HAL_Driver/Src/stm32g4xx_ll_usb.c ****             pmabuffer = ep->pmaaddr1;
 2707              		.loc 1 440 13 is_stmt 1 discriminator 4 view .LVU920
 2708 0396 3E2E     		cmp	r6, #62
 2709 0398 09D8     		bhi	.L99
 440:Drivers/STM32G4xx_HAL_Driver/Src/stm32g4xx_ll_usb.c ****             pmabuffer = ep->pmaaddr1;
 2710              		.loc 1 440 13 discriminator 6 view .LVU921
 440:Drivers/STM32G4xx_HAL_Driver/Src/stm32g4xx_ll_usb.c ****             pmabuffer = ep->pmaaddr1;
 2711              		.loc 1 440 13 discriminator 6 view .LVU922
 2712 039a 7208     		lsrs	r2, r6, #1
 2713              	.LVL298:
 440:Drivers/STM32G4xx_HAL_Driver/Src/stm32g4xx_ll_usb.c ****             pmabuffer = ep->pmaaddr1;
 2714              		.loc 1 440 13 discriminator 6 view .LVU923
ARM GAS  C:\Users\Jack2bs\AppData\Local\Temp\ccBBPckb.s 			page 72


 2715 039c 16F0010F 		tst	r6, #1
 2716 03a0 00D0     		beq	.L100
 440:Drivers/STM32G4xx_HAL_Driver/Src/stm32g4xx_ll_usb.c ****             pmabuffer = ep->pmaaddr1;
 2717              		.loc 1 440 13 discriminator 8 view .LVU924
 2718 03a2 0132     		adds	r2, r2, #1
 2719              	.LVL299:
 2720              	.L100:
 440:Drivers/STM32G4xx_HAL_Driver/Src/stm32g4xx_ll_usb.c ****             pmabuffer = ep->pmaaddr1;
 2721              		.loc 1 440 13 discriminator 10 view .LVU925
 2722 03a4 9202     		lsls	r2, r2, #10
 2723              	.LVL300:
 440:Drivers/STM32G4xx_HAL_Driver/Src/stm32g4xx_ll_usb.c ****             pmabuffer = ep->pmaaddr1;
 2724              		.loc 1 440 13 is_stmt 0 discriminator 10 view .LVU926
 2725 03a6 92B2     		uxth	r2, r2
 2726 03a8 A3F80624 		strh	r2, [r3, #1030]	@ movhi
 440:Drivers/STM32G4xx_HAL_Driver/Src/stm32g4xx_ll_usb.c ****             pmabuffer = ep->pmaaddr1;
 2727              		.loc 1 440 13 is_stmt 1 discriminator 10 view .LVU927
 2728 03ac 0EE0     		b	.L98
 2729              	.L99:
 440:Drivers/STM32G4xx_HAL_Driver/Src/stm32g4xx_ll_usb.c ****             pmabuffer = ep->pmaaddr1;
 2730              		.loc 1 440 13 discriminator 7 view .LVU928
 440:Drivers/STM32G4xx_HAL_Driver/Src/stm32g4xx_ll_usb.c ****             pmabuffer = ep->pmaaddr1;
 2731              		.loc 1 440 13 discriminator 7 view .LVU929
 2732 03ae 7209     		lsrs	r2, r6, #5
 2733              	.LVL301:
 440:Drivers/STM32G4xx_HAL_Driver/Src/stm32g4xx_ll_usb.c ****             pmabuffer = ep->pmaaddr1;
 2734              		.loc 1 440 13 discriminator 7 view .LVU930
 2735 03b0 16F01F0F 		tst	r6, #31
 2736 03b4 00D1     		bne	.L101
 440:Drivers/STM32G4xx_HAL_Driver/Src/stm32g4xx_ll_usb.c ****             pmabuffer = ep->pmaaddr1;
 2737              		.loc 1 440 13 discriminator 12 view .LVU931
 2738 03b6 013A     		subs	r2, r2, #1
 2739              	.LVL302:
 2740              	.L101:
 440:Drivers/STM32G4xx_HAL_Driver/Src/stm32g4xx_ll_usb.c ****             pmabuffer = ep->pmaaddr1;
 2741              		.loc 1 440 13 discriminator 14 view .LVU932
 2742 03b8 6FEAC262 		mvn	r2, r2, lsl #27
 2743              	.LVL303:
 440:Drivers/STM32G4xx_HAL_Driver/Src/stm32g4xx_ll_usb.c ****             pmabuffer = ep->pmaaddr1;
 2744              		.loc 1 440 13 is_stmt 0 discriminator 14 view .LVU933
 2745 03bc 6FEA5242 		mvn	r2, r2, lsr #17
 2746 03c0 92B2     		uxth	r2, r2
 2747 03c2 A3F80624 		strh	r2, [r3, #1030]	@ movhi
 2748 03c6 01E0     		b	.L98
 2749              	.LVL304:
 2750              	.L96:
 440:Drivers/STM32G4xx_HAL_Driver/Src/stm32g4xx_ll_usb.c ****             pmabuffer = ep->pmaaddr1;
 2751              		.loc 1 440 13 discriminator 14 view .LVU934
 2752              	.LBE87:
 2753              	.LBE88:
 440:Drivers/STM32G4xx_HAL_Driver/Src/stm32g4xx_ll_usb.c ****             pmabuffer = ep->pmaaddr1;
 2754              		.loc 1 440 13 is_stmt 1 discriminator 2 view .LVU935
 2755 03c8 012B     		cmp	r3, #1
 2756 03ca 06D0     		beq	.L171
 2757              	.LVL305:
 2758              	.L98:
 440:Drivers/STM32G4xx_HAL_Driver/Src/stm32g4xx_ll_usb.c ****             pmabuffer = ep->pmaaddr1;
ARM GAS  C:\Users\Jack2bs\AppData\Local\Temp\ccBBPckb.s 			page 73


 2759              		.loc 1 440 13 is_stmt 0 discriminator 2 view .LVU936
 2760              	.LBE90:
 440:Drivers/STM32G4xx_HAL_Driver/Src/stm32g4xx_ll_usb.c ****             pmabuffer = ep->pmaaddr1;
 2761              		.loc 1 440 13 is_stmt 1 discriminator 18 view .LVU937
 441:Drivers/STM32G4xx_HAL_Driver/Src/stm32g4xx_ll_usb.c **** 
 2762              		.loc 1 441 13 discriminator 18 view .LVU938
 444:Drivers/STM32G4xx_HAL_Driver/Src/stm32g4xx_ll_usb.c ****           }
 2763              		.loc 1 444 13 discriminator 18 view .LVU939
 2764 03cc B3B2     		uxth	r3, r6
 2765 03ce 6289     		ldrh	r2, [r4, #10]
 2766 03d0 6169     		ldr	r1, [r4, #20]
 2767 03d2 2846     		mov	r0, r5
 2768 03d4 FFF7FEFF 		bl	USB_WritePMA
 2769              	.LVL306:
 444:Drivers/STM32G4xx_HAL_Driver/Src/stm32g4xx_ll_usb.c ****           }
 2770              		.loc 1 444 13 is_stmt 0 discriminator 18 view .LVU940
 2771 03d8 A2E6     		b	.L70
 2772              	.LVL307:
 2773              	.L171:
 2774              	.LBB91:
 440:Drivers/STM32G4xx_HAL_Driver/Src/stm32g4xx_ll_usb.c ****             pmabuffer = ep->pmaaddr1;
 2775              		.loc 1 440 13 is_stmt 1 discriminator 16 view .LVU941
 2776 03da B5F85030 		ldrh	r3, [r5, #80]
 2777 03de 15FA83F3 		uxtah	r3, r5, r3
 2778              	.LVL308:
 440:Drivers/STM32G4xx_HAL_Driver/Src/stm32g4xx_ll_usb.c ****             pmabuffer = ep->pmaaddr1;
 2779              		.loc 1 440 13 discriminator 16 view .LVU942
 2780 03e2 2278     		ldrb	r2, [r4]	@ zero_extendqisi2
 2781 03e4 03EBC203 		add	r3, r3, r2, lsl #3
 2782              	.LVL309:
 440:Drivers/STM32G4xx_HAL_Driver/Src/stm32g4xx_ll_usb.c ****             pmabuffer = ep->pmaaddr1;
 2783              		.loc 1 440 13 discriminator 16 view .LVU943
 2784 03e8 B2B2     		uxth	r2, r6
 2785 03ea A3F80624 		strh	r2, [r3, #1030]	@ movhi
 2786 03ee EDE7     		b	.L98
 2787              	.LVL310:
 2788              	.L72:
 440:Drivers/STM32G4xx_HAL_Driver/Src/stm32g4xx_ll_usb.c ****             pmabuffer = ep->pmaaddr1;
 2789              		.loc 1 440 13 is_stmt 0 discriminator 16 view .LVU944
 2790              	.LBE91:
 450:Drivers/STM32G4xx_HAL_Driver/Src/stm32g4xx_ll_usb.c **** 
 2791              		.loc 1 450 11 is_stmt 1 view .LVU945
 453:Drivers/STM32G4xx_HAL_Driver/Src/stm32g4xx_ll_usb.c **** 
 2792              		.loc 1 453 11 view .LVU946
 2793              	.LBB92:
 453:Drivers/STM32G4xx_HAL_Driver/Src/stm32g4xx_ll_usb.c **** 
 2794              		.loc 1 453 11 view .LVU947
 453:Drivers/STM32G4xx_HAL_Driver/Src/stm32g4xx_ll_usb.c **** 
 2795              		.loc 1 453 11 view .LVU948
 2796 03f0 2178     		ldrb	r1, [r4]	@ zero_extendqisi2
 2797              	.LVL311:
 453:Drivers/STM32G4xx_HAL_Driver/Src/stm32g4xx_ll_usb.c **** 
 2798              		.loc 1 453 11 is_stmt 0 view .LVU949
 2799 03f2 35F82120 		ldrh	r2, [r5, r1, lsl #2]
 2800 03f6 92B2     		uxth	r2, r2
 2801 03f8 22F4E242 		bic	r2, r2, #28928
 2802 03fc 22F07002 		bic	r2, r2, #112
ARM GAS  C:\Users\Jack2bs\AppData\Local\Temp\ccBBPckb.s 			page 74


 2803              	.LVL312:
 453:Drivers/STM32G4xx_HAL_Driver/Src/stm32g4xx_ll_usb.c **** 
 2804              		.loc 1 453 11 is_stmt 1 view .LVU950
 2805 0400 42F40042 		orr	r2, r2, #32768
 2806              	.LVL313:
 453:Drivers/STM32G4xx_HAL_Driver/Src/stm32g4xx_ll_usb.c **** 
 2807              		.loc 1 453 11 is_stmt 0 view .LVU951
 2808 0404 42F08002 		orr	r2, r2, #128
 2809 0408 25F82120 		strh	r2, [r5, r1, lsl #2]	@ movhi
 2810              	.LBE92:
 453:Drivers/STM32G4xx_HAL_Driver/Src/stm32g4xx_ll_usb.c **** 
 2811              		.loc 1 453 11 is_stmt 1 view .LVU952
 456:Drivers/STM32G4xx_HAL_Driver/Src/stm32g4xx_ll_usb.c ****           pmabuffer = ep->pmaaddr0;
 2812              		.loc 1 456 11 view .LVU953
 2813              	.LBB93:
 456:Drivers/STM32G4xx_HAL_Driver/Src/stm32g4xx_ll_usb.c ****           pmabuffer = ep->pmaaddr0;
 2814              		.loc 1 456 11 view .LVU954
 2815              	.LVL314:
 456:Drivers/STM32G4xx_HAL_Driver/Src/stm32g4xx_ll_usb.c ****           pmabuffer = ep->pmaaddr0;
 2816              		.loc 1 456 11 view .LVU955
 456:Drivers/STM32G4xx_HAL_Driver/Src/stm32g4xx_ll_usb.c ****           pmabuffer = ep->pmaaddr0;
 2817              		.loc 1 456 11 view .LVU956
 2818 040c B5F85020 		ldrh	r2, [r5, #80]
