ARM GAS  C:\Users\Jack2bs\AppData\Local\Temp\ccrLqE7S.s 			page 1


   1              		.cpu cortex-m4
   2              		.eabi_attribute 27, 1
   3              		.eabi_attribute 28, 1
   4              		.eabi_attribute 20, 1
   5              		.eabi_attribute 21, 1
   6              		.eabi_attribute 23, 3
   7              		.eabi_attribute 24, 1
   8              		.eabi_attribute 25, 1
   9              		.eabi_attribute 26, 1
  10              		.eabi_attribute 30, 1
  11              		.eabi_attribute 34, 1
  12              		.eabi_attribute 18, 4
  13              		.file	"usb_device.c"
  14              		.text
  15              	.Ltext0:
  16              		.cfi_sections	.debug_frame
  17              		.section	.text.MX_USB_Device_Init,"ax",%progbits
  18              		.align	1
  19              		.global	MX_USB_Device_Init
  20              		.arch armv7e-m
  21              		.syntax unified
  22              		.thumb
  23              		.thumb_func
  24              		.fpu fpv4-sp-d16
  26              	MX_USB_Device_Init:
  27              	.LVL0:
  28              	.LFB136:
  29              		.file 1 "USB_Device/App/usb_device.c"
   1:USB_Device/App/usb_device.c **** /* USER CODE BEGIN Header */
   2:USB_Device/App/usb_device.c **** /**
   3:USB_Device/App/usb_device.c ****   ******************************************************************************
   4:USB_Device/App/usb_device.c ****   * @file           : usb_device.c
   5:USB_Device/App/usb_device.c ****   * @version        : v3.0_Cube
   6:USB_Device/App/usb_device.c ****   * @brief          : This file implements the USB Device
   7:USB_Device/App/usb_device.c ****   ******************************************************************************
   8:USB_Device/App/usb_device.c ****   * @attention
   9:USB_Device/App/usb_device.c ****   *
  10:USB_Device/App/usb_device.c ****   * <h2><center>&copy; Copyright (c) 2022 STMicroelectronics.
  11:USB_Device/App/usb_device.c ****   * All rights reserved.</center></h2>
  12:USB_Device/App/usb_device.c ****   *
  13:USB_Device/App/usb_device.c ****   * This software component is licensed by ST under Ultimate Liberty license
  14:USB_Device/App/usb_device.c ****   * SLA0044, the "License"; You may not use this file except in compliance with
  15:USB_Device/App/usb_device.c ****   * the License. You may obtain a copy of the License at:
  16:USB_Device/App/usb_device.c ****   *                             www.st.com/SLA0044
  17:USB_Device/App/usb_device.c ****   *
  18:USB_Device/App/usb_device.c ****   ******************************************************************************
  19:USB_Device/App/usb_device.c ****   */
  20:USB_Device/App/usb_device.c **** /* USER CODE END Header */
  21:USB_Device/App/usb_device.c **** 
  22:USB_Device/App/usb_device.c **** /* Includes ------------------------------------------------------------------*/
  23:USB_Device/App/usb_device.c **** 
  24:USB_Device/App/usb_device.c **** #include "usb_device.h"
  25:USB_Device/App/usb_device.c **** #include "usbd_core.h"
  26:USB_Device/App/usb_device.c **** #include "usbd_desc.h"
  27:USB_Device/App/usb_device.c **** #include "usbd_cdc.h"
  28:USB_Device/App/usb_device.c **** #include "usbd_cdc_if.h"
  29:USB_Device/App/usb_device.c **** 
ARM GAS  C:\Users\Jack2bs\AppData\Local\Temp\ccrLqE7S.s 			page 2


  30:USB_Device/App/usb_device.c **** /* USER CODE BEGIN Includes */
  31:USB_Device/App/usb_device.c **** 
  32:USB_Device/App/usb_device.c **** /* USER CODE END Includes */
  33:USB_Device/App/usb_device.c **** 
  34:USB_Device/App/usb_device.c **** /* USER CODE BEGIN PV */
  35:USB_Device/App/usb_device.c **** /* Private variables ---------------------------------------------------------*/
  36:USB_Device/App/usb_device.c **** 
  37:USB_Device/App/usb_device.c **** /* USER CODE END PV */
  38:USB_Device/App/usb_device.c **** 
  39:USB_Device/App/usb_device.c **** /* USER CODE BEGIN PFP */
  40:USB_Device/App/usb_device.c **** /* Private function prototypes -----------------------------------------------*/
  41:USB_Device/App/usb_device.c **** 
  42:USB_Device/App/usb_device.c **** /* USER CODE END PFP */
  43:USB_Device/App/usb_device.c **** 
  44:USB_Device/App/usb_device.c **** extern void Error_Handler(void);
  45:USB_Device/App/usb_device.c **** /* USB Device Core handle declaration. */
  46:USB_Device/App/usb_device.c **** USBD_HandleTypeDef hUsbDeviceFS;
  47:USB_Device/App/usb_device.c **** extern USBD_DescriptorsTypeDef CDC_Desc;
  48:USB_Device/App/usb_device.c **** 
  49:USB_Device/App/usb_device.c **** /*
  50:USB_Device/App/usb_device.c ****  * -- Insert your variables declaration here --
  51:USB_Device/App/usb_device.c ****  */
  52:USB_Device/App/usb_device.c **** /* USER CODE BEGIN 0 */
  53:USB_Device/App/usb_device.c **** 
  54:USB_Device/App/usb_device.c **** /* USER CODE END 0 */
  55:USB_Device/App/usb_device.c **** 
  56:USB_Device/App/usb_device.c **** /*
  57:USB_Device/App/usb_device.c ****  * -- Insert your external function declaration here --
  58:USB_Device/App/usb_device.c ****  */
  59:USB_Device/App/usb_device.c **** /* USER CODE BEGIN 1 */
  60:USB_Device/App/usb_device.c **** 
  61:USB_Device/App/usb_device.c **** /* USER CODE END 1 */
  62:USB_Device/App/usb_device.c **** 
  63:USB_Device/App/usb_device.c **** /**
  64:USB_Device/App/usb_device.c ****   * Init USB device Library, add supported class and start the library
  65:USB_Device/App/usb_device.c ****   * @retval None
  66:USB_Device/App/usb_device.c ****   */
  67:USB_Device/App/usb_device.c **** USBD_HandleTypeDef* MX_USB_Device_Init(uint8_t* rxBuf, uint8_t* txBuf)
  68:USB_Device/App/usb_device.c **** {
  30              		.loc 1 68 1 view -0
  31              		.cfi_startproc
  32              		@ args = 0, pretend = 0, frame = 0
  33              		@ frame_needed = 0, uses_anonymous_args = 0
  34              		.loc 1 68 1 is_stmt 0 view .LVU1
  35 0000 70B5     		push	{r4, r5, r6, lr}
  36              	.LCFI0:
  37              		.cfi_def_cfa_offset 16
  38              		.cfi_offset 4, -16
  39              		.cfi_offset 5, -12
  40              		.cfi_offset 6, -8
  41              		.cfi_offset 14, -4
  42 0002 0646     		mov	r6, r0
  43 0004 0D46     		mov	r5, r1
  69:USB_Device/App/usb_device.c ****   /* USER CODE BEGIN USB_Device_Init_PreTreatment */
  70:USB_Device/App/usb_device.c **** 
  71:USB_Device/App/usb_device.c ****   /* USER CODE END USB_Device_Init_PreTreatment */
  72:USB_Device/App/usb_device.c **** 
ARM GAS  C:\Users\Jack2bs\AppData\Local\Temp\ccrLqE7S.s 			page 3


  73:USB_Device/App/usb_device.c ****   /* Init Device Library, add supported class and start the library. */
  74:USB_Device/App/usb_device.c ****   if (USBD_Init(&hUsbDeviceFS, &CDC_Desc, DEVICE_FS) != USBD_OK) {
  44              		.loc 1 74 3 is_stmt 1 view .LVU2
  45              		.loc 1 74 7 is_stmt 0 view .LVU3
  46 0006 0022     		movs	r2, #0
  47 0008 1549     		ldr	r1, .L11
  48              	.LVL1:
  49              		.loc 1 74 7 view .LVU4
  50 000a 1648     		ldr	r0, .L11+4
  51              	.LVL2:
  52              		.loc 1 74 7 view .LVU5
  53 000c FFF7FEFF 		bl	USBD_Init
  54              	.LVL3:
  55              		.loc 1 74 6 view .LVU6
  56 0010 C8B9     		cbnz	r0, .L7
  57              	.L2:
  75:USB_Device/App/usb_device.c ****     Error_Handler();
  76:USB_Device/App/usb_device.c ****   }
  77:USB_Device/App/usb_device.c ****   if (USBD_RegisterClass(&hUsbDeviceFS, &USBD_CDC) != USBD_OK) {
  58              		.loc 1 77 3 is_stmt 1 view .LVU7
  59              		.loc 1 77 7 is_stmt 0 view .LVU8
  60 0012 1549     		ldr	r1, .L11+8
  61 0014 1348     		ldr	r0, .L11+4
  62 0016 FFF7FEFF 		bl	USBD_RegisterClass
  63              	.LVL4:
  64              		.loc 1 77 6 view .LVU9
  65 001a B8B9     		cbnz	r0, .L8
  66              	.L3:
  78:USB_Device/App/usb_device.c ****     Error_Handler();
  79:USB_Device/App/usb_device.c ****   }
  80:USB_Device/App/usb_device.c ****   if (USBD_CDC_RegisterInterface(&hUsbDeviceFS, &USBD_Interface_fops_FS) != USBD_OK) {
  67              		.loc 1 80 3 is_stmt 1 view .LVU10
  68              		.loc 1 80 7 is_stmt 0 view .LVU11
  69 001c 1349     		ldr	r1, .L11+12
  70 001e 1148     		ldr	r0, .L11+4
  71 0020 FFF7FEFF 		bl	USBD_CDC_RegisterInterface
  72              	.LVL5:
  73              		.loc 1 80 6 view .LVU12
  74 0024 A8B9     		cbnz	r0, .L9
  75              	.L4:
  81:USB_Device/App/usb_device.c ****     Error_Handler();
  82:USB_Device/App/usb_device.c ****   }
  83:USB_Device/App/usb_device.c ****   if (USBD_Start(&hUsbDeviceFS) != USBD_OK) {
  76              		.loc 1 83 3 is_stmt 1 view .LVU13
  77              		.loc 1 83 7 is_stmt 0 view .LVU14
  78 0026 0F48     		ldr	r0, .L11+4
  79 0028 FFF7FEFF 		bl	USBD_Start
  80              	.LVL6:
  81              		.loc 1 83 6 view .LVU15
  82 002c A0B9     		cbnz	r0, .L10
  83              	.L5:
  84:USB_Device/App/usb_device.c ****     Error_Handler();
  85:USB_Device/App/usb_device.c ****   }
  86:USB_Device/App/usb_device.c ****   /* USER CODE BEGIN USB_Device_Init_PostTreatment */
  87:USB_Device/App/usb_device.c **** 
  88:USB_Device/App/usb_device.c ****   USBD_CDC_SetRxBuffer(&hUsbDeviceFS, rxBuf);
  84              		.loc 1 88 3 is_stmt 1 view .LVU16
ARM GAS  C:\Users\Jack2bs\AppData\Local\Temp\ccrLqE7S.s 			page 4


  85 002e 0D4C     		ldr	r4, .L11+4
  86 0030 3146     		mov	r1, r6
  87 0032 2046     		mov	r0, r4
  88 0034 FFF7FEFF 		bl	USBD_CDC_SetRxBuffer
  89              	.LVL7:
  89:USB_Device/App/usb_device.c ****   USBD_CDC_SetTxBuffer(&hUsbDeviceFS, txBuf, 32);
  90              		.loc 1 89 3 view .LVU17
  91 0038 2022     		movs	r2, #32
  92 003a 2946     		mov	r1, r5
  93 003c 2046     		mov	r0, r4
  94 003e FFF7FEFF 		bl	USBD_CDC_SetTxBuffer
  95              	.LVL8:
  90:USB_Device/App/usb_device.c **** 
  91:USB_Device/App/usb_device.c ****   return &hUsbDeviceFS;
  96              		.loc 1 91 3 view .LVU18
  92:USB_Device/App/usb_device.c **** 
  93:USB_Device/App/usb_device.c ****   /* USER CODE END USB_Device_Init_PostTreatment */
  94:USB_Device/App/usb_device.c **** }
  97              		.loc 1 94 1 is_stmt 0 view .LVU19
  98 0042 2046     		mov	r0, r4
  99 0044 70BD     		pop	{r4, r5, r6, pc}
 100              	.LVL9:
 101              	.L7:
  75:USB_Device/App/usb_device.c ****   }
 102              		.loc 1 75 5 is_stmt 1 view .LVU20
 103 0046 FFF7FEFF 		bl	Error_Handler
 104              	.LVL10:
 105 004a E2E7     		b	.L2
 106              	.L8:
  78:USB_Device/App/usb_device.c ****   }
 107              		.loc 1 78 5 view .LVU21
 108 004c FFF7FEFF 		bl	Error_Handler
 109              	.LVL11:
 110 0050 E4E7     		b	.L3
 111              	.L9:
  81:USB_Device/App/usb_device.c ****   }
 112              		.loc 1 81 5 view .LVU22
 113 0052 FFF7FEFF 		bl	Error_Handler
 114              	.LVL12:
 115 0056 E6E7     		b	.L4
 116              	.L10:
  84:USB_Device/App/usb_device.c ****   }
 117              		.loc 1 84 5 view .LVU23
 118 0058 FFF7FEFF 		bl	Error_Handler
 119              	.LVL13:
 120 005c E7E7     		b	.L5
 121              	.L12:
 122 005e 00BF     		.align	2
 123              	.L11:
 124 0060 00000000 		.word	CDC_Desc
 125 0064 00000000 		.word	.LANCHOR0
 126 0068 00000000 		.word	USBD_CDC
 127 006c 00000000 		.word	USBD_Interface_fops_FS
 128              		.cfi_endproc
 129              	.LFE136:
 131              		.global	hUsbDeviceFS
 132              		.section	.bss.hUsbDeviceFS,"aw",%nobits
ARM GAS  C:\Users\Jack2bs\AppData\Local\Temp\ccrLqE7S.s 			page 5


 133              		.align	2
 134              		.set	.LANCHOR0,. + 0
 137              	hUsbDeviceFS:
 138 0000 00000000 		.space	720
 138      00000000 
 138      00000000 
 138      00000000 
 138      00000000 
 139              		.text
 140              	.Letext0:
 141              		.file 2 "e:\\arm\\10 2020-q4-major\\arm-none-eabi\\include\\machine\\_default_types.h"
 142              		.file 3 "e:\\arm\\10 2020-q4-major\\arm-none-eabi\\include\\sys\\_stdint.h"
 143              		.file 4 "Middlewares/ST/STM32_USB_Device_Library/Core/Inc/usbd_def.h"
 144              		.file 5 "Middlewares/ST/STM32_USB_Device_Library/Class/CDC/Inc/usbd_cdc.h"
 145              		.file 6 "USB_Device/App/usbd_desc.h"
 146              		.file 7 "USB_Device/App/usbd_cdc_if.h"
 147              		.file 8 "Middlewares/ST/STM32_USB_Device_Library/Core/Inc/usbd_core.h"
ARM GAS  C:\Users\Jack2bs\AppData\Local\Temp\ccrLqE7S.s 			page 6

